EXPORTS
?PACK_LENGTH@Field_newdate@@1HB DATA
?max_n_points@Gis_line_string@@0IB DATA
?BINLOG_STMT_UNSAFE_ALL_FLAGS@Query_tables_list@@2HB DATA
?has_denorm@_Num_base@std@@2W4float_denorm_style@2@B DATA
?has_denorm_loss@_Num_base@std@@2_NB DATA
?has_infinity@_Num_base@std@@2_NB DATA
?has_quiet_NaN@_Num_base@std@@2_NB DATA
?has_signaling_NaN@_Num_base@std@@2_NB DATA
?is_bounded@_Num_base@std@@2_NB DATA
?is_exact@_Num_base@std@@2_NB DATA
?is_iec559@_Num_base@std@@2_NB DATA
?is_integer@_Num_base@std@@2_NB DATA
?is_modulo@_Num_base@std@@2_NB DATA
?max_n_points@Gis_multi_point@@0IB DATA
?is_signed@_Num_base@std@@2_NB DATA
?is_specialized@_Num_base@std@@2_NB DATA
?tinyness_before@_Num_base@std@@2_NB DATA
?traps@_Num_base@std@@2_NB DATA
?round_style@_Num_base@std@@2W4float_round_style@2@B DATA
?digits@_Num_base@std@@2HB DATA
?digits10@_Num_base@std@@2HB DATA
?max_digits10@_Num_base@std@@2HB DATA
?value@?$_Sizeof@HU_Nil@std@@U12@U12@U12@U12@U12@U12@@std@@2IB DATA
?max_exponent@_Num_base@std@@2HB DATA
?max_exponent10@_Num_base@std@@2HB DATA
?min_exponent@_Num_base@std@@2HB DATA
?min_exponent10@_Num_base@std@@2HB DATA
?radix@_Num_base@std@@2HB DATA
?is_bounded@_Num_int_base@std@@2_NB DATA
?is_exact@_Num_int_base@std@@2_NB DATA
?is_integer@_Num_int_base@std@@2_NB DATA
?is_modulo@_Num_int_base@std@@2_NB DATA
?is_specialized@_Num_int_base@std@@2_NB DATA
?radix@_Num_int_base@std@@2HB DATA
?has_denorm@_Num_float_base@std@@2W4float_denorm_style@2@B DATA
?has_denorm_loss@_Num_float_base@std@@2_NB DATA
?has_infinity@_Num_float_base@std@@2_NB DATA
?has_quiet_NaN@_Num_float_base@std@@2_NB DATA
?has_signaling_NaN@_Num_float_base@std@@2_NB DATA
?is_bounded@_Num_float_base@std@@2_NB DATA
?is_exact@_Num_float_base@std@@2_NB DATA
?is_iec559@_Num_float_base@std@@2_NB DATA
?is_integer@_Num_float_base@std@@2_NB DATA
?is_modulo@_Num_float_base@std@@2_NB DATA
?is_signed@_Num_float_base@std@@2_NB DATA
?is_specialized@_Num_float_base@std@@2_NB DATA
?tinyness_before@_Num_float_base@std@@2_NB DATA
?traps@_Num_float_base@std@@2_NB DATA
?round_style@_Num_float_base@std@@2W4float_round_style@2@B DATA
?radix@_Num_float_base@std@@2HB DATA
?is_signed@?$numeric_limits@D@std@@2_NB DATA
?digits@?$numeric_limits@D@std@@2HB DATA
?digits10@?$numeric_limits@D@std@@2HB DATA
?TEXT_LENGTH@Uuid@@2IB DATA
?BYTE_LENGTH@Uuid@@2IB DATA
?BIT_LENGTH@Uuid@@2IB DATA
?NUMBER_OF_SECTIONS@Uuid@@0HB DATA
?is_signed@?$numeric_limits@_W@std@@2_NB DATA
?digits@?$numeric_limits@_W@std@@2HB DATA
?digits10@?$numeric_limits@_W@std@@2HB DATA
?is_modulo@?$numeric_limits@_N@std@@2_NB DATA
?is_signed@?$numeric_limits@_N@std@@2_NB DATA
?digits@?$numeric_limits@_N@std@@2HB DATA
?digits10@?$numeric_limits@_N@std@@2HB DATA
?PACK_LENGTH@Field_datetime@@2HB DATA
?MAX_TEXT_LENGTH@Gtid_specification@@2HB DATA
?is_signed@?$numeric_limits@C@std@@2_NB DATA
?digits@?$numeric_limits@C@std@@2HB DATA
?digits10@?$numeric_limits@C@std@@2HB DATA
?value@?$integral_constant@I$0A@@std@@2IB DATA
?is_signed@?$numeric_limits@E@std@@2_NB DATA
?digits@?$numeric_limits@E@std@@2HB DATA
?digits10@?$numeric_limits@E@std@@2HB DATA
?is_signed@?$numeric_limits@F@std@@2_NB DATA
?digits@?$numeric_limits@F@std@@2HB DATA
?digits10@?$numeric_limits@F@std@@2HB DATA
?is_signed@?$numeric_limits@G@std@@2_NB DATA
?digits@?$numeric_limits@G@std@@2HB DATA
?digits10@?$numeric_limits@G@std@@2HB DATA
?is_signed@?$numeric_limits@H@std@@2_NB DATA
?digits@?$numeric_limits@H@std@@2HB DATA
?digits10@?$numeric_limits@H@std@@2HB DATA
?MODIFIED_NON_TRANS_TABLE@THD_TRANS@@0IB DATA
?CREATED_TEMP_TABLE@THD_TRANS@@0IB DATA
?extra_size@user_var_entry@@0IB DATA
?DROPPED_TEMP_TABLE@THD_TRANS@@0IB DATA
?test_value@my_decimal@@0HB DATA
?MAX_TEXT_LENGTH@Gtid@@2HB DATA
?TABLE_ID_MAX@Table_id@@0_KB DATA
?is_signed@?$numeric_limits@I@std@@2_NB DATA
?digits@?$numeric_limits@I@std@@2HB DATA
?digits10@?$numeric_limits@I@std@@2HB DATA
?is_signed@?$numeric_limits@J@std@@2_NB DATA
?ALTER_ADD_COLUMN@Alter_info@@2IB DATA
?ALTER_DROP_COLUMN@Alter_info@@2IB DATA
?digits@?$numeric_limits@J@std@@2HB DATA
?ALTER_CHANGE_COLUMN@Alter_info@@2IB DATA
?ALTER_ADD_INDEX@Alter_info@@2IB DATA
?digits10@?$numeric_limits@J@std@@2HB DATA
?ALTER_DROP_INDEX@Alter_info@@2IB DATA
?ALTER_RENAME@Alter_info@@2IB DATA
?ALTER_ORDER@Alter_info@@2IB DATA
?ALTER_OPTIONS@Alter_info@@2IB DATA
?ALTER_CHANGE_COLUMN_DEFAULT@Alter_info@@2IB DATA
?ALTER_KEYS_ONOFF@Alter_info@@2IB DATA
?value@?$_Sizeof@U_Nil@std@@U12@U12@U12@U12@U12@U12@U12@@std@@2IB DATA
?ALTER_RECREATE@Alter_info@@2IB DATA
?ALTER_ADD_PARTITION@Alter_info@@2IB DATA
?ALTER_DROP_PARTITION@Alter_info@@2IB DATA
?ALTER_COALESCE_PARTITION@Alter_info@@2IB DATA
?ALTER_REORGANIZE_PARTITION@Alter_info@@2IB DATA
?ALTER_PARTITION@Alter_info@@2IB DATA
?ALTER_ADMIN_PARTITION@Alter_info@@2IB DATA
?ALTER_TABLE_REORG@Alter_info@@2IB DATA
?ALTER_REBUILD_PARTITION@Alter_info@@2IB DATA
?is_signed@?$numeric_limits@K@std@@2_NB DATA
?ALTER_ALL_PARTITION@Alter_info@@2IB DATA
?ALTER_REMOVE_PARTITIONING@Alter_info@@2IB DATA
?digits@?$numeric_limits@K@std@@2HB DATA
?ADD_FOREIGN_KEY@Alter_info@@2IB DATA
?DROP_FOREIGN_KEY@Alter_info@@2IB DATA
?digits10@?$numeric_limits@K@std@@2HB DATA
?ALTER_EXCHANGE_PARTITION@Alter_info@@2IB DATA
?function_buffer_item_size@Gcalc_function@@0IB DATA
?ALL_FIELDS_UNDEF_POS@st_select_lex@@2HB DATA
?ALTER_TRUNCATE_PARTITION@Alter_info@@2IB DATA
?shape_buffer_item_size@Gcalc_function@@0IB DATA
?ALTER_COLUMN_ORDER@Alter_info@@2IB DATA
?is_signed@?$numeric_limits@_J@std@@2_NB DATA
?digits@?$numeric_limits@_J@std@@2HB DATA
?digits10@?$numeric_limits@_J@std@@2HB DATA
?is_signed@?$numeric_limits@_K@std@@2_NB DATA
?digits@?$numeric_limits@_K@std@@2HB DATA
?PACK_LENGTH@Field_timestamp@@2HB DATA
?ADD_INDEX@Alter_inplace_info@@2KB DATA
?digits10@?$numeric_limits@_K@std@@2HB DATA
?DROP_INDEX@Alter_inplace_info@@2KB DATA
?ADD_UNIQUE_INDEX@Alter_inplace_info@@2KB DATA
?DROP_UNIQUE_INDEX@Alter_inplace_info@@2KB DATA
?ADD_PK_INDEX@Alter_inplace_info@@2KB DATA
?value@?$integral_constant@_N$0A@@std@@2_NB DATA
?DROP_PK_INDEX@Alter_inplace_info@@2KB DATA
?ADD_COLUMN@Alter_inplace_info@@2KB DATA
?DROP_COLUMN@Alter_inplace_info@@2KB DATA
?ALTER_COLUMN_NAME@Alter_inplace_info@@2KB DATA
?ALTER_COLUMN_TYPE@Alter_inplace_info@@2KB DATA
?ALTER_COLUMN_EQUAL_PACK_LENGTH@Alter_inplace_info@@2KB DATA
?ALTER_COLUMN_ORDER@Alter_inplace_info@@2KB DATA
?ALTER_COLUMN_NULLABLE@Alter_inplace_info@@2KB DATA
?value@?$integral_constant@_N$00@std@@2_NB DATA
?ALTER_COLUMN_NOT_NULLABLE@Alter_inplace_info@@2KB DATA
?ALTER_COLUMN_DEFAULT@Alter_inplace_info@@2KB DATA
?ADD_FOREIGN_KEY@Alter_inplace_info@@2KB DATA
?digits@?$numeric_limits@M@std@@2HB DATA
?DROP_FOREIGN_KEY@Alter_inplace_info@@2KB DATA
?digits10@?$numeric_limits@M@std@@2HB DATA
?CHANGE_CREATE_OPTION@Alter_inplace_info@@2KB DATA
?ALTER_RENAME@Alter_inplace_info@@2KB DATA
?max_digits10@?$numeric_limits@M@std@@2HB DATA
?ALTER_COLUMN_STORAGE_TYPE@Alter_inplace_info@@2KB DATA
?ALTER_COLUMN_COLUMN_FORMAT@Alter_inplace_info@@2KB DATA
?max_exponent@?$numeric_limits@M@std@@2HB DATA
?ADD_PARTITION@Alter_inplace_info@@2KB DATA
?DROP_PARTITION@Alter_inplace_info@@2KB DATA
?max_exponent10@?$numeric_limits@M@std@@2HB DATA
?ALTER_PARTITION@Alter_inplace_info@@2KB DATA
?COALESCE_PARTITION@Alter_inplace_info@@2KB DATA
?min_exponent@?$numeric_limits@M@std@@2HB DATA
?REORGANIZE_PARTITION@Alter_inplace_info@@2KB DATA
?ALTER_TABLE_REORG@Alter_inplace_info@@2KB DATA
?min_exponent10@?$numeric_limits@M@std@@2HB DATA
?ALTER_REMOVE_PARTITIONING@Alter_inplace_info@@2KB DATA
?ALTER_ALL_PARTITION@Alter_inplace_info@@2KB DATA
?RECREATE_TABLE@Alter_inplace_info@@2KB DATA
?digits@?$numeric_limits@N@std@@2HB DATA
?digits10@?$numeric_limits@N@std@@2HB DATA
?max_digits10@?$numeric_limits@N@std@@2HB DATA
?max_exponent@?$numeric_limits@N@std@@2HB DATA
?CHUNK_GROW_SIZE@Gtid_set@@0HB DATA
?max_exponent10@?$numeric_limits@N@std@@2HB DATA
?min_exponent@?$numeric_limits@N@std@@2HB DATA
?min_exponent10@?$numeric_limits@N@std@@2HB DATA
?PACK_LENGTH@Field_timestampf@@2HB DATA
?LOG_THROTTLE_WINDOW_SIZE@Log_throttle@@2KB DATA
?digits@?$numeric_limits@O@std@@2HB DATA
?digits10@?$numeric_limits@O@std@@2HB DATA
?PACK_LENGTH@Field_long@@2HB DATA
?max_digits10@?$numeric_limits@O@std@@2HB DATA
?max_exponent@?$numeric_limits@O@std@@2HB DATA
?max_exponent10@?$numeric_limits@O@std@@2HB DATA
?min_exponent@?$numeric_limits@O@std@@2HB DATA
?min_exponent10@?$numeric_limits@O@std@@2HB DATA
?PACK_LENGTH@Field_longlong@@2HB DATA
??_H@YGXPAXIHP6EPAX0@Z@Z
my_net_local_init
??$max@I@std@@YAABIABI0@Z
??$_Debug_lt@II@std@@YA_NABI0PB_WI@Z
?key_LOG_INFO_lock@@3IA DATA
?MAX_TABLE_CACHES@Table_cache_manager@@2HB DATA
?refresh_version@@3KA DATA
?opt_debug_sync_timeout@@3IA DATA
?LOCK_thread_count@@3Ust_mysql_mutex@@A DATA
?LOCK_thd_remove@@3Ust_mysql_mutex@@A DATA
?COND_thread_count@@3Ust_mysql_cond@@A DATA
?value@?$_Sizeof@$$QAPAVTHD@@U_Nil@std@@U23@U23@U23@U23@U23@U23@@std@@2IB DATA
?value@?$_Sizeof@H$$QAPAVTHD@@U_Nil@std@@U23@U23@U23@U23@U23@@std@@2IB DATA
system_charset_info DATA
?files_charset_info@@3PAUcharset_info_st@@A DATA
?national_charset_info@@3PAUcharset_info_st@@A DATA
?table_alias_charset@@3PAUcharset_info_st@@A DATA
?error_message_charset_info@@3PAUcharset_info_st@@A DATA
?character_set_filesystem@@3PAUcharset_info_st@@A DATA
?temp_pool@@3Ust_bitmap@@A DATA
?opt_large_files@@3_NA DATA
?server_id_supplied@@3_NA DATA
?opt_bin_log@@3_NA DATA
?opt_error_log@@3_NA DATA
?opt_log@@3DA DATA
?opt_slow_log@@3DA DATA
?opt_log_raw@@3DA DATA
?log_output_options@@3_KA DATA
?opt_log_queries_not_using_indexes@@3DA DATA
?opt_log_throttle_queries_not_using_indexes@@3KA DATA
?opt_disable_networking@@3_NA DATA
?opt_skip_show_db@@3_NA DATA
?opt_skip_name_resolve@@3_NA DATA
?opt_ignore_builtin_innodb@@3_NA DATA
?opt_character_set_client_handshake@@3DA DATA
?abort_loop@@3_NC DATA
?in_bootstrap@@3_NA DATA
?opt_bootstrap@@3DA DATA
?connection_count@@3IA DATA
?opt_safe_user_create@@3DA DATA
?shutdown_in_progress@@3_NC DATA
?opt_local_infile@@3DA DATA
?opt_myisam_use_mmap@@3DA DATA
?opt_slave_compressed_protocol@@3DA DATA
?use_temp_pool@@3DA DATA
?slave_exec_mode_options@@3KA DATA
?slave_type_conversions_options@@3_KA DATA
?read_only@@3DA DATA
?opt_readonly@@3DA DATA
?lower_case_file_system@@3DA DATA
?slave_rows_search_algorithms_options@@3_KA DATA
?slave_rows_last_search_algorithm_used@@3IA DATA
?opt_enable_named_pipe@@3DA DATA
?opt_sync_frm@@3DA DATA
?opt_allow_suspicious_udfs@@3DA DATA
?opt_secure_auth@@3DA DATA
?opt_secure_file_priv@@3PADA DATA
?opt_log_slow_admin_statements@@3DA DATA
?opt_log_slow_slave_statements@@3DA DATA
?sp_automatic_privileges@@3DA DATA
?opt_noacl@@3DA DATA
?opt_old_style_user_limits@@3DA DATA
?trust_function_creators@@3DA DATA
?shared_memory_base_name@@3PADA DATA
?mysqld_unix_port@@3PADA DATA
?opt_enable_shared_memory@@3DA DATA
?default_tz_name@@3PADA DATA
?default_tz@@3PAVTime_zone@@A DATA
?default_storage_engine@@3PADA DATA
?default_tmp_storage_engine@@3PADA DATA
?opt_endinfo@@3_NA DATA
?using_udf_functions@@3_NA DATA
?stmt_info_new_packet@@3UPSI_statement_info_v1@@A DATA
?locked_in_memory@@3DA DATA
?opt_using_transactions@@3_NA DATA
?tc_heuristic_recover@@3KA DATA
?current_pid@@3KA DATA
?expire_logs_days@@3KA DATA
?relay_log_recovery@@3DA DATA
?sync_binlog_period@@3IA DATA
?sync_relaylog_period@@3IA DATA
?sync_relayloginfo_period@@3IA DATA
?sync_masterinfo_period@@3IA DATA
?opt_mts_checkpoint_period@@3IA DATA
?opt_mts_checkpoint_group@@3IA DATA
?relay_log_purge@@3DA DATA
?test_flags@@3IA DATA
?select_errors@@3IA DATA
?ha_open_options@@3IA DATA
?protocol_version@@3IA DATA
?mysqld_port@@3IA DATA
?dropping_tables@@3IA DATA
?delay_key_write_options@@3KA DATA
?opt_logname@@3PADA DATA
?opt_slow_logname@@3PADA DATA
?opt_bin_logname@@3PADA DATA
?opt_relay_logname@@3PADA DATA
?mysql_home_ptr@@3PADA DATA
?pidfile_name_ptr@@3PADA DATA
?my_bind_addr_str@@3PADA DATA
?glob_hostname@@3PADA DATA
?mysql_home@@3PADA DATA
?pidfile_name@@3PADA DATA
?system_time_zone@@3PADA DATA
?opt_init_file@@3PADA DATA
?default_logfile_name@@3PADA DATA
?log_error_file@@3PADA DATA
?opt_tc_log_file@@3PADA DATA
?server_uuid@@3PADA DATA
?server_uuid_ptr@@3PBDB DATA
?log_10@@3QBNB DATA
?thread_id@@3KA DATA
?binlog_cache_use@@3KA DATA
?binlog_cache_disk_use@@3KA DATA
?binlog_stmt_cache_use@@3KA DATA
?binlog_stmt_cache_disk_use@@3KA DATA
?aborted_threads@@3KA DATA
?aborted_connects@@3KA DATA
?delayed_insert_timeout@@3KA DATA
?delayed_insert_limit@@3KA DATA
?delayed_queue_size@@3KA DATA
?delayed_insert_threads@@3KA DATA
?delayed_insert_writes@@3KA DATA
?delayed_rows_in_use@@3KA DATA
?delayed_insert_errors@@3KA DATA
?slave_open_temp_tables@@3HA DATA
?query_cache_size@@3KA DATA
?query_cache_min_res_unit@@3KA DATA
?slow_launch_threads@@3KA DATA
?slow_launch_time@@3KA DATA
?table_cache_size@@3KA DATA
?table_def_size@@3KA DATA
?table_cache_size_per_instance@@3KA DATA
?table_cache_instances@@3KA DATA
?max_connections@@3KA DATA
?max_connect_errors@@3KA DATA
?connect_timeout@@3KA DATA
?opt_slave_allow_batching@@3DA DATA
?slave_trans_retries@@3KA DATA
?slave_net_timeout@@3IA DATA
?opt_mts_slave_parallel_workers@@3KA DATA
?binlog_format_names@@3PAPBDA DATA
?opt_mts_pending_jobs_size_max@@3_KA DATA
?rpl_stop_slave_timeout@@3KA DATA
?log_bin_use_v1_row_events@@3DA DATA
?what_to_log@@3KA DATA
?flush_time@@3KA DATA
?max_prepared_stmt_count@@3KA DATA
?prepared_stmt_count@@3KA DATA
?open_files_limit@@3KA DATA
?binlog_cache_size@@3KA DATA
?binlog_stmt_cache_size@@3KA DATA
?max_binlog_cache_size@@3_KA DATA
?max_binlog_stmt_cache_size@@3_KA DATA
?opt_binlog_max_flush_queue_time@@3HA DATA
?value@?$integral_constant@H$0A@@std@@2HB DATA
?max_binlog_size@@3KA DATA
?max_relay_log_size@@3KA DATA
?slave_max_allowed_packet@@3KA DATA
?key_LOCK_system_variables_hash@@3IA DATA
?opt_binlog_rows_event_max_size@@3KA DATA
?binlog_checksum_options@@3KA DATA
?opt_master_verify_checksum@@3DA DATA
?opt_slave_sql_verify_checksum@@3DA DATA
?enforce_gtid_consistency@@3DA DATA
?binlog_gtid_simple_recovery@@3DA DATA
?binlog_error_action@@3KA DATA
?binlog_error_action_list@@3PAPBDA DATA
?gtid_mode@@3KA DATA
?gtid_mode_names@@3PAPBDA DATA
?gtid_mode_typelib@@3Ust_typelib@@A DATA
?mqh_used@@3_NC DATA
?max_blocked_pthreads@@3KA DATA
?stored_program_cache_size@@3KA DATA
?back_log@@3KA DATA
server_id DATA
?concurrency@@3KA DATA
?server_start_time@@3_JA DATA
?flush_status_time@@3_JA DATA
?opt_mysql_tmpdir@@3PADA DATA
?mysql_charsets_dir@@3PADA DATA
?mysql_unpacked_real_data_home_len@@3HA DATA
?mysql_tmpdir_list@@3Ust_my_tmpdir@@A DATA
?first_keyword@@3PBDB DATA
?delayed_user@@3PBDB DATA
?binary_keyword@@3PBDB DATA
?my_localhost@@3PBDB DATA
?in_left_expr_name@@3PBDB DATA
?in_additional_cond@@3PBDB DATA
?in_having_cond@@3PBDB DATA
?status_vars@@3PAUst_mysql_show_var@@A DATA
?max_system_variables@@3Usystem_variables@@A DATA
?global_status_var@@3Usystem_status_var@@A DATA
?sql_rand@@3Urand_struct@@A DATA
?partition_hton@@3PAUhandlerton@@A DATA
?myisam_hton@@3PAUhandlerton@@A DATA
?heap_hton@@3PAUhandlerton@@A DATA
?opt_server_id_bits@@3IA DATA
?opt_server_id_mask@@3KA DATA
?load_default_groups@@3PAPBDA DATA
?ready_to_exit@@3_NC DATA
?my_long_options@@3PAUmy_option@@A DATA
?my_long_early_options@@3PAUmy_option@@A DATA
?mysqld_server_started@@3HA DATA
orig_argc DATA
orig_argv DATA
?max_used_connections@@3KA DATA
?connection_attrib@@3Uthread_attr@@A DATA
?bootstrap_file@@3PAUst_mysql_file@@A DATA
?old_mode@@3DA DATA
?avoid_temporal_upgrade@@3DA DATA
?opt_init_connect@@3Ust_mysql_lex_string@@A DATA
?opt_init_slave@@3Ust_mysql_lex_string@@A DATA
?bootstrap_error@@3HA DATA
?connection_errors_select@@3KA DATA
?connection_errors_accept@@3KA DATA
?connection_errors_tcpwrap@@3KA DATA
?slow_start_timeout@@3KA DATA
?connection_errors_internal@@3KA DATA
?connection_errors_max_connection@@3KA DATA
?grant_option@@3_NC DATA
?connection_errors_peer_addr@@3KA DATA
?opt_super_large_pages@@3DA DATA
?log_warnings@@3KA DATA
?binlog_checksum_default@@3PBDB DATA
?host_cache_size@@3IA DATA
?com_status_vars@@3PAUst_mysql_show_var@@A DATA
?THR_MALLOC@@3KA DATA
?key_PAGE_lock@@3IA DATA
?key_LOCK_sync@@3IA DATA
?key_LOCK_active@@3IA DATA
?key_LOCK_pool@@3IA DATA
?key_LOCK_des_key_file@@3IA DATA
?key_BINLOG_LOCK_commit@@3IA DATA
?key_BINLOG_LOCK_commit_queue@@3IA DATA
?key_BINLOG_LOCK_done@@3IA DATA
?key_BINLOG_LOCK_flush_queue@@3IA DATA
?key_BINLOG_LOCK_index@@3IA DATA
?key_BINLOG_LOCK_log@@3IA DATA
?key_BINLOG_LOCK_sync@@3IA DATA
?key_BINLOG_LOCK_sync_queue@@3IA DATA
?mysqld_port_timeout@@3IA DATA
?thread_created@@3KA DATA
?key_BINLOG_LOCK_xids@@3IA DATA
?key_delayed_insert_mutex@@3IA DATA
?key_hash_filo_lock@@3IA DATA
?thread_cache_size_specified@@3_NA DATA
?key_LOCK_active_mi@@3IA DATA
?host_cache_size_specified@@3_NA DATA
?key_LOCK_connection_count@@3IA DATA
?table_definition_cache_specified@@3_NA DATA
?key_LOCK_crypt@@3IA DATA
?key_LOCK_delayed_create@@3IA DATA
?sql_statement_names@@3PAUst_mysql_const_lex_string@@A DATA
?key_LOCK_delayed_insert@@3IA DATA
?LINES_IN_RELAY_LOG_INFO_WITH_DELAY@Relay_log_info@@0HB DATA
?key_LOCK_delayed_status@@3IA DATA
?LINES_IN_RELAY_LOG_INFO_WITH_WORKERS@Relay_log_info@@0HB DATA
?key_LOCK_error_log@@3IA DATA
?key_LOCK_gdl@@3IA DATA
?LINES_IN_RELAY_LOG_INFO_WITH_ID@Relay_log_info@@0HB DATA
?key_LOCK_global_system_variables@@3IA DATA
?key_LOCK_manager@@3IA DATA
?key_LOCK_prepared_stmt_count@@3IA DATA
?logname_path@@3PADA DATA
?key_LOCK_sql_slave_skip_counter@@3IA DATA
?slow_logname_path@@3PADA DATA
?key_LOCK_slave_net_timeout@@3IA DATA
?key_LOCK_server_started@@3IA DATA
?secure_file_real_path@@3PADA DATA
?key_LOCK_status@@3IA DATA
?key_LOCK_table_share@@3IA DATA
?key_LOCK_thd_data@@3IA DATA
?key_LOCK_user_conn@@3IA DATA
?key_LOCK_uuid_generator@@3IA DATA
?key_LOG_LOCK_log@@3IA DATA
?key_master_info_data_lock@@3IA DATA
?key_master_info_run_lock@@3IA DATA
?key_master_info_sleep_lock@@3IA DATA
?key_mutex_slave_reporting_capability_err_lock@@3IA DATA
?key_relay_log_info_data_lock@@3IA DATA
?key_relay_log_info_sleep_lock@@3IA DATA
?key_relay_log_info_log_space_lock@@3IA DATA
?user_info@@3PAUpasswd@@A DATA
?key_relay_log_info_run_lock@@3IA DATA
?key_mutex_slave_parallel_pend_jobs@@3IA DATA
?key_mutex_mts_temp_tables_lock@@3IA DATA
?key_mutex_slave_parallel_worker@@3IA DATA
?key_mutex_slave_parallel_worker_count@@3IA DATA
?key_structure_guard_mutex@@3IA DATA
?key_TABLE_SHARE_LOCK_ha_data@@3IA DATA
?key_LOCK_error_messages@@3IA DATA
?key_LOCK_thread_count@@3IA DATA
?key_LOCK_thd_remove@@3IA DATA
?key_LOCK_log_throttle_qni@@3IA DATA
?key_RELAYLOG_LOCK_commit@@3IA DATA
?key_RELAYLOG_LOCK_commit_queue@@3IA DATA
?key_RELAYLOG_LOCK_done@@3IA DATA
?key_RELAYLOG_LOCK_flush_queue@@3IA DATA
?key_RELAYLOG_LOCK_index@@3IA DATA
?key_RELAYLOG_LOCK_log@@3IA DATA
?key_RELAYLOG_LOCK_sync@@3IA DATA
?key_RELAYLOG_LOCK_sync_queue@@3IA DATA
?key_RELAYLOG_LOCK_xids@@3IA DATA
?key_LOCK_sql_rand@@3IA DATA
?key_gtid_ensure_index_mutex@@3IA DATA
?key_LOCK_thread_created@@3IA DATA
?key_rwlock_LOCK_grant@@3IA DATA
?key_rwlock_LOCK_logger@@3IA DATA
?key_rwlock_LOCK_sys_init_connect@@3IA DATA
?key_rwlock_LOCK_sys_init_slave@@3IA DATA
?F_OBSERVE@Binlog_transmit_param@@2IB DATA
?key_rwlock_LOCK_system_variables_hash@@3IA DATA
?key_rwlock_query_cache_query_lock@@3IA DATA
?LOCK_thread_created@@3Ust_mysql_mutex@@A DATA
?F_DONT_OBSERVE@Binlog_transmit_param@@2IB DATA
?key_rwlock_global_sid_lock@@3IA DATA
?LOCK_sql_rand@@3Ust_mysql_mutex@@A DATA
?signal_thread@@3KA DATA
?key_PAGE_cond@@3IA DATA
?key_COND_active@@3IA DATA
?key_COND_pool@@3IA DATA
?key_BINLOG_update_cond@@3IA DATA
?key_COND_cache_status_changed@@3IA DATA
?key_COND_manager@@3IA DATA
?key_COND_server_started@@3IA DATA
?key_delayed_insert_cond@@3IA DATA
?key_delayed_insert_cond_client@@3IA DATA
?master_retry_count@@3KA DATA
?key_item_func_sleep_cond@@3IA DATA
?key_master_info_data_cond@@3IA DATA
?key_master_info_start_cond@@3IA DATA
?key_master_info_stop_cond@@3IA DATA
?master_info_file@@3PADA DATA
?key_master_info_sleep_cond@@3IA DATA
?relay_log_info_file@@3PADA DATA
?key_relay_log_info_data_cond@@3IA DATA
?key_relay_log_info_log_space_cond@@3IA DATA
?opt_relaylog_index_name@@3PADA DATA
?key_relay_log_info_start_cond@@3IA DATA
?opt_binlog_index_name@@3PADA DATA
?key_relay_log_info_stop_cond@@3IA DATA
?opt_skip_slave_start@@3DA DATA
?opt_reckless_slave@@3DA DATA
?key_relay_log_info_sleep_cond@@3IA DATA
?key_cond_slave_parallel_pend_jobs@@3IA DATA
?opt_log_slave_updates@@3DA DATA
?key_cond_slave_parallel_worker@@3IA DATA
?opt_slave_skip_errors@@3PADA DATA
?key_TABLE_SHARE_cond@@3IA DATA
?key_user_level_lock_cond@@3IA DATA
?key_COND_thread_count@@3IA DATA
?key_COND_thread_cache@@3IA DATA
?key_COND_flush_thread_cache@@3IA DATA
?key_COND_connection_count@@3IA DATA
?key_BINLOG_COND_done@@3IA DATA
?key_RELAYLOG_COND_done@@3IA DATA
?key_RELAYLOG_update_cond@@3IA DATA
?key_BINLOG_prep_xids_cond@@3IA DATA
?key_RELAYLOG_prep_xids_cond@@3IA DATA
?key_gtid_ensure_index_cond@@3IA DATA
?key_thread_bootstrap@@3IA DATA
?key_thread_delayed_insert@@3IA DATA
?key_thread_handle_manager@@3IA DATA
?key_thread_main@@3IA DATA
?key_thread_one_connection@@3IA DATA
?key_thread_signal_hand@@3IA DATA
?key_file_map@@3IA DATA
?key_file_binlog@@3IA DATA
?key_file_binlog_index@@3IA DATA
?key_file_casetest@@3IA DATA
?key_file_dbopt@@3IA DATA
?key_file_des_key_file@@3IA DATA
?key_file_ERRMSG@@3IA DATA
?key_select_to_file@@3IA DATA
?key_file_fileparser@@3IA DATA
?key_file_frm@@3IA DATA
?key_file_global_ddl_log@@3IA DATA
?key_file_load@@3IA DATA
?key_file_loadfile@@3IA DATA
?key_file_log_event_data@@3IA DATA
?key_file_log_event_info@@3IA DATA
?key_file_master_info@@3IA DATA
?key_file_misc@@3IA DATA
?key_file_partition@@3IA DATA
?key_file_pid@@3IA DATA
?key_file_relay_log_info@@3IA DATA
?key_file_send_file@@3IA DATA
?key_file_tclog@@3IA DATA
?key_file_trg@@3IA DATA
?key_file_trn@@3IA DATA
?key_file_init@@3IA DATA
?key_file_query_log@@3IA DATA
?key_file_slow_log@@3IA DATA
?key_file_relaylog@@3IA DATA
?key_file_relaylog_index@@3IA DATA
?key_socket_tcpip@@3IA DATA
?key_socket_unix@@3IA DATA
?key_socket_client_connection@@3IA DATA
?stage_after_create@@3UPSI_stage_info_v1@@A DATA
?stage_allocating_local_table@@3UPSI_stage_info_v1@@A DATA
?stage_alter_inplace_prepare@@3UPSI_stage_info_v1@@A DATA
?stage_alter_inplace@@3UPSI_stage_info_v1@@A DATA
?stage_alter_inplace_commit@@3UPSI_stage_info_v1@@A DATA
?stage_changing_master@@3UPSI_stage_info_v1@@A DATA
?stage_checking_master_version@@3UPSI_stage_info_v1@@A DATA
?stage_checking_permissions@@3UPSI_stage_info_v1@@A DATA
?stage_checking_privileges_on_cached_query@@3UPSI_stage_info_v1@@A DATA
?stage_checking_query_cache_for_query@@3UPSI_stage_info_v1@@A DATA
?stage_cleaning_up@@3UPSI_stage_info_v1@@A DATA
?stage_closing_tables@@3UPSI_stage_info_v1@@A DATA
?stage_connecting_to_master@@3UPSI_stage_info_v1@@A DATA
?stage_converting_heap_to_myisam@@3UPSI_stage_info_v1@@A DATA
?stage_copying_to_group_table@@3UPSI_stage_info_v1@@A DATA
?stage_copying_to_tmp_table@@3UPSI_stage_info_v1@@A DATA
?smem_event_connect_request@@3PAXA DATA
?stage_copy_to_tmp_table@@3UPSI_stage_info_v1@@A DATA
?stage_creating_delayed_handler@@3UPSI_stage_info_v1@@A DATA
?opt_use_ssl@@3DA DATA
?stage_creating_sort_index@@3UPSI_stage_info_v1@@A DATA
?stage_creating_table@@3UPSI_stage_info_v1@@A DATA
?stage_creating_tmp_table@@3UPSI_stage_info_v1@@A DATA
?have_profiling@@3W4SHOW_COMP_OPTION@@A DATA
?stage_deleting_from_main_table@@3UPSI_stage_info_v1@@A DATA
?have_ssl@@3W4SHOW_COMP_OPTION@@A DATA
?COND_connection_count@@3Ust_mysql_cond@@A DATA
?stage_deleting_from_reference_tables@@3UPSI_stage_info_v1@@A DATA
?have_symlink@@3W4SHOW_COMP_OPTION@@A DATA
?stage_discard_or_import_tablespace@@3UPSI_stage_info_v1@@A DATA
?have_dlopen@@3W4SHOW_COMP_OPTION@@A DATA
?have_query_cache@@3W4SHOW_COMP_OPTION@@A DATA
?stage_end@@3UPSI_stage_info_v1@@A DATA
?stage_executing@@3UPSI_stage_info_v1@@A DATA
?have_geometry@@3W4SHOW_COMP_OPTION@@A DATA
?have_rtree_keys@@3W4SHOW_COMP_OPTION@@A DATA
?stage_execution_of_init_command@@3UPSI_stage_info_v1@@A DATA
?have_crypt@@3W4SHOW_COMP_OPTION@@A DATA
?stage_explaining@@3UPSI_stage_info_v1@@A DATA
?have_compress@@3W4SHOW_COMP_OPTION@@A DATA
?stage_finished_reading_one_binlog_switching_to_next_binlog@@3UPSI_stage_info_v1@@A DATA
?stage_flushing_relay_log_and_master_info_repository@@3UPSI_stage_info_v1@@A DATA
?stage_flushing_relay_log_info_file@@3UPSI_stage_info_v1@@A DATA
?stage_freeing_items@@3UPSI_stage_info_v1@@A DATA
?stage_fulltext_initialization@@3UPSI_stage_info_v1@@A DATA
?all_server_stages@@3PAPAUPSI_stage_info_v1@@A DATA
?stage_got_handler_lock@@3UPSI_stage_info_v1@@A DATA
?stage_got_old_table@@3UPSI_stage_info_v1@@A DATA
?stage_init@@3UPSI_stage_info_v1@@A DATA
?stage_insert@@3UPSI_stage_info_v1@@A DATA
?stage_invalidating_query_cache_entries_table@@3UPSI_stage_info_v1@@A DATA
?stage_invalidating_query_cache_entries_table_list@@3UPSI_stage_info_v1@@A DATA
?stage_killing_slave@@3UPSI_stage_info_v1@@A DATA
?stage_logging_slow_query@@3UPSI_stage_info_v1@@A DATA
?stage_making_temp_file_append_before_load_data@@3UPSI_stage_info_v1@@A DATA
?stage_making_temp_file_create_before_load_data@@3UPSI_stage_info_v1@@A DATA
?stage_manage_keys@@3UPSI_stage_info_v1@@A DATA
?stage_master_has_sent_all_binlog_to_slave@@3UPSI_stage_info_v1@@A DATA
?stage_opening_tables@@3UPSI_stage_info_v1@@A DATA
?stage_optimizing@@3UPSI_stage_info_v1@@A DATA
?stage_preparing@@3UPSI_stage_info_v1@@A DATA
?stage_purging_old_relay_logs@@3UPSI_stage_info_v1@@A DATA
?stage_query_end@@3UPSI_stage_info_v1@@A DATA
?stage_queueing_master_event_to_the_relay_log@@3UPSI_stage_info_v1@@A DATA
?stage_reading_event_from_the_relay_log@@3UPSI_stage_info_v1@@A DATA
?stage_registering_slave_on_master@@3UPSI_stage_info_v1@@A DATA
?stage_removing_duplicates@@3UPSI_stage_info_v1@@A DATA
?my_default_lc_messages@@3PAVMY_LOCALE@@A DATA
?stage_removing_tmp_table@@3UPSI_stage_info_v1@@A DATA
?stage_rename@@3UPSI_stage_info_v1@@A DATA
?my_default_lc_time_names@@3PAVMY_LOCALE@@A DATA
?stage_rename_result_table@@3UPSI_stage_info_v1@@A DATA
?stage_requesting_binlog_dump@@3UPSI_stage_info_v1@@A DATA
?stage_reschedule@@3UPSI_stage_info_v1@@A DATA
?stage_searching_rows_for_update@@3UPSI_stage_info_v1@@A DATA
?stage_sending_binlog_event_to_slave@@3UPSI_stage_info_v1@@A DATA
?stage_sending_cached_result_to_client@@3UPSI_stage_info_v1@@A DATA
?gtid_state@@3PAVGtid_state@@A DATA
?stage_sending_data@@3UPSI_stage_info_v1@@A DATA
?stage_setup@@3UPSI_stage_info_v1@@A DATA
?stage_slave_has_read_all_relay_log@@3UPSI_stage_info_v1@@A DATA
?stage_sorting_for_group@@3UPSI_stage_info_v1@@A DATA
?stage_sorting_for_order@@3UPSI_stage_info_v1@@A DATA
?report_port@@3IA DATA
?stage_sorting_result@@3UPSI_stage_info_v1@@A DATA
?stage_sql_thd_waiting_until_delay@@3UPSI_stage_info_v1@@A DATA
?stage_statistics@@3UPSI_stage_info_v1@@A DATA
?stage_storing_result_in_query_cache@@3UPSI_stage_info_v1@@A DATA
?report_user@@3PADA DATA
?stage_storing_row_into_queue@@3UPSI_stage_info_v1@@A DATA
?report_host@@3PADA DATA
?stage_system_lock@@3UPSI_stage_info_v1@@A DATA
?report_password@@3PADA DATA
?stage_update@@3UPSI_stage_info_v1@@A DATA
?stage_updating@@3UPSI_stage_info_v1@@A DATA
?stage_updating_main_table@@3UPSI_stage_info_v1@@A DATA
?stage_updating_reference_tables@@3UPSI_stage_info_v1@@A DATA
?stage_upgrading_lock@@3UPSI_stage_info_v1@@A DATA
?stage_user_lock@@3UPSI_stage_info_v1@@A DATA
?stage_user_sleep@@3UPSI_stage_info_v1@@A DATA
?stage_verifying_table@@3UPSI_stage_info_v1@@A DATA
?comparator_matrix@Arg_comparator@@2PAY01P81@AEHXZA DATA
?stage_waiting_for_delay_list@@3UPSI_stage_info_v1@@A DATA
?stage_waiting_for_gtid_to_be_written_to_binary_log@@3UPSI_stage_info_v1@@A DATA
?stage_waiting_for_handler_insert@@3UPSI_stage_info_v1@@A DATA
?stage_waiting_for_handler_lock@@3UPSI_stage_info_v1@@A DATA
?stage_waiting_for_handler_open@@3UPSI_stage_info_v1@@A DATA
?stage_waiting_for_insert@@3UPSI_stage_info_v1@@A DATA
?stage_waiting_for_master_to_send_event@@3UPSI_stage_info_v1@@A DATA
?stage_waiting_for_master_update@@3UPSI_stage_info_v1@@A DATA
?stage_waiting_for_relay_log_space@@3UPSI_stage_info_v1@@A DATA
?stage_waiting_for_slave_mutex_on_exit@@3UPSI_stage_info_v1@@A DATA
?stage_waiting_for_slave_thread_to_start@@3UPSI_stage_info_v1@@A DATA
?stage_waiting_for_query_cache_lock@@3UPSI_stage_info_v1@@A DATA
?stage_waiting_for_table_flush@@3UPSI_stage_info_v1@@A DATA
?stage_waiting_for_the_next_event_in_relay_log@@3UPSI_stage_info_v1@@A DATA
?stage_waiting_for_the_slave_thread_to_advance_position@@3UPSI_stage_info_v1@@A DATA
?stage_waiting_to_finalize_termination@@3UPSI_stage_info_v1@@A DATA
?stage_waiting_to_get_readlock@@3UPSI_stage_info_v1@@A DATA
?stage_slave_waiting_worker_to_release_partition@@3UPSI_stage_info_v1@@A DATA
?stage_slave_waiting_worker_to_free_events@@3UPSI_stage_info_v1@@A DATA
?stage_slave_waiting_worker_queue@@3UPSI_stage_info_v1@@A DATA
?stage_slave_waiting_event_from_coordinator@@3UPSI_stage_info_v1@@A DATA
?stage_slave_waiting_workers_to_exit@@3UPSI_stage_info_v1@@A DATA
?sql_statement_info@@3PAUPSI_statement_info_v1@@A DATA
?global_date_format@@3Ust_date_time_format@@A DATA
?show_comp_option_name@@3PAPBDA DATA
?global_datetime_format@@3Ust_date_time_format@@A DATA
?com_statement_info@@3PAUPSI_statement_info_v1@@A DATA
?global_time_format@@3Ust_date_time_format@@A DATA
?stmt_info_rpl@@3UPSI_statement_info_v1@@A DATA
?ssl_acceptor_fd@@3PAUst_VioSSLFd@@A DATA
?opt_large_pages@@3DA DATA
?opt_large_page_size@@3IA DATA
?lc_messages_dir@@3PADA DATA
?lc_messages_dir_ptr@@3PADA DATA
?log_error_file_ptr@@3PADA DATA
?reg_ext@@3PADA DATA
?reg_ext_length@@3IA DATA
?lower_case_table_names@@3IA DATA
?mysqld_embedded@@3_NA DATA
?specialflag@@3KA DATA
?global_sid_lock@@3PAVCheckable_rwlock@@A DATA
?mysql_data_home_len@@3IA DATA
?mysql_real_data_home_len@@3IA DATA
?mysql_real_data_home_ptr@@3PBDB DATA
?thread_handling@@3KA DATA
?mysql_data_home@@3PADA DATA
server_version DATA
?mysql_real_data_home@@3PADA DATA
?mysql_unpacked_real_data_home@@3PADA DATA
?global_system_variables@@3Usystem_variables@@A DATA
?LOCK_status@@3Ust_mysql_mutex@@A DATA
?LOCK_error_log@@3Ust_mysql_mutex@@A DATA
?LOCK_delayed_insert@@3Ust_mysql_mutex@@A DATA
?LOCK_uuid_generator@@3Ust_mysql_mutex@@A DATA
?LOCK_delayed_status@@3Ust_mysql_mutex@@A DATA
?LOCK_delayed_create@@3Ust_mysql_mutex@@A DATA
?LOCK_crypt@@3Ust_mysql_mutex@@A DATA
?LOCK_slave_list@@3Ust_mysql_mutex@@A DATA
?LOCK_active_mi@@3Ust_mysql_mutex@@A DATA
?LOCK_global_system_variables@@3Ust_mysql_mutex@@A DATA
?LOCK_user_conn@@3Ust_mysql_mutex@@A DATA
?LOCK_log_throttle_qni@@3Ust_mysql_mutex@@A DATA
?LOCK_prepared_stmt_count@@3Ust_mysql_mutex@@A DATA
?LOCK_error_messages@@3Ust_mysql_mutex@@A DATA
?LOCK_connection_count@@3Ust_mysql_mutex@@A DATA
?LOCK_sql_slave_skip_counter@@3Ust_mysql_mutex@@A DATA
?LOCK_slave_net_timeout@@3Ust_mysql_mutex@@A DATA
?des_key_file@@3PADA DATA
?LOCK_des_key_file@@3Ust_mysql_mutex@@A DATA
?LOCK_server_started@@3Ust_mysql_mutex@@A DATA
?COND_server_started@@3Ust_mysql_cond@@A DATA
?LOCK_grant@@3Ust_mysql_rwlock@@A DATA
?LOCK_sys_init_connect@@3Ust_mysql_rwlock@@A DATA
?LOCK_sys_init_slave@@3Ust_mysql_rwlock@@A DATA
?LOCK_system_variables_hash@@3Ust_mysql_rwlock@@A DATA
?PARSE_EARLY@sys_var@@2HB DATA
?thread_running_lock@@3DA DATA
?PARSE_NORMAL@sys_var@@2HB DATA
?slave_open_temp_tables_lock@@3DA DATA
?opt_binlog_max_flush_queue_time_lock@@3DA DATA
?opt_ssl_ca@@3PADA DATA
?opt_ssl_capath@@3PADA DATA
?opt_ssl_cert@@3PADA DATA
?opt_ssl_cipher@@3PADA DATA
?opt_ssl_key@@3PADA DATA
?opt_ssl_crl@@3PADA DATA
?opt_ssl_crlpath@@3PADA DATA
?THR_THD@@3KA DATA
?global_sid_map@@3PAVSid_map@@A DATA
?opt_show_slave_auth_info@@3DA DATA
?SET_STRING_PREFIX_LENGTH@Gtid_log_event@@0IB DATA
?MAX_SET_STRING_LENGTH@Gtid_log_event@@0IB DATA
?ENCODED_FLAG_LENGTH@Gtid_log_event@@0HB DATA
?ENCODED_SID_LENGTH@Gtid_log_event@@0HB DATA
?ENCODED_GNO_LENGTH@Gtid_log_event@@0HB DATA
?POST_HEADER_LENGTH@Gtid_log_event@@2HB DATA
?global_query_id@@3_JA DATA
?key_rwlock_Trans_delegate_lock@@3IA DATA
?global_query_id_lock@@3DA DATA
?num_thread_running@@3HA DATA
?MY_BIND_ALL_ADDRESSES@@3PBDB DATA
?key_rwlock_Binlog_storage_delegate_lock@@3IA DATA
?rpl_filter@@3PAVRpl_filter@@A DATA
?binlog_filter@@3PAVRpl_filter@@A DATA
?key_rwlock_Binlog_transmit_delegate_lock@@3IA DATA
?key_rwlock_Binlog_relay_IO_delegate_lock@@3IA DATA
?strchr@@YAPADPADH@Z
?strrchr@@YAPADPADH@Z
?strstr@@YAPADPADPBD@Z
??2@YAPAXIPAX@Z
??3@YAXPAX0@Z
?_Adopt@_Iterator_base0@std@@QAEXPBX@Z
??0_Container_proxy@std@@QAE@XZ
??0_Iterator_base12@std@@QAE@XZ
??0_Iterator_base12@std@@QAE@ABU01@@Z
??4_Iterator_base12@std@@QAEAAU01@ABU01@@Z
??1_Iterator_base12@std@@QAE@XZ
?_Adopt@_Iterator_base12@std@@QAEXPBU_Container_base12@2@@Z
?_Clrcont@_Iterator_base12@std@@QAEXXZ
?_Orphan_me@_Iterator_base12@std@@QAEXXZ
??0_Ignore@std@@QAE@XZ
??2Sql_alloc@@SAPAXIPAUst_mem_root@@@Z
??3Sql_alloc@@SAXPAXI@Z
??3Sql_alloc@@SAXPAXPAUst_mem_root@@@Z
??0Sql_alloc@@QAE@XZ
??1Sql_alloc@@QAE@XZ
??0list_node@@QAE@PAXPAU0@@Z
?empty@base_list@@QAEXXZ
??0base_list@@QAE@XZ
?push_back@base_list@@QAE_NPAXPAUst_mem_root@@@Z
??1base_list@@QAE@XZ
??0base_list_iterator@@QAE@AAVbase_list@@@Z
?init@base_list_iterator@@QAEXAAVbase_list@@@Z
?next_fast@base_list_iterator@@QAEPAXXZ
??0?$ilink@Vi_string@@@@QAE@XZ
?unlink@?$ilink@Vi_string@@@@QAEXXZ
??1?$ilink@Vi_string@@@@UAE@XZ
??0i_string@@QAE@PBD@Z
??1i_string@@UAE@XZ
??0?$Bitmap@$0EA@@@QAE@I@Z
?length@?$Bitmap@$0EA@@@QBEIXZ
?set_prefix@?$Bitmap@$0EA@@@QAEXI@Z
?set_all@?$Bitmap@$0EA@@@QAEXXZ
?ptr@Simple_cstring@@QBEPBDXZ
?is_set@Simple_cstring@@QBE_NXZ
??0String@@QAE@XZ
??1String@@QAE@XZ
?charset@String@@QBEPBUcharset_info_st@@XZ
?length@String@@QBEIXZ
?ptr@String@@QBEPBDXZ
?c_ptr@String@@QAEPADXZ
?c_ptr_safe@String@@QAEPADXZ
?free@String@@QAEXXZ
?init@my_decimal@@QAEXXZ
??0my_decimal@@QAE@XZ
??1my_decimal@@QAE@XZ
?sanity_check@my_decimal@@QAEXXZ
?my_decimal_set_zero@@YAHPAVmy_decimal@@@Z
?kill_mysql@@YAXXZ
?close_connection@@YAXPAVTHD@@I@Z
?handle_connection_in_main_thread@@YAXPAVTHD@@@Z
?create_thread_to_handle_connection@@YAXPAVTHD@@@Z
?destroy_thd@@YAXPAVTHD@@@Z
?one_thread_per_connection_end@@YA_NPAVTHD@@_N@Z
?kill_blocked_pthreads@@YAXXZ
?refresh_status@@YAXPAVTHD@@@Z
?is_secure_file_path@@YA_NPAD@Z
?is_mysql_datadir_path@@YA_NPBD@Z
?dec_connection_count@@YAXXZ
?set_remaining_args@@YAXHPAPAD@Z
?init_common_variables@@YAHXZ
?my_init_signals@@YAXXZ
?gtid_server_init@@YA_NXZ
?gtid_server_cleanup@@YAXXZ
check_enough_stack_size
?handle_early_options@@YAHXZ
?adjust_related_options@@YAXPAK@Z
?init_sql_statement_names@@YAXXZ
?init_server_psi_keys@@YAXXZ
?init_sql_statement_info@@YAXXZ
?init_com_statement_info@@YAXXZ
?unireg_end@@YAXXZ
unireg_abort
?sql_rnd_with_mutex@@YAKXZ
?_current_thd@@YAPAVTHD@@XZ
??0Unknown_key_hook@@QAE@XZ
??1Unknown_key_hook@@UAE@XZ
??0File_parser_dummy_hook@@QAE@XZ
??1File_parser_dummy_hook@@UAE@XZ
?current_row_for_warning@Warning_info@@ABEKXZ
?current_row_for_warning@Diagnostics_area@@QBEKXZ
?get_warning_info@Diagnostics_area@@ABEPBVWarning_info@@XZ
?front@?$I_P_List@VWarning_info@@U?$I_P_List_adapter@VWarning_info@@$0FA@$0FE@@@VI_P_List_counter@@V?$I_P_List_fast_push_back@VWarning_info@@@@@@QBEPBVWarning_info@@XZ
?is_temporal_type@@YA_NW4enum_field_types@@@Z
??0Checkable_rwlock@@QAE@XZ
??1Checkable_rwlock@@QAE@XZ
?rdlock@Checkable_rwlock@@QAEXXZ
?wrlock@Checkable_rwlock@@QAEXXZ
?unlock@Checkable_rwlock@@QAEXXZ
?assert_some_lock@Checkable_rwlock@@QBEXXZ
?assert_some_wrlock@Checkable_rwlock@@QBEXXZ
?assert_no_wrlock@Checkable_rwlock@@QBEXXZ
?assert_no_lock@Checkable_rwlock@@QBEXXZ
?get_state@Checkable_rwlock@@ABEHXZ
?get_max_sidno@Gtid_set@@QBEHXZ
?is_empty@Gtid_set@@QBE_NXZ
??0?$Interval_iterator_base@PBVGtid_set@@PBUInterval@1@@Gtid_set@@QAE@PBV1@@Z
?init@?$Interval_iterator_base@PBVGtid_set@@PBUInterval@1@@Gtid_set@@QAEXPBV2@H@Z
?get@?$Interval_iterator_base@PBVGtid_set@@PBUInterval@1@@Gtid_set@@QBEPBUInterval@2@XZ
??0Const_interval_iterator@Gtid_set@@QAE@PBV1@@Z
??0Gtid_iterator@Gtid_set@@QAE@PBV1@@Z
?get@Gtid_iterator@Gtid_set@@QBE?AUGtid@@XZ
?next_sidno@Gtid_iterator@Gtid_set@@AAEXXZ
??0Gtid_state@@QAE@PAVCheckable_rwlock@@PAVSid_map@@@Z
?get_logged_gtids@Gtid_state@@QBEPBVGtid_set@@XZ
?get_lost_gtids@Gtid_state@@QBEPBVGtid_set@@XZ
??1Gtid_state@@QAE@XZ
??0CSET_STRING@@QAE@XZ
??0CSET_STRING@@QAE@PADIPBUcharset_info_st@@@Z
?str@CSET_STRING@@QBEPADXZ
?length@CSET_STRING@@QBEIXZ
?charset@CSET_STRING@@QBEPBUcharset_info_st@@XZ
?set@DTCollation@@QAEXPBUcharset_info_st@@W4Derivation@@I@Z
?is_expensive_processor@Item@@EAE_NPAE@Z
??2Item@@SAPAXIPAUst_mem_root@@@Z
??3Item@@SAXPAXI@Z
??3Item@@SAXPAXPAUst_mem_root@@@Z
??1Item@@UAE@XZ
?fix_after_pullout@Item@@UAEXPAVst_select_lex@@0@Z
?save_org_in_field@Item@@UAEXPAVField@@@Z
?save_safe_in_field@Item@@UAE?AW4type_conversion_status@@PAVField@@@Z
?result_type@Item@@UBE?AW4Item_result@@XZ
?numeric_context_result_type@Item@@UBE?AW4Item_result@@XZ
?cast_to_int_type@Item@@UBE?AW4Item_result@@XZ
?get_monotonicity_info@Item@@UBE?AW4monotonicity_info@@XZ
?val_int_endpoint@Item@@UAE_J_NPA_N@Z
?val_nodeset@Item@@UAEPAVString@@PAV2@@Z
?get_tmp_table_field@Item@@UAEPAVField@@XZ
?tmp_table_field@Item@@UAEPAVField@@PAUTABLE@@@Z
?full_name@Item@@UBEPBDXZ
?val_result@Item@@UAENXZ
?val_int_result@Item@@UAE_JXZ
?val_time_temporal_result@Item@@UAE_JXZ
?val_date_temporal_result@Item@@UAE_JXZ
?str_result@Item@@UAEPAVString@@PAV2@@Z
?val_decimal_result@Item@@UAEPAVmy_decimal@@PAV2@@Z
?val_bool_result@Item@@UAE_NXZ
?is_null_result@Item@@UAE_NXZ
?used_tables@Item@@UBE_KXZ
?not_null_tables@Item@@UBE_KXZ
?basic_const_item@Item@@UBE_NXZ
?clone_item@Item@@UAEPAV1@XZ
?eq_cmp_result@Item@@UBE?AW4cond_result@1@XZ
?const_item@Item@@UBE_NXZ
?const_during_execution@Item@@UBE_NXZ
?print@Item@@UAEXPAVString@@W4enum_query_type@@@Z
?update_used_tables@Item@@UAEXXZ
?split_sum_func@Item@@UAEXPAVTHD@@V?$Bounds_checked_array@PAVItem@@@@AAV?$List@VItem@@@@@Z
?get_date_result@Item@@UAE_NPAUst_mysql_time@@I@Z
?is_null@Item@@UAE_NXZ
?update_null_value@Item@@UAEXXZ
?top_level_item@Item@@UAEXXZ
?set_result_field@Item@@UAEXPAVField@@@Z
?is_result_field@Item@@UAE_NXZ
?is_bool_func@Item@@UAE_NXZ
?save_in_result_field@Item@@UAEX_N@Z
?no_rows_in_result@Item@@UAEXXZ
?copy_or_same@Item@@UAEPAV1@PAVTHD@@@Z
?copy_andor_structure@Item@@UAEPAV1@PAVTHD@@_N@Z
?real_item@Item@@UAEPAV1@XZ
?substitutional_item@Item@@UAEPAV1@XZ
?set_runtime_created@Item@@UAEXXZ
?get_tmp_table_item@Item@@UAEPAV1@PAVTHD@@@Z
?compare_collation@Item@@UAEPBUcharset_info_st@@XZ
?charset_for_protocol@Item@@UBEPBUcharset_info_st@@XZ
?walk@Item@@UAE_NP81@AE_NPAE@Z_N0@Z
?compile@Item@@UAEPAV1@P81@AE_NPAPAE@Z0P81@AEPAV1@PAE@Z2@Z
?traverse_cond@Item@@UAEXP6AXPBV1@PAX@Z1W4traverse_order@1@@Z
?intro_version@Item@@UAE_NPAE@Z
?remove_dependence_processor@Item@@UAE_NPAE@Z
?remove_fixed@Item@@UAE_NPAE@Z
?collect_item_field_processor@Item@@UAE_NPAE@Z
?add_field_to_set_processor@Item@@UAE_NPAE@Z
?remove_column_from_bitmap@Item@@UAE_NPAE@Z
?find_item_in_field_list_processor@Item@@UAE_NPAE@Z
?change_context_processor@Item@@UAE_NPAE@Z
?reset_query_id_processor@Item@@UAE_NPAE@Z
?find_item_processor@Item@@UAE_NPAE@Z
?register_field_in_read_map@Item@@UAE_NPAE@Z
?used_tables_for_level@Item@@UAE_NPAE@Z
?inform_item_in_cond_of_tab@Item@@UAE_NPAE@Z
?clean_up_after_removal@Item@@UAE_NPAE@Z
?item_field_by_name_analyzer@Item@@UAE_NPAPAE@Z
?item_field_by_name_transformer@Item@@UAEPAV1@PAE@Z
?equality_substitution_analyzer@Item@@UAE_NPAPAE@Z
?equality_substitution_transformer@Item@@UAEPAV1@PAE@Z
?check_partition_func_processor@Item@@UAE_NPAE@Z
?subst_argument_checker@Item@@UAE_NPAPAE@Z
?explain_subquery_checker@Item@@UAE_NPAPAE@Z
?explain_subquery_propagator@Item@@UAEPAV1@PAE@Z
?equal_fields_propagator@Item@@UAEPAV1@PAE@Z
?set_no_const_sub@Item@@UAE_NPAE@Z
?replace_equal_field@Item@@UAEPAV1@PAE@Z
?check_valid_arguments_processor@Item@@UAE_NPAE@Z
?find_function_processor@Item@@UAE_NPAE@Z
?this_item@Item@@UAEPAV1@XZ
?this_item@Item@@UBEPBV1@XZ
?this_item_addr@Item@@UAEPAPAV1@PAVTHD@@PAPAV1@@Z
?cols@Item@@UAEIXZ
?element_index@Item@@UAEPAV1@I@Z
?addr@Item@@UAEPAPAV1@I@Z
?null_inside@Item@@UAE_NXZ
?bring_value@Item@@UAEXXZ
?field_for_view_update@Item@@UAEPAVItem_field@@XZ
?neg_transformer@Item@@UAEPAV1@PAVTHD@@@Z
?update_value_transformer@Item@@UAEPAV1@PAE@Z
?is_splocal@Item@@UAE_NXZ
?get_settable_routine_parameter@Item@@UAEPAVSettable_routine_parameter@@XZ
?is_temporal@Item@@QBE_NXZ
?get_geometry_type@Item@@UBE?AW4geometry_type@Field@@XZ
?is_expensive@Item@@UAE_NXZ
?fix_char_length@Item@@QAEXI@Z
?is_outer_field@Item@@UBE_NXZ
?has_subquery@Item@@UBE_NXZ
?has_stored_program@Item@@UBE_NXZ
?created_by_in2exists@Item@@UBE_NXZ
??_9Item@@$BA@AE
??0Item_result_field@@QAE@XZ
??1Item_result_field@@UAE@XZ
?get_tmp_table_field@Item_result_field@@UAEPAVField@@XZ
?tmp_table_field@Item_result_field@@UAEPAVField@@PAUTABLE@@@Z
?used_tables@Item_result_field@@UBE_KXZ
?set_result_field@Item_result_field@@UAEXPAVField@@@Z
?is_result_field@Item_result_field@@UAE_NXZ
?save_in_result_field@Item_result_field@@UAEX_N@Z
?type@Item_func@@UBE?AW4Type@Item@@XZ
?functype@Item_func@@UBE?AW4Functype@1@XZ
??0Item_func@@QAE@XZ
?get_initial_pseudo_tables@Item_func@@UBE_KXZ
?select_optimize@Item_func@@UBE?AW4optimize_type@1@XZ
?have_rev_func@Item_func@@UBE_NXZ
?key_item@Item_func@@UBEPAVItem@@XZ
?const_item@Item_func@@UBE_NXZ
?is_null@Item_func@@UAE_NXZ
?has_timestamp_args@Item_func@@QAE_NXZ
?check_valid_arguments_processor@Item_func@@UAE_NPAE@Z
?find_function_processor@Item_func@@UAE_NPAE@Z
??1Item_func@@UAE@XZ
??0Comp_creator@@QAE@XZ
??1Comp_creator@@UAE@XZ
??0Eq_creator@@QAE@XZ
??1Eq_creator@@UAE@XZ
?symbol@Eq_creator@@UBEPBD_N@Z
?eqne_op@Eq_creator@@UBE_NXZ
?l_op@Eq_creator@@UBE_NXZ
??0Ne_creator@@QAE@XZ
??1Ne_creator@@UAE@XZ
?symbol@Ne_creator@@UBEPBD_N@Z
?eqne_op@Ne_creator@@UBE_NXZ
?l_op@Ne_creator@@UBE_NXZ
??0Gt_creator@@QAE@XZ
??1Gt_creator@@UAE@XZ
?symbol@Gt_creator@@UBEPBD_N@Z
?eqne_op@Gt_creator@@UBE_NXZ
?l_op@Gt_creator@@UBE_NXZ
??0Lt_creator@@QAE@XZ
??1Lt_creator@@UAE@XZ
?symbol@Lt_creator@@UBEPBD_N@Z
?eqne_op@Lt_creator@@UBE_NXZ
?l_op@Lt_creator@@UBE_NXZ
??0Ge_creator@@QAE@XZ
??1Ge_creator@@UAE@XZ
?symbol@Ge_creator@@UBEPBD_N@Z
?eqne_op@Ge_creator@@UBE_NXZ
?l_op@Ge_creator@@UBE_NXZ
??0Le_creator@@QAE@XZ
??1Le_creator@@UAE@XZ
?symbol@Le_creator@@UBEPBD_N@Z
?eqne_op@Le_creator@@UBE_NXZ
?l_op@Le_creator@@UBE_NXZ
??0Item_str_func@@QAE@XZ
?get_date@Item_str_func@@UAE_NPAUst_mysql_time@@I@Z
?get_time@Item_str_func@@UAE_NPAUst_mysql_time@@@Z
?result_type@Item_str_func@@UBE?AW4Item_result@@XZ
??1Item_str_func@@UAE@XZ
??$min@K@std@@YAABKABK0@Z
??0Item_func_uuid@@QAE@XZ
?fix_length_and_dec@Item_func_uuid@@UAEXXZ
?func_name@Item_func_uuid@@UBEPBDXZ
??1Item_func_uuid@@UAE@XZ
??0Log_throttle@@IAE@KPBD@Z
??0Error_log_throttle@@QAE@KP6AXPBDZZ0@Z
my_message_sql
?release_resources_done@THD@@QBE_NXZ
?query_start@THD@@QAE_JXZ
?vio_ok@THD@@QBE_NXZ
?get_stmt_da@THD@@QAEPAVDiagnostics_area@@XZ
?charset@THD@@QAEPBUcharset_info_st@@XZ
?get_command@THD@@QBE?AW4enum_server_command@@XZ
?is_supported_parser_charset@@YA_NPBUcharset_info_st@@@Z
?parse_date_time_format@@YA_NW4enum_mysql_timestamp_type@@PAUst_date_time_format@@@Z
??0?$allocator@Umy_option@@@std@@QAE@XZ
??0?$allocator@Umy_option@@@std@@QAE@ABV01@@Z
?deallocate@?$allocator@Umy_option@@@std@@QAEXPAUmy_option@@I@Z
?allocate@?$allocator@Umy_option@@@std@@QAEPAUmy_option@@I@Z
?construct@?$allocator@Umy_option@@@std@@QAEXPAUmy_option@@ABU3@@Z
?max_size@?$allocator@Umy_option@@@std@@QBEIXZ
?max_size@?$allocator_traits@V?$allocator@Umy_option@@@std@@@std@@SAIABV?$allocator@Umy_option@@@2@@Z
??0?$_Wrap_alloc@V?$allocator@Umy_option@@@std@@@std@@QAE@XZ
?allocate@?$_Wrap_alloc@V?$allocator@Umy_option@@@std@@@std@@QAEPAUmy_option@@I@Z
?deallocate@?$_Wrap_alloc@V?$allocator@Umy_option@@@std@@@std@@QAEXPAUmy_option@@I@Z
?max_size@?$_Wrap_alloc@V?$allocator@Umy_option@@@std@@@std@@QBEIXZ
??0?$_Vector_val@U?$_Simple_types@Umy_option@@@std@@@std@@QAE@XZ
??1?$_Vector_val@U?$_Simple_types@Umy_option@@@std@@@std@@QAE@XZ
??0?$_Vector_alloc@$0A@U?$_Vec_base_types@Umy_option@@V?$allocator@Umy_option@@@std@@@std@@@std@@QAE@ABV?$allocator@Umy_option@@@1@@Z
??1?$_Vector_alloc@$0A@U?$_Vec_base_types@Umy_option@@V?$allocator@Umy_option@@@std@@@std@@@std@@QAE@XZ
?_Change_alloc@?$_Vector_alloc@$0A@U?$_Vec_base_types@Umy_option@@V?$allocator@Umy_option@@@std@@@std@@@std@@QAEXABU?$_Wrap_alloc@V?$allocator@Umy_option@@@std@@@2@@Z
?_Swap_alloc@?$_Vector_alloc@$0A@U?$_Vec_base_types@Umy_option@@V?$allocator@Umy_option@@@std@@@std@@@std@@QAEXAAV12@@Z
?_Alloc_proxy@?$_Vector_alloc@$0A@U?$_Vec_base_types@Umy_option@@V?$allocator@Umy_option@@@std@@@std@@@std@@QAEXXZ
?_Free_proxy@?$_Vector_alloc@$0A@U?$_Vec_base_types@Umy_option@@V?$allocator@Umy_option@@@std@@@std@@@std@@QAEXXZ
??0?$vector@Umy_option@@V?$allocator@Umy_option@@@std@@@std@@QAE@XZ
??0?$vector@Umy_option@@V?$allocator@Umy_option@@@std@@@std@@QAE@$$QAV01@@Z
??4?$vector@Umy_option@@V?$allocator@Umy_option@@@std@@@std@@QAEAAV01@$$QAV01@@Z
?_Assign_rv@?$vector@Umy_option@@V?$allocator@Umy_option@@@std@@@std@@QAEX$$QAV12@@Z
??1?$vector@Umy_option@@V?$allocator@Umy_option@@@std@@@std@@QAE@XZ
?reserve@?$vector@Umy_option@@V?$allocator@Umy_option@@@std@@@std@@QAEXI@Z
?capacity@?$vector@Umy_option@@V?$allocator@Umy_option@@@std@@@std@@QBEIXZ
?_Unused_capacity@?$vector@Umy_option@@V?$allocator@Umy_option@@@std@@@std@@QBEIXZ
?begin@?$vector@Umy_option@@V?$allocator@Umy_option@@@std@@@std@@QAE?AV?$_Vector_iterator@V?$_Vector_val@U?$_Simple_types@Umy_option@@@std@@@std@@@2@XZ
?end@?$vector@Umy_option@@V?$allocator@Umy_option@@@std@@@std@@QAE?AV?$_Vector_iterator@V?$_Vector_val@U?$_Simple_types@Umy_option@@@std@@@std@@@2@XZ
?_Make_iter@?$vector@Umy_option@@V?$allocator@Umy_option@@@std@@@std@@QBE?AV?$_Vector_iterator@V?$_Vector_val@U?$_Simple_types@Umy_option@@@std@@@std@@@2@V?$_Vector_const_iterator@V?$_Vector_val@U?$_Simple_types@Umy_option@@@std@@@std@@@2@@Z
?size@?$vector@Umy_option@@V?$allocator@Umy_option@@@std@@@std@@QBEIXZ
?max_size@?$vector@Umy_option@@V?$allocator@Umy_option@@@std@@@std@@QBEIXZ
?empty@?$vector@Umy_option@@V?$allocator@Umy_option@@@std@@@std@@QBE_NXZ
??A?$vector@Umy_option@@V?$allocator@Umy_option@@@std@@@std@@QAEAAUmy_option@@I@Z
?push_back@?$vector@Umy_option@@V?$allocator@Umy_option@@@std@@@std@@QAEXABUmy_option@@@Z
?pop_back@?$vector@Umy_option@@V?$allocator@Umy_option@@@std@@@std@@QAEXXZ
?erase@?$vector@Umy_option@@V?$allocator@Umy_option@@@std@@@std@@QAE?AV?$_Vector_iterator@V?$_Vector_val@U?$_Simple_types@Umy_option@@@std@@@std@@@2@V?$_Vector_const_iterator@V?$_Vector_val@U?$_Simple_types@Umy_option@@@std@@@std@@@2@0@Z
?clear@?$vector@Umy_option@@V?$allocator@Umy_option@@@std@@@std@@QAEXXZ
?swap@?$vector@Umy_option@@V?$allocator@Umy_option@@@std@@@std@@QAEXAAV12@@Z
?_Destroy@?$vector@Umy_option@@V?$allocator@Umy_option@@@std@@@std@@IAEXPAUmy_option@@0@Z
?_Inside@?$vector@Umy_option@@V?$allocator@Umy_option@@@std@@@std@@IBE_NPBUmy_option@@@Z
?_Reallocate@?$vector@Umy_option@@V?$allocator@Umy_option@@@std@@@std@@IAEXI@Z
?_Reserve@?$vector@Umy_option@@V?$allocator@Umy_option@@@std@@@std@@IAEXI@Z
?_Tidy@?$vector@Umy_option@@V?$allocator@Umy_option@@@std@@@std@@IAEXXZ
?_Xlen@?$vector@Umy_option@@V?$allocator@Umy_option@@@std@@@std@@IBEXXZ
?_Orphan_range@?$vector@Umy_option@@V?$allocator@Umy_option@@@std@@@std@@IBEXPAUmy_option@@0@Z
?push_back@?$base_ilist@Vi_string@@@@QAEXPAVi_string@@@Z
?get_db@Log_event@@UAEPBDXZ
??3Log_event@@SAXPAXI@Z
?write@Log_event@@UAE_NPAUst_io_cache@@@Z
?write_data_header@Log_event@@UAE_NPAUst_io_cache@@@Z
?write_data_body@Log_event@@UAE_NPAUst_io_cache@@@Z
??1Log_event@@UAE@XZ
?free_temp_buf@Log_event@@QAEXXZ
?get_data_size@Log_event@@UAEHXZ
?get_mts_dbs@Log_event@@EAEEPAUst_mts_db_names@@@Z
?set_mts_isolate_group@Log_event@@EAEXXZ
?mts_number_dbs@Log_event@@UAEEXZ
?starts_group@Log_event@@UAE_NXZ
?ends_group@Log_event@@UAE_NXZ
?do_apply_event@Log_event@@UAEHPBVRelay_log_info@@@Z
??1Previous_gtids_log_event@@UAE@XZ
?get_type_code@Previous_gtids_log_event@@UAE?AW4Log_event_type@@XZ
?is_valid@Previous_gtids_log_event@@UBE_NXZ
?get_data_size@Previous_gtids_log_event@@UAEHXZ
?write@Previous_gtids_log_event@@UAE_NPAUst_io_cache@@@Z
?do_shall_skip@Previous_gtids_log_event@@UAE?AW4enum_skip_reason@Log_event@@PAVRelay_log_info@@@Z
?do_apply_event@Previous_gtids_log_event@@UAEHPBVRelay_log_info@@@Z
?set_psi_keys@MYSQL_BIN_LOG@@QAEXIIIIIIIIIIIIII@Z
?set_previous_gtid_set@MYSQL_BIN_LOG@@QAEXPAVGtid_set@@@Z
?add_bytes_written@MYSQL_BIN_LOG@@QAEX_K@Z
?get_log_file@MYSQL_BIN_LOG@@QAEPAUst_io_cache@@XZ
?_Kfn@?$_Tset_traits@PAVTHD@@U?$less@PAVTHD@@@std@@V?$allocator@PAVTHD@@@3@$0A@@std@@SAABQAVTHD@@ABQAV3@@Z
??R?$less@PAVTHD@@@std@@QBE_NABQAVTHD@@0@Z
??0?$allocator@PAVTHD@@@std@@QAE@XZ
??0?$allocator@U?$_Tree_node@PAVTHD@@PAX@std@@@std@@QAE@XZ
??0?$allocator@U?$_Tree_node@PAVTHD@@PAX@std@@@std@@QAE@ABV01@@Z
?deallocate@?$allocator@U?$_Tree_node@PAVTHD@@PAX@std@@@std@@QAEXPAU?$_Tree_node@PAVTHD@@PAX@2@I@Z
?allocate@?$allocator@U?$_Tree_node@PAVTHD@@PAX@std@@@std@@QAEPAU?$_Tree_node@PAVTHD@@PAX@2@I@Z
?max_size@?$allocator@U?$_Tree_node@PAVTHD@@PAX@std@@@std@@QBEIXZ
?max_size@?$allocator_traits@V?$allocator@U?$_Tree_node@PAVTHD@@PAX@std@@@std@@@std@@SAIABV?$allocator@U?$_Tree_node@PAVTHD@@PAX@std@@@2@@Z
??0?$_Wrap_alloc@V?$allocator@U?$_Tree_node@PAVTHD@@PAX@std@@@std@@@std@@QAE@XZ
?allocate@?$_Wrap_alloc@V?$allocator@U?$_Tree_node@PAVTHD@@PAX@std@@@std@@@std@@QAEPAU?$_Tree_node@PAVTHD@@PAX@2@I@Z
?deallocate@?$_Wrap_alloc@V?$allocator@U?$_Tree_node@PAVTHD@@PAX@std@@@std@@@std@@QAEXPAU?$_Tree_node@PAVTHD@@PAX@2@I@Z
?max_size@?$_Wrap_alloc@V?$allocator@U?$_Tree_node@PAVTHD@@PAX@std@@@std@@@std@@QBEIXZ
??0?$_Tree_val@U?$_Tree_simple_types@PAVTHD@@@std@@@std@@QAE@XZ
?_Color@?$_Tree_val@U?$_Tree_simple_types@PAVTHD@@@std@@@std@@SAAADPAU?$_Tree_node@PAVTHD@@PAX@2@@Z
?_Isnil@?$_Tree_val@U?$_Tree_simple_types@PAVTHD@@@std@@@std@@SAAADPAU?$_Tree_node@PAVTHD@@PAX@2@@Z
?_Left@?$_Tree_val@U?$_Tree_simple_types@PAVTHD@@@std@@@std@@SAAAPAU?$_Tree_node@PAVTHD@@PAX@2@PAU32@@Z
?_Parent@?$_Tree_val@U?$_Tree_simple_types@PAVTHD@@@std@@@std@@SAAAPAU?$_Tree_node@PAVTHD@@PAX@2@PAU32@@Z
?_Right@?$_Tree_val@U?$_Tree_simple_types@PAVTHD@@@std@@@std@@SAAAPAU?$_Tree_node@PAVTHD@@PAX@2@PAU32@@Z
?_Myval@?$_Tree_val@U?$_Tree_simple_types@PAVTHD@@@std@@@std@@SAAAPAVTHD@@PAU?$_Tree_node@PAVTHD@@PAX@2@@Z
?_Max@?$_Tree_val@U?$_Tree_simple_types@PAVTHD@@@std@@@std@@SAPAU?$_Tree_node@PAVTHD@@PAX@2@PAU32@@Z
?_Min@?$_Tree_val@U?$_Tree_simple_types@PAVTHD@@@std@@@std@@SAPAU?$_Tree_node@PAVTHD@@PAX@2@PAU32@@Z
??1?$_Tree_val@U?$_Tree_simple_types@PAVTHD@@@std@@@std@@QAE@XZ
??0?$_Tree_alloc@$0A@U?$_Tree_base_types@PAVTHD@@V?$allocator@PAVTHD@@@std@@@std@@@std@@QAE@ABV?$allocator@PAVTHD@@@1@@Z
??1?$_Tree_alloc@$0A@U?$_Tree_base_types@PAVTHD@@V?$allocator@PAVTHD@@@std@@@std@@@std@@QAE@XZ
?_Change_alloc@?$_Tree_alloc@$0A@U?$_Tree_base_types@PAVTHD@@V?$allocator@PAVTHD@@@std@@@std@@@std@@QAEXABU?$_Wrap_alloc@V?$allocator@U?$_Tree_node@PAVTHD@@PAX@std@@@std@@@2@@Z
?_Alloc_proxy@?$_Tree_alloc@$0A@U?$_Tree_base_types@PAVTHD@@V?$allocator@PAVTHD@@@std@@@std@@@std@@QAEXXZ
?_Free_proxy@?$_Tree_alloc@$0A@U?$_Tree_base_types@PAVTHD@@V?$allocator@PAVTHD@@@std@@@std@@@std@@QAEXXZ
?_Buyheadnode@?$_Tree_alloc@$0A@U?$_Tree_base_types@PAVTHD@@V?$allocator@PAVTHD@@@std@@@std@@@std@@QAEPAU?$_Tree_node@PAVTHD@@PAX@2@XZ
?_Freeheadnode@?$_Tree_alloc@$0A@U?$_Tree_base_types@PAVTHD@@V?$allocator@PAVTHD@@@std@@@std@@@std@@QAEXPAU?$_Tree_node@PAVTHD@@PAX@2@@Z
??0?$_Tree_buy@PAVTHD@@V?$allocator@PAVTHD@@@std@@@std@@QAE@ABV?$allocator@PAVTHD@@@1@@Z
?_Buynode0@?$_Tree_buy@PAVTHD@@V?$allocator@PAVTHD@@@std@@@std@@QAEPAU?$_Tree_node@PAVTHD@@PAX@2@XZ
?_Freenode0@?$_Tree_buy@PAVTHD@@V?$allocator@PAVTHD@@@std@@@std@@QAEXPAU?$_Tree_node@PAVTHD@@PAX@2@@Z
??1?$_Tree_buy@PAVTHD@@V?$allocator@PAVTHD@@@std@@@std@@QAE@XZ
??0?$_Tree_comp@$0A@V?$_Tset_traits@PAVTHD@@U?$less@PAVTHD@@@std@@V?$allocator@PAVTHD@@@3@$0A@@std@@@std@@QAE@ABU?$less@PAVTHD@@@1@ABV?$allocator@PAVTHD@@@1@@Z
?_Setcomp@?$_Tree_comp@$0A@V?$_Tset_traits@PAVTHD@@U?$less@PAVTHD@@@std@@V?$allocator@PAVTHD@@@3@$0A@@std@@@std@@QAEXABU?$less@PAVTHD@@@2@@Z
??1?$_Tree_comp@$0A@V?$_Tset_traits@PAVTHD@@U?$less@PAVTHD@@@std@@V?$allocator@PAVTHD@@@3@$0A@@std@@@std@@QAE@XZ
??0?$_Tree@V?$_Tset_traits@PAVTHD@@U?$less@PAVTHD@@@std@@V?$allocator@PAVTHD@@@3@$0A@@std@@@std@@QAE@ABU?$less@PAVTHD@@@1@ABV?$allocator@PAVTHD@@@1@@Z
??1?$_Tree@V?$_Tset_traits@PAVTHD@@U?$less@PAVTHD@@@std@@V?$allocator@PAVTHD@@@3@$0A@@std@@@std@@QAE@XZ
??4?$_Tree@V?$_Tset_traits@PAVTHD@@U?$less@PAVTHD@@@std@@V?$allocator@PAVTHD@@@3@$0A@@std@@@std@@QAEAAV01@ABV01@@Z
?begin@?$_Tree@V?$_Tset_traits@PAVTHD@@U?$less@PAVTHD@@@std@@V?$allocator@PAVTHD@@@3@$0A@@std@@@std@@QAE?AV?$_Tree_const_iterator@V?$_Tree_val@U?$_Tree_simple_types@PAVTHD@@@std@@@std@@@2@XZ
?end@?$_Tree@V?$_Tset_traits@PAVTHD@@U?$less@PAVTHD@@@std@@V?$allocator@PAVTHD@@@3@$0A@@std@@@std@@QAE?AV?$_Tree_const_iterator@V?$_Tree_val@U?$_Tree_simple_types@PAVTHD@@@std@@@std@@@2@XZ
?size@?$_Tree@V?$_Tset_traits@PAVTHD@@U?$less@PAVTHD@@@std@@V?$allocator@PAVTHD@@@3@$0A@@std@@@std@@QBEIXZ
?max_size@?$_Tree@V?$_Tset_traits@PAVTHD@@U?$less@PAVTHD@@@std@@V?$allocator@PAVTHD@@@3@$0A@@std@@@std@@QBEIXZ
?insert@?$_Tree@V?$_Tset_traits@PAVTHD@@U?$less@PAVTHD@@@std@@V?$allocator@PAVTHD@@@3@$0A@@std@@@std@@QAE?AU?$pair@V?$_Tree_const_iterator@V?$_Tree_val@U?$_Tree_simple_types@PAVTHD@@@std@@@std@@@std@@_N@2@ABQAVTHD@@@Z
?erase@?$_Tree@V?$_Tset_traits@PAVTHD@@U?$less@PAVTHD@@@std@@V?$allocator@PAVTHD@@@3@$0A@@std@@@std@@QAE?AV?$_Tree_const_iterator@V?$_Tree_val@U?$_Tree_simple_types@PAVTHD@@@std@@@std@@@2@V32@@Z
?erase@?$_Tree@V?$_Tset_traits@PAVTHD@@U?$less@PAVTHD@@@std@@V?$allocator@PAVTHD@@@3@$0A@@std@@@std@@QAE?AV?$_Tree_const_iterator@V?$_Tree_val@U?$_Tree_simple_types@PAVTHD@@@std@@@std@@@2@V32@0@Z
?erase@?$_Tree@V?$_Tset_traits@PAVTHD@@U?$less@PAVTHD@@@std@@V?$allocator@PAVTHD@@@3@$0A@@std@@@std@@QAEIABQAVTHD@@@Z
?clear@?$_Tree@V?$_Tset_traits@PAVTHD@@U?$less@PAVTHD@@@std@@V?$allocator@PAVTHD@@@3@$0A@@std@@@std@@QAEXXZ
?find@?$_Tree@V?$_Tset_traits@PAVTHD@@U?$less@PAVTHD@@@std@@V?$allocator@PAVTHD@@@3@$0A@@std@@@std@@QAE?AV?$_Tree_const_iterator@V?$_Tree_val@U?$_Tree_simple_types@PAVTHD@@@std@@@std@@@2@ABQAVTHD@@@Z
?lower_bound@?$_Tree@V?$_Tset_traits@PAVTHD@@U?$less@PAVTHD@@@std@@V?$allocator@PAVTHD@@@3@$0A@@std@@@std@@QAE?AV?$_Tree_const_iterator@V?$_Tree_val@U?$_Tree_simple_types@PAVTHD@@@std@@@std@@@2@ABQAVTHD@@@Z
?equal_range@?$_Tree@V?$_Tset_traits@PAVTHD@@U?$less@PAVTHD@@@std@@V?$allocator@PAVTHD@@@3@$0A@@std@@@std@@QAE?AU?$pair@V?$_Tree_const_iterator@V?$_Tree_val@U?$_Tree_simple_types@PAVTHD@@@std@@@std@@@std@@V12@@2@ABQAVTHD@@@Z
?_Destroy_if_not_nil@?$_Tree@V?$_Tset_traits@PAVTHD@@U?$less@PAVTHD@@@std@@V?$allocator@PAVTHD@@@3@$0A@@std@@@std@@IAEXU_Nil@2@@Z
?_Lbound@?$_Tree@V?$_Tset_traits@PAVTHD@@U?$less@PAVTHD@@@std@@V?$allocator@PAVTHD@@@3@$0A@@std@@@std@@IAEPAU?$_Tree_node@PAVTHD@@PAX@2@ABQAVTHD@@@Z
?_Lmost@?$_Tree@V?$_Tset_traits@PAVTHD@@U?$less@PAVTHD@@@std@@V?$allocator@PAVTHD@@@3@$0A@@std@@@std@@IBEAAPAU?$_Tree_node@PAVTHD@@PAX@2@XZ
?_Lrotate@?$_Tree@V?$_Tset_traits@PAVTHD@@U?$less@PAVTHD@@@std@@V?$allocator@PAVTHD@@@3@$0A@@std@@@std@@IAEXPAU?$_Tree_node@PAVTHD@@PAX@2@@Z
?_Rmost@?$_Tree@V?$_Tset_traits@PAVTHD@@U?$less@PAVTHD@@@std@@V?$allocator@PAVTHD@@@3@$0A@@std@@@std@@IBEAAPAU?$_Tree_node@PAVTHD@@PAX@2@XZ
?_Root@?$_Tree@V?$_Tset_traits@PAVTHD@@U?$less@PAVTHD@@@std@@V?$allocator@PAVTHD@@@3@$0A@@std@@@std@@IBEAAPAU?$_Tree_node@PAVTHD@@PAX@2@XZ
?_Rrotate@?$_Tree@V?$_Tset_traits@PAVTHD@@U?$less@PAVTHD@@@std@@V?$allocator@PAVTHD@@@3@$0A@@std@@@std@@IAEXPAU?$_Tree_node@PAVTHD@@PAX@2@@Z
?_Orphan_ptr@?$_Tree@V?$_Tset_traits@PAVTHD@@U?$less@PAVTHD@@@std@@V?$allocator@PAVTHD@@@3@$0A@@std@@@std@@IBEXAAV12@PAU?$_Tree_node@PAVTHD@@PAX@2@@Z
?_Tidy@?$_Tree@V?$_Tset_traits@PAVTHD@@U?$less@PAVTHD@@@std@@V?$allocator@PAVTHD@@@3@$0A@@std@@@std@@IAEXXZ
?_Kfn@?$_Tree@V?$_Tset_traits@PAVTHD@@U?$less@PAVTHD@@@std@@V?$allocator@PAVTHD@@@3@$0A@@std@@@std@@IBEABQAVTHD@@ABQAV3@@Z
?_Key@?$_Tree@V?$_Tset_traits@PAVTHD@@U?$less@PAVTHD@@@std@@V?$allocator@PAVTHD@@@3@$0A@@std@@@std@@IBEABQAVTHD@@PAU?$_Tree_node@PAVTHD@@PAX@2@@Z
??0?$set@PAVTHD@@U?$less@PAVTHD@@@std@@V?$allocator@PAVTHD@@@3@@std@@QAE@XZ
??4?$set@PAVTHD@@U?$less@PAVTHD@@@std@@V?$allocator@PAVTHD@@@3@@std@@QAEAAV01@ABV01@@Z
?insert@?$set@PAVTHD@@U?$less@PAVTHD@@@std@@V?$allocator@PAVTHD@@@3@@std@@QAE?AU?$pair@V?$_Tree_const_iterator@V?$_Tree_val@U?$_Tree_simple_types@PAVTHD@@@std@@@std@@@std@@_N@2@ABQAVTHD@@@Z
??1?$set@PAVTHD@@U?$less@PAVTHD@@@std@@V?$allocator@PAVTHD@@@3@@std@@QAE@XZ
?global_thread_list_begin@@YA?AV?$_Tree_const_iterator@V?$_Tree_val@U?$_Tree_simple_types@PAVTHD@@@std@@@std@@@std@@XZ
?global_thread_list_end@@YA?AV?$_Tree_const_iterator@V?$_Tree_val@U?$_Tree_simple_types@PAVTHD@@@std@@@std@@@std@@XZ
?copy_global_thread_list@@YAXPAV?$set@PAVTHD@@U?$less@PAVTHD@@@std@@V?$allocator@PAVTHD@@@3@@std@@@Z
?add_global_thread@@YAXPAVTHD@@@Z
?remove_global_thread@@YAXPAVTHD@@@Z
?get_thread_count@@YAIXZ
?empty@?$base_ilist@VNAMED_ILINK@@@@QAEXXZ
setup_fpu
??0?$allocator@U?$_List_node@PAVTHD@@PAX@std@@@std@@QAE@XZ
?deallocate@?$allocator@U?$_List_node@PAVTHD@@PAX@std@@@std@@QAEXPAU?$_List_node@PAVTHD@@PAX@2@I@Z
?allocate@?$allocator@U?$_List_node@PAVTHD@@PAX@std@@@std@@QAEPAU?$_List_node@PAVTHD@@PAX@2@I@Z
?max_size@?$allocator@U?$_List_node@PAVTHD@@PAX@std@@@std@@QBEIXZ
?max_size@?$allocator_traits@V?$allocator@U?$_List_node@PAVTHD@@PAX@std@@@std@@@std@@SAIABV?$allocator@U?$_List_node@PAVTHD@@PAX@std@@@2@@Z
??0?$_Wrap_alloc@V?$allocator@U?$_List_node@PAVTHD@@PAX@std@@@std@@@std@@QAE@XZ
?allocate@?$_Wrap_alloc@V?$allocator@U?$_List_node@PAVTHD@@PAX@std@@@std@@@std@@QAEPAU?$_List_node@PAVTHD@@PAX@2@I@Z
?deallocate@?$_Wrap_alloc@V?$allocator@U?$_List_node@PAVTHD@@PAX@std@@@std@@@std@@QAEXPAU?$_List_node@PAVTHD@@PAX@2@I@Z
?max_size@?$_Wrap_alloc@V?$allocator@U?$_List_node@PAVTHD@@PAX@std@@@std@@@std@@QBEIXZ
??0?$_List_val@U?$_List_simple_types@PAVTHD@@@std@@@std@@QAE@XZ
?_Nextnode@?$_List_val@U?$_List_simple_types@PAVTHD@@@std@@@std@@SAAAPAU?$_List_node@PAVTHD@@PAX@2@PAU32@@Z
?_Prevnode@?$_List_val@U?$_List_simple_types@PAVTHD@@@std@@@std@@SAAAPAU?$_List_node@PAVTHD@@PAX@2@PAU32@@Z
?_Myval@?$_List_val@U?$_List_simple_types@PAVTHD@@@std@@@std@@SAAAPAVTHD@@PAU?$_List_node@PAVTHD@@PAX@2@@Z
??1?$_List_val@U?$_List_simple_types@PAVTHD@@@std@@@std@@QAE@XZ
??0?$_List_alloc@$0A@U?$_List_base_types@PAVTHD@@V?$allocator@PAVTHD@@@std@@@std@@@std@@QAE@ABV?$allocator@PAVTHD@@@1@@Z
??1?$_List_alloc@$0A@U?$_List_base_types@PAVTHD@@V?$allocator@PAVTHD@@@std@@@std@@@std@@QAE@XZ
?_Alloc_proxy@?$_List_alloc@$0A@U?$_List_base_types@PAVTHD@@V?$allocator@PAVTHD@@@std@@@std@@@std@@QAEXXZ
?_Free_proxy@?$_List_alloc@$0A@U?$_List_base_types@PAVTHD@@V?$allocator@PAVTHD@@@std@@@std@@@std@@QAEXXZ
?_Buyheadnode@?$_List_alloc@$0A@U?$_List_base_types@PAVTHD@@V?$allocator@PAVTHD@@@std@@@std@@@std@@QAEPAU?$_List_node@PAVTHD@@PAX@2@XZ
?_Freeheadnode@?$_List_alloc@$0A@U?$_List_base_types@PAVTHD@@V?$allocator@PAVTHD@@@std@@@std@@@std@@QAEXPAU?$_List_node@PAVTHD@@PAX@2@@Z
?_Buynode0@?$_List_alloc@$0A@U?$_List_base_types@PAVTHD@@V?$allocator@PAVTHD@@@std@@@std@@@std@@QAEPAU?$_List_node@PAVTHD@@PAX@2@PAU32@0@Z
??0?$_List_buy@PAVTHD@@V?$allocator@PAVTHD@@@std@@@std@@QAE@ABV?$allocator@PAVTHD@@@1@@Z
?_Freenode@?$_List_buy@PAVTHD@@V?$allocator@PAVTHD@@@std@@@std@@QAEXPAU?$_List_node@PAVTHD@@PAX@2@@Z
??1?$_List_buy@PAVTHD@@V?$allocator@PAVTHD@@@std@@@std@@QAE@XZ
??0?$list@PAVTHD@@V?$allocator@PAVTHD@@@std@@@std@@QAE@XZ
??1?$list@PAVTHD@@V?$allocator@PAVTHD@@@std@@@std@@QAE@XZ
?begin@?$list@PAVTHD@@V?$allocator@PAVTHD@@@std@@@std@@QAE?AV?$_List_iterator@V?$_List_val@U?$_List_simple_types@PAVTHD@@@std@@@std@@@2@XZ
?_Unchecked_end@?$list@PAVTHD@@V?$allocator@PAVTHD@@@std@@@std@@QAE?AV?$_List_unchecked_iterator@V?$_List_val@U?$_List_simple_types@PAVTHD@@@std@@@std@@@2@XZ
?_Make_iter@?$list@PAVTHD@@V?$allocator@PAVTHD@@@std@@@std@@QBE?AV?$_List_iterator@V?$_List_val@U?$_List_simple_types@PAVTHD@@@std@@@std@@@2@V?$_List_const_iterator@V?$_List_val@U?$_List_simple_types@PAVTHD@@@std@@@std@@@2@@Z
?max_size@?$list@PAVTHD@@V?$allocator@PAVTHD@@@std@@@std@@QBEIXZ
?empty@?$list@PAVTHD@@V?$allocator@PAVTHD@@@std@@@std@@QBE_NXZ
?front@?$list@PAVTHD@@V?$allocator@PAVTHD@@@std@@@std@@QAEAAPAVTHD@@XZ
?pop_front@?$list@PAVTHD@@V?$allocator@PAVTHD@@@std@@@std@@QAEXXZ
?push_back@?$list@PAVTHD@@V?$allocator@PAVTHD@@@std@@@std@@QAEXABQAVTHD@@@Z
?erase@?$list@PAVTHD@@V?$allocator@PAVTHD@@@std@@@std@@QAE?AV?$_List_iterator@V?$_List_val@U?$_List_simple_types@PAVTHD@@@std@@@std@@@2@V?$_List_const_iterator@V?$_List_val@U?$_List_simple_types@PAVTHD@@@std@@@std@@@2@@Z
?clear@?$list@PAVTHD@@V?$allocator@PAVTHD@@@std@@@std@@QAEXXZ
?_Tidy@?$list@PAVTHD@@V?$allocator@PAVTHD@@@std@@@std@@QAEXXZ
?_Incsize@?$list@PAVTHD@@V?$allocator@PAVTHD@@@std@@@std@@QAEXI@Z
?_Orphan_ptr@?$list@PAVTHD@@V?$allocator@PAVTHD@@@std@@@std@@QBEXAAV12@PAU?$_List_node@PAVTHD@@PAX@2@@Z
??0?$_Iterator012@Ubidirectional_iterator_tag@std@@PAVTHD@@HPBQAV3@ABQAV3@U_Iterator_base12@2@@std@@QAE@XZ
??1?$_Iterator012@Ubidirectional_iterator_tag@std@@PAVTHD@@HPBQAV3@ABQAV3@U_Iterator_base12@2@@std@@QAE@XZ
??0?$_Iterator012@Ubidirectional_iterator_tag@std@@PAVTHD@@HPBQAV3@ABQAV3@U_Iterator_base12@2@@std@@QAE@ABU01@@Z
??4?$_Iterator012@Ubidirectional_iterator_tag@std@@PAVTHD@@HPBQAV3@ABQAV3@U_Iterator_base12@2@@std@@QAEAAU01@ABU01@@Z
??0?$_Tree_unchecked_const_iterator@V?$_Tree_val@U?$_Tree_simple_types@PAVTHD@@@std@@@std@@U_Iterator_base12@2@@std@@QAE@PAU?$_Tree_node@PAVTHD@@PAX@1@PBV?$_Tree_val@U?$_Tree_simple_types@PAVTHD@@@std@@@1@@Z
??E?$_Tree_unchecked_const_iterator@V?$_Tree_val@U?$_Tree_simple_types@PAVTHD@@@std@@@std@@U_Iterator_base12@2@@std@@QAEAAV01@XZ
??F?$_Tree_unchecked_const_iterator@V?$_Tree_val@U?$_Tree_simple_types@PAVTHD@@@std@@@std@@U_Iterator_base12@2@@std@@QAEAAV01@XZ
?_Mynode@?$_Tree_unchecked_const_iterator@V?$_Tree_val@U?$_Tree_simple_types@PAVTHD@@@std@@@std@@U_Iterator_base12@2@@std@@QBEPAU?$_Tree_node@PAVTHD@@PAX@2@XZ
??1?$_Tree_unchecked_const_iterator@V?$_Tree_val@U?$_Tree_simple_types@PAVTHD@@@std@@@std@@U_Iterator_base12@2@@std@@QAE@XZ
??0?$_Tree_unchecked_const_iterator@V?$_Tree_val@U?$_Tree_simple_types@PAVTHD@@@std@@@std@@U_Iterator_base12@2@@std@@QAE@ABV01@@Z
??4?$_Tree_unchecked_const_iterator@V?$_Tree_val@U?$_Tree_simple_types@PAVTHD@@@std@@@std@@U_Iterator_base12@2@@std@@QAEAAV01@ABV01@@Z
??0?$_Tree_const_iterator@V?$_Tree_val@U?$_Tree_simple_types@PAVTHD@@@std@@@std@@@std@@QAE@PAU?$_Tree_node@PAVTHD@@PAX@1@PBV?$_Tree_val@U?$_Tree_simple_types@PAVTHD@@@std@@@1@@Z
??D?$_Tree_const_iterator@V?$_Tree_val@U?$_Tree_simple_types@PAVTHD@@@std@@@std@@@std@@QBEABQAVTHD@@XZ
??E?$_Tree_const_iterator@V?$_Tree_val@U?$_Tree_simple_types@PAVTHD@@@std@@@std@@@std@@QAEAAV01@XZ
??E?$_Tree_const_iterator@V?$_Tree_val@U?$_Tree_simple_types@PAVTHD@@@std@@@std@@@std@@QAE?AV01@H@Z
??F?$_Tree_const_iterator@V?$_Tree_val@U?$_Tree_simple_types@PAVTHD@@@std@@@std@@@std@@QAEAAV01@XZ
??8?$_Tree_const_iterator@V?$_Tree_val@U?$_Tree_simple_types@PAVTHD@@@std@@@std@@@std@@QBE_NABV01@@Z
??9?$_Tree_const_iterator@V?$_Tree_val@U?$_Tree_simple_types@PAVTHD@@@std@@@std@@@std@@QBE_NABV01@@Z
??1?$_Tree_const_iterator@V?$_Tree_val@U?$_Tree_simple_types@PAVTHD@@@std@@@std@@@std@@QAE@XZ
??0?$_Tree_const_iterator@V?$_Tree_val@U?$_Tree_simple_types@PAVTHD@@@std@@@std@@@std@@QAE@ABV01@@Z
??4?$_Tree_const_iterator@V?$_Tree_val@U?$_Tree_simple_types@PAVTHD@@@std@@@std@@@std@@QAEAAV01@ABV01@@Z
??1?$pair@V?$_Tree_const_iterator@V?$_Tree_val@U?$_Tree_simple_types@PAVTHD@@@std@@@std@@@std@@_N@std@@QAE@XZ
?net_before_header_psi@@YAXPAUst_net@@PAXI@Z
?net_after_header_psi@@YAXPAUst_net@@PAXID@Z
?init_net_server_extension@@YAXPAVTHD@@@Z
??0Buffered_log@@QAE@W4loglevel@@PBD@Z
??1Buffered_log@@QAE@XZ
?print@Buffered_log@@QAEXXZ
??0Buffered_logs@@QAE@XZ
??1Buffered_logs@@QAE@XZ
?init@Buffered_logs@@QAEXXZ
?cleanup@Buffered_logs@@QAEXXZ
?buffer@Buffered_logs@@QAEXW4loglevel@@PBD@Z
?print@Buffered_logs@@QAEXXZ
??0?$List@VBuffered_log@@@@QAE@XZ
?push_back@?$List@VBuffered_log@@@@QAE_NPAVBuffered_log@@PAUst_mem_root@@@Z
?delete_elements@?$List@VBuffered_log@@@@QAEXXZ
??1?$List@VBuffered_log@@@@QAE@XZ
??0?$List_iterator_fast@VBuffered_log@@@@QAE@AAV?$List@VBuffered_log@@@@@Z
??E?$List_iterator_fast@VBuffered_log@@@@QAEPAVBuffered_log@@H@Z
?IsNT@NTService@@QAEHXZ
?SetShutdownEvent@NTService@@QAEXPAX@Z
mysqld_get_one_option
?handle_connections_sockets@@YAXXZ
handle_connections_sockets_thread
kill_server_thread
handle_connections_namedpipes
handle_connections_shared_memory
print_signal_warning
end_thread_signal
?thd_release_resources@@YAXPAVTHD@@@Z
?my_unhandler_exception_filter@@YGJPAU_EXCEPTION_POINTERS@@@Z
my_str_malloc_mysqld
my_str_free_mysqld
my_str_realloc_mysqld
handle_shutdown
?flush_auto_options@@YAHPBD@Z
?decrement_handler_count@@YAXXZ
?win_main@@YAHHPAPAD@Z
?mysql_service@@YAHPAX@Z
?mysqld_main@@YAHHPAPAD@Z
?inc_thread_created@@YAXXZ
?adjust_open_files_limit@@YAXPAK@Z
??$max@K@std@@YAABKABK0@Z
?adjust_max_connections@@YAXK@Z
?adjust_table_cache_size@@YAXK@Z
?adjust_table_def_size@@YAXXZ
??$min@_J@std@@YAAB_JAB_J0@Z
??0?$_Iterator012@Urandom_access_iterator_tag@std@@Umy_option@@HPBU3@ABU3@U_Iterator_base12@2@@std@@QAE@XZ
??1?$_Iterator012@Urandom_access_iterator_tag@std@@Umy_option@@HPBU3@ABU3@U_Iterator_base12@2@@std@@QAE@XZ
??0?$_Iterator012@Urandom_access_iterator_tag@std@@Umy_option@@HPBU3@ABU3@U_Iterator_base12@2@@std@@QAE@ABU01@@Z
??0?$_Vector_const_iterator@V?$_Vector_val@U?$_Simple_types@Umy_option@@@std@@@std@@@std@@QAE@PAUmy_option@@PBU_Container_base12@1@@Z
??D?$_Vector_const_iterator@V?$_Vector_val@U?$_Simple_types@Umy_option@@@std@@@std@@@std@@QBEABUmy_option@@XZ
??E?$_Vector_const_iterator@V?$_Vector_val@U?$_Simple_types@Umy_option@@@std@@@std@@@std@@QAEAAV01@XZ
??Y?$_Vector_const_iterator@V?$_Vector_val@U?$_Simple_types@Umy_option@@@std@@@std@@@std@@QAEAAV01@H@Z
??G?$_Vector_const_iterator@V?$_Vector_val@U?$_Simple_types@Umy_option@@@std@@@std@@@std@@QBEHABV01@@Z
??8?$_Vector_const_iterator@V?$_Vector_val@U?$_Simple_types@Umy_option@@@std@@@std@@@std@@QBE_NABV01@@Z
??9?$_Vector_const_iterator@V?$_Vector_val@U?$_Simple_types@Umy_option@@@std@@@std@@@std@@QBE_NABV01@@Z
??M?$_Vector_const_iterator@V?$_Vector_val@U?$_Simple_types@Umy_option@@@std@@@std@@@std@@QBE_NABV01@@Z
?_Compat@?$_Vector_const_iterator@V?$_Vector_val@U?$_Simple_types@Umy_option@@@std@@@std@@@std@@QBEXABV12@@Z
??1?$_Vector_const_iterator@V?$_Vector_val@U?$_Simple_types@Umy_option@@@std@@@std@@@std@@QAE@XZ
??0?$_Vector_const_iterator@V?$_Vector_val@U?$_Simple_types@Umy_option@@@std@@@std@@@std@@QAE@ABV01@@Z
??0?$_Vector_iterator@V?$_Vector_val@U?$_Simple_types@Umy_option@@@std@@@std@@@std@@QAE@PAUmy_option@@PBU_Container_base12@1@@Z
?_Unchecked@?$_Vector_iterator@V?$_Vector_val@U?$_Simple_types@Umy_option@@@std@@@std@@@std@@QBEPAUmy_option@@XZ
??D?$_Vector_iterator@V?$_Vector_val@U?$_Simple_types@Umy_option@@@std@@@std@@@std@@QBEAAUmy_option@@XZ
??E?$_Vector_iterator@V?$_Vector_val@U?$_Simple_types@Umy_option@@@std@@@std@@@std@@QAEAAV01@XZ
??Y?$_Vector_iterator@V?$_Vector_val@U?$_Simple_types@Umy_option@@@std@@@std@@@std@@QAEAAV01@H@Z
??H?$_Vector_iterator@V?$_Vector_val@U?$_Simple_types@Umy_option@@@std@@@std@@@std@@QBE?AV01@H@Z
??G?$_Vector_iterator@V?$_Vector_val@U?$_Simple_types@Umy_option@@@std@@@std@@@std@@QBEHABV?$_Vector_const_iterator@V?$_Vector_val@U?$_Simple_types@Umy_option@@@std@@@std@@@1@@Z
??1?$_Vector_iterator@V?$_Vector_val@U?$_Simple_types@Umy_option@@@std@@@std@@@std@@QAE@XZ
??0?$_Vector_iterator@V?$_Vector_val@U?$_Simple_types@Umy_option@@@std@@@std@@@std@@QAE@ABV01@@Z
??R?$less@Umy_option@@@std@@QBE_NABUmy_option@@0@Z
??$sort@V?$_Vector_iterator@V?$_Vector_val@U?$_Simple_types@Umy_option@@@std@@@std@@@std@@U?$less@Umy_option@@@2@@std@@YAXV?$_Vector_iterator@V?$_Vector_val@U?$_Simple_types@Umy_option@@@std@@@std@@@0@0U?$less@Umy_option@@@0@@Z
?fn_format_relative_to_data_home@@YA_NPADPBD11@Z
?check_secure_file_priv_path@@YA_NXZ
??$addressof@$$CBUmy_option@@@std@@YAPBUmy_option@@ABU1@@Z
??$construct@Umy_option@@AAU1@@?$_Wrap_alloc@V?$allocator@Umy_option@@@std@@@std@@QAEXPAUmy_option@@AAU2@@Z
??$construct@Umy_option@@ABU1@@?$_Wrap_alloc@V?$allocator@Umy_option@@@std@@@std@@QAEXPAUmy_option@@ABU2@@Z
??$destroy@Umy_option@@@?$_Wrap_alloc@V?$allocator@Umy_option@@@std@@@std@@QAEXPAUmy_option@@@Z
??$?8V?$allocator@Umy_option@@@std@@V01@@std@@YA_NABU?$_Wrap_alloc@V?$allocator@Umy_option@@@std@@@0@0@Z
??$?8Umy_option@@U0@@std@@YA_NABV?$allocator@Umy_option@@@0@0@Z
??$_Swap_adl@PAUmy_option@@@std@@YAXAAPAUmy_option@@0@Z
??$_Move@AAV?$vector@Umy_option@@V?$allocator@Umy_option@@@std@@@std@@@std@@YA$$QAV?$vector@Umy_option@@V?$allocator@Umy_option@@@std@@@0@AAV10@@Z
??$?0V?$_Tree_const_iterator@V?$_Tree_val@U?$_Tree_simple_types@PAVTHD@@@std@@@std@@@std@@_N@?$pair@V?$_Tree_const_iterator@V?$_Tree_val@U?$_Tree_simple_types@PAVTHD@@@std@@@std@@@std@@_N@std@@QAE@$$QAU01@PAPAX@Z
??1?$pair@V?$_Tree_const_iterator@V?$_Tree_val@U?$_Tree_simple_types@PAVTHD@@@std@@@std@@@std@@V12@@std@@QAE@XZ
??$?0V?$_Tree_const_iterator@V?$_Tree_val@U?$_Tree_simple_types@PAVTHD@@@std@@@std@@@std@@V01@@?$pair@V?$_Tree_const_iterator@V?$_Tree_val@U?$_Tree_simple_types@PAVTHD@@@std@@@std@@@std@@V12@@std@@QAE@$$QAU01@PAPAX@Z
??$_Distance@V?$_Tree_const_iterator@V?$_Tree_val@U?$_Tree_simple_types@PAVTHD@@@std@@@std@@@std@@I@std@@YAXV?$_Tree_const_iterator@V?$_Tree_val@U?$_Tree_simple_types@PAVTHD@@@std@@@std@@@0@0AAI@Z
??$_Debug_lt_pred@U?$less@PAVTHD@@@std@@PAVTHD@@PAV3@@std@@YA_NU?$less@PAVTHD@@@0@ABQAVTHD@@1PB_WI@Z
??0?$_List_unchecked_const_iterator@V?$_List_val@U?$_List_simple_types@PAVTHD@@@std@@@std@@U_Iterator_base12@2@@std@@QAE@PAU?$_List_node@PAVTHD@@PAX@1@PBV?$_List_val@U?$_List_simple_types@PAVTHD@@@std@@@1@@Z
?_Mynode@?$_List_unchecked_const_iterator@V?$_List_val@U?$_List_simple_types@PAVTHD@@@std@@@std@@U_Iterator_base12@2@@std@@QBEPAU?$_List_node@PAVTHD@@PAX@2@XZ
??1?$_List_unchecked_const_iterator@V?$_List_val@U?$_List_simple_types@PAVTHD@@@std@@@std@@U_Iterator_base12@2@@std@@QAE@XZ
??0?$_List_unchecked_const_iterator@V?$_List_val@U?$_List_simple_types@PAVTHD@@@std@@@std@@U_Iterator_base12@2@@std@@QAE@ABV01@@Z
??0?$_List_const_iterator@V?$_List_val@U?$_List_simple_types@PAVTHD@@@std@@@std@@@std@@QAE@PAU?$_List_node@PAVTHD@@PAX@1@PBV?$_List_val@U?$_List_simple_types@PAVTHD@@@std@@@1@@Z
??D?$_List_const_iterator@V?$_List_val@U?$_List_simple_types@PAVTHD@@@std@@@std@@@std@@QBEABQAVTHD@@XZ
??E?$_List_const_iterator@V?$_List_val@U?$_List_simple_types@PAVTHD@@@std@@@std@@@std@@QAEAAV01@XZ
??E?$_List_const_iterator@V?$_List_val@U?$_List_simple_types@PAVTHD@@@std@@@std@@@std@@QAE?AV01@H@Z
??1?$_List_const_iterator@V?$_List_val@U?$_List_simple_types@PAVTHD@@@std@@@std@@@std@@QAE@XZ
??0?$_List_const_iterator@V?$_List_val@U?$_List_simple_types@PAVTHD@@@std@@@std@@@std@@QAE@ABV01@@Z
??0?$_List_iterator@V?$_List_val@U?$_List_simple_types@PAVTHD@@@std@@@std@@@std@@QAE@PAU?$_List_node@PAVTHD@@PAX@1@PBV?$_List_val@U?$_List_simple_types@PAVTHD@@@std@@@1@@Z
??D?$_List_iterator@V?$_List_val@U?$_List_simple_types@PAVTHD@@@std@@@std@@@std@@QBEAAPAVTHD@@XZ
??1?$_List_iterator@V?$_List_val@U?$_List_simple_types@PAVTHD@@@std@@@std@@@std@@QAE@XZ
??0?$_List_unchecked_const_iterator@V?$_List_val@U?$_List_simple_types@PAVTHD@@@std@@@std@@U_Iterator_base0@2@@std@@QAE@PAU?$_List_node@PAVTHD@@PAX@1@PBV?$_List_val@U?$_List_simple_types@PAVTHD@@@std@@@1@@Z
?_Mynode@?$_List_unchecked_const_iterator@V?$_List_val@U?$_List_simple_types@PAVTHD@@@std@@@std@@U_Iterator_base0@2@@std@@QBEPAU?$_List_node@PAVTHD@@PAX@2@XZ
??0?$_List_unchecked_iterator@V?$_List_val@U?$_List_simple_types@PAVTHD@@@std@@@std@@@std@@QAE@PAU?$_List_node@PAVTHD@@PAX@1@PBV?$_List_val@U?$_List_simple_types@PAVTHD@@@std@@@1@@Z
??$_Insert@ABQAVTHD@@@?$list@PAVTHD@@V?$allocator@PAVTHD@@@std@@@std@@QAEXV?$_List_unchecked_const_iterator@V?$_List_val@U?$_List_simple_types@PAVTHD@@@std@@@std@@U_Iterator_base0@2@@1@ABQAVTHD@@@Z
??$forward@V?$vector@Umy_option@@V?$allocator@Umy_option@@@std@@@std@@@std@@YA$$QAV?$vector@Umy_option@@V?$allocator@Umy_option@@@std@@@0@AAV10@@Z
??$?9V?$allocator@Umy_option@@@std@@V01@@std@@YA_NABU?$_Wrap_alloc@V?$allocator@Umy_option@@@std@@@0@0@Z
??$make_move_iterator@V?$_Vector_iterator@V?$_Vector_val@U?$_Simple_types@Umy_option@@@std@@@std@@@std@@@std@@YA?AV?$move_iterator@V?$_Vector_iterator@V?$_Vector_val@U?$_Simple_types@Umy_option@@@std@@@std@@@std@@@0@V?$_Vector_iterator@V?$_Vector_val@U?$_Simple_types@Umy_option@@@std@@@std@@@0@@Z
??0?$move_iterator@V?$_Vector_iterator@V?$_Vector_val@U?$_Simple_types@Umy_option@@@std@@@std@@@std@@@std@@QAE@V?$_Vector_iterator@V?$_Vector_val@U?$_Simple_types@Umy_option@@@std@@@std@@@1@@Z
?base@?$move_iterator@V?$_Vector_iterator@V?$_Vector_val@U?$_Simple_types@Umy_option@@@std@@@std@@@std@@@std@@QBE?AV?$_Vector_iterator@V?$_Vector_val@U?$_Simple_types@Umy_option@@@std@@@std@@@2@XZ
??D?$move_iterator@V?$_Vector_iterator@V?$_Vector_val@U?$_Simple_types@Umy_option@@@std@@@std@@@std@@@std@@QBE$$QAUmy_option@@XZ
??E?$move_iterator@V?$_Vector_iterator@V?$_Vector_val@U?$_Simple_types@Umy_option@@@std@@@std@@@std@@@std@@QAEAAV01@XZ
??1?$move_iterator@V?$_Vector_iterator@V?$_Vector_val@U?$_Simple_types@Umy_option@@@std@@@std@@@std@@@std@@QAE@XZ
??0?$move_iterator@V?$_Vector_iterator@V?$_Vector_val@U?$_Simple_types@Umy_option@@@std@@@std@@@std@@@std@@QAE@ABV01@@Z
??$assign@V?$move_iterator@V?$_Vector_iterator@V?$_Vector_val@U?$_Simple_types@Umy_option@@@std@@@std@@@std@@@std@@@?$vector@Umy_option@@V?$allocator@Umy_option@@@std@@@std@@QAEXV?$move_iterator@V?$_Vector_iterator@V?$_Vector_val@U?$_Simple_types@Umy_option@@@std@@@std@@@std@@@1@0@Z
??$_Umove@PAUmy_option@@@?$vector@Umy_option@@V?$allocator@Umy_option@@@std@@@std@@IAEPAUmy_option@@PAU2@00@Z
??$_Swap_adl@PAU_Container_proxy@std@@@std@@YAXAAPAU_Container_proxy@0@0@Z
??$?9V?$allocator@U?$_Tree_node@PAVTHD@@PAX@std@@@std@@V01@@std@@YA_NABU?$_Wrap_alloc@V?$allocator@U?$_Tree_node@PAVTHD@@PAX@std@@@std@@@0@0@Z
??$_Copy@U?$integral_constant@_N$0A@@std@@@?$_Tree@V?$_Tset_traits@PAVTHD@@U?$less@PAVTHD@@@std@@V?$allocator@PAVTHD@@@3@$0A@@std@@@std@@IAEXABV01@U?$integral_constant@_N$0A@@1@@Z
??$_Insert_nohint@ABQAVTHD@@U_Nil@std@@@?$_Tree@V?$_Tset_traits@PAVTHD@@U?$less@PAVTHD@@@std@@V?$allocator@PAVTHD@@@3@$0A@@std@@@std@@IAE?AU?$pair@V?$_Tree_const_iterator@V?$_Tree_val@U?$_Tree_simple_types@PAVTHD@@@std@@@std@@@std@@_N@1@_NABQAVTHD@@U_Nil@1@@Z
??$_Destroy_range@U?$_Wrap_alloc@V?$allocator@Umy_option@@@std@@@std@@@std@@YAXPAUmy_option@@0AAU?$_Wrap_alloc@V?$allocator@Umy_option@@@std@@@0@@Z
??0?$allocator@U_Container_proxy@std@@@std@@QAE@XZ
?deallocate@?$allocator@U_Container_proxy@std@@@std@@QAEXPAU_Container_proxy@2@I@Z
?allocate@?$allocator@U_Container_proxy@std@@@std@@QAEPAU_Container_proxy@2@I@Z
??$construct@U_Container_proxy@std@@U12@@?$allocator@U_Container_proxy@std@@@std@@QAEXPAU_Container_proxy@1@$$QAU21@@Z
??$destroy@U_Container_proxy@std@@@?$allocator@U_Container_proxy@std@@@std@@QAEXPAU_Container_proxy@1@@Z
??$swap@D@std@@YAXAAD0@Z
??$addressof@PAVTHD@@@std@@YAPAPAVTHD@@AAPAV1@@Z
??$destroy@PAVTHD@@@?$_Wrap_alloc@V?$allocator@U?$_Tree_node@PAVTHD@@PAX@std@@@std@@@std@@QAEXPAPAVTHD@@@Z
??$?0AAV?$_Tree_const_iterator@V?$_Tree_val@U?$_Tree_simple_types@PAVTHD@@@std@@@std@@@std@@AAV01@@?$pair@V?$_Tree_const_iterator@V?$_Tree_val@U?$_Tree_simple_types@PAVTHD@@@std@@@std@@@std@@V12@@std@@QAE@AAV?$_Tree_const_iterator@V?$_Tree_val@U?$_Tree_simple_types@PAVTHD@@@std@@@std@@@1@0PAPAX@Z
??0?$_Wrap_alloc@V?$allocator@U_Container_proxy@std@@@std@@@std@@QAE@XZ
?allocate@?$_Wrap_alloc@V?$allocator@U_Container_proxy@std@@@std@@@std@@QAEPAU_Container_proxy@2@I@Z
?deallocate@?$_Wrap_alloc@V?$allocator@U_Container_proxy@std@@@std@@@std@@QAEXPAU_Container_proxy@2@I@Z
??$?0U?$_Wrap_alloc@V?$allocator@U?$_Tree_node@PAVTHD@@PAX@std@@@std@@@std@@@?$_Wrap_alloc@V?$allocator@U_Container_proxy@std@@@std@@@std@@QAE@ABU?$_Wrap_alloc@V?$allocator@U?$_Tree_node@PAVTHD@@PAX@std@@@std@@@1@@Z
??$?0U?$_Tree_node@PAVTHD@@PAX@std@@@?$allocator@U_Container_proxy@std@@@std@@QAE@ABV?$allocator@U?$_Tree_node@PAVTHD@@PAX@std@@@1@@Z
??$destroy@U_Container_proxy@std@@@?$_Wrap_alloc@V?$allocator@U_Container_proxy@std@@@std@@@std@@QAEXPAU_Container_proxy@1@@Z
??$addressof@PAU?$_Tree_node@PAVTHD@@PAX@std@@@std@@YAPAPAU?$_Tree_node@PAVTHD@@PAX@0@AAPAU10@@Z
??$destroy@PAU?$_Tree_node@PAVTHD@@PAX@std@@@?$_Wrap_alloc@V?$allocator@U?$_Tree_node@PAVTHD@@PAX@std@@@std@@@std@@QAEXPAPAU?$_Tree_node@PAVTHD@@PAX@1@@Z
??$addressof@PAU?$_List_node@PAVTHD@@PAX@std@@@std@@YAPAPAU?$_List_node@PAVTHD@@PAX@0@AAPAU10@@Z
??$destroy@PAU?$_List_node@PAVTHD@@PAX@std@@@?$_Wrap_alloc@V?$allocator@U?$_List_node@PAVTHD@@PAX@std@@@std@@@std@@QAEXPAPAU?$_List_node@PAVTHD@@PAX@1@@Z
??$destroy@PAVTHD@@@?$_Wrap_alloc@V?$allocator@U?$_List_node@PAVTHD@@PAX@std@@@std@@@std@@QAEXPAPAVTHD@@@Z
??$_Allocate@Umy_option@@@std@@YAPAUmy_option@@IPAU1@@Z
??$construct@U_Container_proxy@std@@U12@@?$_Wrap_alloc@V?$allocator@U_Container_proxy@std@@@std@@@std@@QAEXPAU_Container_proxy@1@$$QAU21@@Z
??$_Allocate@U_Container_proxy@std@@@std@@YAPAU_Container_proxy@0@IPAU10@@Z
??$construct@PAU?$_List_node@PAVTHD@@PAX@std@@AAPAU12@@?$_Wrap_alloc@V?$allocator@U?$_List_node@PAVTHD@@PAX@std@@@std@@@std@@QAEXPAPAU?$_List_node@PAVTHD@@PAX@1@AAPAU21@@Z
??$construct@PAU?$_Tree_node@PAVTHD@@PAX@std@@AAPAU12@@?$_Wrap_alloc@V?$allocator@U?$_Tree_node@PAVTHD@@PAX@std@@@std@@@std@@QAEXPAPAU?$_Tree_node@PAVTHD@@PAX@1@AAPAU21@@Z
??$_Allocate@U?$_List_node@PAVTHD@@PAX@std@@@std@@YAPAU?$_List_node@PAVTHD@@PAX@0@IPAU10@@Z
??$_Allocate@U?$_Tree_node@PAVTHD@@PAX@std@@@std@@YAPAU?$_Tree_node@PAVTHD@@PAX@0@IPAU10@@Z
??$_Debug_lt@KK@std@@YA_NABK0PB_WI@Z
??$forward@_N@std@@YA$$QA_NAA_N@Z
??$_Debug_lt@_J_J@std@@YA_NAB_J0PB_WI@Z
??$_Debug_range@V?$_Vector_iterator@V?$_Vector_val@U?$_Simple_types@Umy_option@@@std@@@std@@@std@@@std@@YAXV?$_Vector_iterator@V?$_Vector_val@U?$_Simple_types@Umy_option@@@std@@@std@@@0@0PB_WI@Z
??$_Debug_pointer@U?$less@Umy_option@@@std@@@std@@YAXAAU?$less@Umy_option@@@0@PB_WI@Z
??$_Unchecked@V?$_Vector_val@U?$_Simple_types@Umy_option@@@std@@@std@@@std@@YAPAUmy_option@@V?$_Vector_iterator@V?$_Vector_val@U?$_Simple_types@Umy_option@@@std@@@std@@@0@@Z
??$_Sort@PAUmy_option@@HU?$less@Umy_option@@@std@@@std@@YAXPAUmy_option@@0HU?$less@Umy_option@@@0@@Z
??$forward@AAUmy_option@@@std@@YAAAUmy_option@@AAU1@@Z
??$construct@Umy_option@@AAU1@@?$allocator_traits@V?$allocator@Umy_option@@@std@@@std@@SAXAAV?$allocator@Umy_option@@@1@PAUmy_option@@AAU3@@Z
??$forward@ABUmy_option@@@std@@YAABUmy_option@@ABU1@@Z
??$construct@Umy_option@@ABU1@@?$allocator_traits@V?$allocator@Umy_option@@@std@@@std@@SAXAAV?$allocator@Umy_option@@@1@PAUmy_option@@ABU3@@Z
??$destroy@Umy_option@@@?$allocator_traits@V?$allocator@Umy_option@@@std@@@std@@SAXAAV?$allocator@Umy_option@@@1@PAUmy_option@@@Z
??$swap@PAUmy_option@@@std@@YAXAAPAUmy_option@@0@Z
??$forward@V?$_Tree_const_iterator@V?$_Tree_val@U?$_Tree_simple_types@PAVTHD@@@std@@@std@@@std@@@std@@YA$$QAV?$_Tree_const_iterator@V?$_Tree_val@U?$_Tree_simple_types@PAVTHD@@@std@@@std@@@0@AAV10@@Z
??$_Iter_cat@V?$_Tree_const_iterator@V?$_Tree_val@U?$_Tree_simple_types@PAVTHD@@@std@@@std@@@std@@@std@@YA?AUbidirectional_iterator_tag@0@ABV?$_Tree_const_iterator@V?$_Tree_val@U?$_Tree_simple_types@PAVTHD@@@std@@@std@@@0@@Z
??$_Distance2@V?$_Tree_const_iterator@V?$_Tree_val@U?$_Tree_simple_types@PAVTHD@@@std@@@std@@@std@@I@std@@YAXV?$_Tree_const_iterator@V?$_Tree_val@U?$_Tree_simple_types@PAVTHD@@@std@@@std@@@0@0AAIUbidirectional_iterator_tag@0@@Z
??$forward@ABQAVTHD@@@std@@YAABQAVTHD@@ABQAV1@@Z
??$_Buynode@ABQAVTHD@@@?$_List_buy@PAVTHD@@V?$allocator@PAVTHD@@@std@@@std@@QAEPAU?$_List_node@PAVTHD@@PAX@1@PAU21@0ABQAVTHD@@@Z
??$insert@V?$move_iterator@V?$_Vector_iterator@V?$_Vector_val@U?$_Simple_types@Umy_option@@@std@@@std@@@std@@@std@@@?$vector@Umy_option@@V?$allocator@Umy_option@@@std@@@std@@QAE?AV?$_Vector_iterator@V?$_Vector_val@U?$_Simple_types@Umy_option@@@std@@@std@@@1@V?$_Vector_const_iterator@V?$_Vector_val@U?$_Simple_types@Umy_option@@@std@@@std@@@1@V?$move_iterator@V?$_Vector_iterator@V?$_Vector_val@U?$_Simple_types@Umy_option@@@std@@@std@@@std@@@1@1@Z
??$_Uninitialized_move@PAUmy_option@@PAU1@U?$_Wrap_alloc@V?$allocator@Umy_option@@@std@@@std@@@std@@YAPAUmy_option@@PAU1@00AAU?$_Wrap_alloc@V?$allocator@Umy_option@@@std@@@0@@Z
??$swap@PAU_Container_proxy@std@@@std@@YAXAAPAU_Container_proxy@0@0@Z
??$?8V?$allocator@U?$_Tree_node@PAVTHD@@PAX@std@@@std@@V01@@std@@YA_NABU?$_Wrap_alloc@V?$allocator@U?$_Tree_node@PAVTHD@@PAX@std@@@std@@@0@0@Z
??$?8U?$_Tree_node@PAVTHD@@PAX@std@@U01@@std@@YA_NABV?$allocator@U?$_Tree_node@PAVTHD@@PAX@std@@@0@0@Z
??$_Copy_nodes@U?$integral_constant@_N$0A@@std@@@?$_Tree@V?$_Tset_traits@PAVTHD@@U?$less@PAVTHD@@@std@@V?$allocator@PAVTHD@@@3@$0A@@std@@@std@@IAEPAU?$_Tree_node@PAVTHD@@PAX@1@PAU21@0U?$integral_constant@_N$0A@@1@@Z
??$_Insert_at@ABQAVTHD@@U_Nil@std@@@?$_Tree@V?$_Tset_traits@PAVTHD@@U?$less@PAVTHD@@@std@@V?$allocator@PAVTHD@@@3@$0A@@std@@@std@@IAE?AV?$_Tree_const_iterator@V?$_Tree_val@U?$_Tree_simple_types@PAVTHD@@@std@@@std@@@1@_NPAU?$_Tree_node@PAVTHD@@PAX@1@ABQAVTHD@@U_Nil@1@@Z
??$?0V?$_Tree_const_iterator@V?$_Tree_val@U?$_Tree_simple_types@PAVTHD@@@std@@@std@@@std@@_N@?$pair@V?$_Tree_const_iterator@V?$_Tree_val@U?$_Tree_simple_types@PAVTHD@@@std@@@std@@@std@@_N@std@@QAE@$$QAV?$_Tree_const_iterator@V?$_Tree_val@U?$_Tree_simple_types@PAVTHD@@@std@@@std@@@1@$$QA_NPAPAX@Z
??$?0AAV?$_Tree_const_iterator@V?$_Tree_val@U?$_Tree_simple_types@PAVTHD@@@std@@@std@@@std@@_N@?$pair@V?$_Tree_const_iterator@V?$_Tree_val@U?$_Tree_simple_types@PAVTHD@@@std@@@std@@@std@@_N@std@@QAE@AAV?$_Tree_const_iterator@V?$_Tree_val@U?$_Tree_simple_types@PAVTHD@@@std@@@std@@@1@$$QA_NPAPAX@Z
??$_Ptr_cat@Umy_option@@U1@@std@@YA?AU_Nonscalar_ptr_iterator_tag@0@PAUmy_option@@0@Z
??$_Destroy_range@U?$_Wrap_alloc@V?$allocator@Umy_option@@@std@@@std@@@std@@YAXPAUmy_option@@0AAU?$_Wrap_alloc@V?$allocator@Umy_option@@@std@@@0@U_Nonscalar_ptr_iterator_tag@0@@Z
??$forward@U_Container_proxy@std@@@std@@YA$$QAU_Container_proxy@0@AAU10@@Z
??$_Move@AAD@std@@YA$$QADAAD@Z
??$destroy@PAVTHD@@@?$allocator_traits@V?$allocator@U?$_Tree_node@PAVTHD@@PAX@std@@@std@@@std@@SAXAAV?$allocator@U?$_Tree_node@PAVTHD@@PAX@std@@@1@PAPAVTHD@@@Z
??$forward@AAV?$_Tree_const_iterator@V?$_Tree_val@U?$_Tree_simple_types@PAVTHD@@@std@@@std@@@std@@@std@@YAAAV?$_Tree_const_iterator@V?$_Tree_val@U?$_Tree_simple_types@PAVTHD@@@std@@@std@@@0@AAV10@@Z
??$destroy@U_Container_proxy@std@@@?$allocator_traits@V?$allocator@U_Container_proxy@std@@@std@@@std@@SAXAAV?$allocator@U_Container_proxy@std@@@1@PAU_Container_proxy@1@@Z
??$destroy@PAU?$_Tree_node@PAVTHD@@PAX@std@@@?$allocator_traits@V?$allocator@U?$_Tree_node@PAVTHD@@PAX@std@@@std@@@std@@SAXAAV?$allocator@U?$_Tree_node@PAVTHD@@PAX@std@@@1@PAPAU?$_Tree_node@PAVTHD@@PAX@1@@Z
??$destroy@PAU?$_List_node@PAVTHD@@PAX@std@@@?$allocator_traits@V?$allocator@U?$_List_node@PAVTHD@@PAX@std@@@std@@@std@@SAXAAV?$allocator@U?$_List_node@PAVTHD@@PAX@std@@@1@PAPAU?$_List_node@PAVTHD@@PAX@1@@Z
??$destroy@PAVTHD@@@?$allocator_traits@V?$allocator@U?$_List_node@PAVTHD@@PAX@std@@@std@@@std@@SAXAAV?$allocator@U?$_List_node@PAVTHD@@PAX@std@@@1@PAPAVTHD@@@Z
??$construct@U_Container_proxy@std@@U12@@?$allocator_traits@V?$allocator@U_Container_proxy@std@@@std@@@std@@SAXAAV?$allocator@U_Container_proxy@std@@@1@PAU_Container_proxy@1@$$QAU31@@Z
??$forward@AAPAU?$_List_node@PAVTHD@@PAX@std@@@std@@YAAAPAU?$_List_node@PAVTHD@@PAX@0@AAPAU10@@Z
??$construct@PAU?$_List_node@PAVTHD@@PAX@std@@AAPAU12@@?$allocator_traits@V?$allocator@U?$_List_node@PAVTHD@@PAX@std@@@std@@@std@@SAXAAV?$allocator@U?$_List_node@PAVTHD@@PAX@std@@@1@PAPAU?$_List_node@PAVTHD@@PAX@1@AAPAU31@@Z
??$forward@AAPAU?$_Tree_node@PAVTHD@@PAX@std@@@std@@YAAAPAU?$_Tree_node@PAVTHD@@PAX@0@AAPAU10@@Z
??$construct@PAU?$_Tree_node@PAVTHD@@PAX@std@@AAPAU12@@?$allocator_traits@V?$allocator@U?$_Tree_node@PAVTHD@@PAX@std@@@std@@@std@@SAXAAV?$allocator@U?$_Tree_node@PAVTHD@@PAX@std@@@1@PAPAU?$_Tree_node@PAVTHD@@PAX@1@AAPAU31@@Z
??$_Move@PAUmy_option@@PAU1@@std@@YAPAUmy_option@@PAU1@00@Z
??$_Iter_cat@V?$_Vector_iterator@V?$_Vector_val@U?$_Simple_types@Umy_option@@@std@@@std@@@std@@@std@@YA?AUrandom_access_iterator_tag@0@ABV?$_Vector_iterator@V?$_Vector_val@U?$_Simple_types@Umy_option@@@std@@@std@@@0@@Z
??$_Debug_range2@V?$_Vector_iterator@V?$_Vector_val@U?$_Simple_types@Umy_option@@@std@@@std@@@std@@@std@@YAXV?$_Vector_iterator@V?$_Vector_val@U?$_Simple_types@Umy_option@@@std@@@std@@@0@0PB_WIUrandom_access_iterator_tag@0@@Z
??$_Unguarded_partition@PAUmy_option@@U?$less@Umy_option@@@std@@@std@@YA?AU?$pair@PAUmy_option@@PAU1@@0@PAUmy_option@@0U?$less@Umy_option@@@0@@Z
??$?0PAUmy_option@@PAU0@@?$pair@PAUmy_option@@PAU1@@std@@QAE@$$QAU01@PAPAX@Z
??$make_heap@PAUmy_option@@U?$less@Umy_option@@@std@@@std@@YAXPAUmy_option@@0U?$less@Umy_option@@@0@@Z
??$sort_heap@PAUmy_option@@U?$less@Umy_option@@@std@@@std@@YAXPAUmy_option@@0U?$less@Umy_option@@@0@@Z
??$_Insertion_sort@PAUmy_option@@U?$less@Umy_option@@@std@@@std@@YAXPAUmy_option@@0U?$less@Umy_option@@@0@@Z
??$construct@Umy_option@@AAU1@@?$allocator@Umy_option@@@std@@QAEXPAUmy_option@@AAU2@@Z
??$destroy@Umy_option@@@?$allocator@Umy_option@@@std@@QAEXPAUmy_option@@@Z
??$_Move@AAPAUmy_option@@@std@@YA$$QAPAUmy_option@@AAPAU1@@Z
??$construct@PAVTHD@@ABQAV1@@?$_Wrap_alloc@V?$allocator@U?$_List_node@PAVTHD@@PAX@std@@@std@@@std@@QAEXPAPAVTHD@@ABQAV2@@Z
??$_Iter_cat@V?$move_iterator@V?$_Vector_iterator@V?$_Vector_val@U?$_Simple_types@Umy_option@@@std@@@std@@@std@@@std@@@std@@YA?AUrandom_access_iterator_tag@0@ABV?$move_iterator@V?$_Vector_iterator@V?$_Vector_val@U?$_Simple_types@Umy_option@@@std@@@std@@@std@@@0@@Z
??$_Insert@V?$move_iterator@V?$_Vector_iterator@V?$_Vector_val@U?$_Simple_types@Umy_option@@@std@@@std@@@std@@@std@@@?$vector@Umy_option@@V?$allocator@Umy_option@@@std@@@std@@QAEXV?$_Vector_const_iterator@V?$_Vector_val@U?$_Simple_types@Umy_option@@@std@@@std@@@1@V?$move_iterator@V?$_Vector_iterator@V?$_Vector_val@U?$_Simple_types@Umy_option@@@std@@@std@@@std@@@1@1Uforward_iterator_tag@1@@Z
??$_Val_type@PAUmy_option@@@std@@YAPAUmy_option@@PAU1@@Z
??$_Uninit_move@PAUmy_option@@PAU1@V?$allocator@Umy_option@@@std@@U1@@std@@YAPAUmy_option@@PAU1@00AAU?$_Wrap_alloc@V?$allocator@Umy_option@@@std@@@0@0U_Nonscalar_ptr_iterator_tag@0@@Z
??$_Move@AAPAU_Container_proxy@std@@@std@@YA$$QAPAU_Container_proxy@0@AAPAU10@@Z
??$_Copy_or_move@U?$integral_constant@_N$0A@@std@@U?$integral_constant@_N$00@2@@?$_Tree@V?$_Tset_traits@PAVTHD@@U?$less@PAVTHD@@@std@@V?$allocator@PAVTHD@@@3@$0A@@std@@@std@@IAEPAU?$_Tree_node@PAVTHD@@PAX@1@PAU21@U?$integral_constant@_N$0A@@1@U?$integral_constant@_N$00@1@@Z
??$_Buynode_if_nil@ABQAVTHD@@@?$_Tree@V?$_Tset_traits@PAVTHD@@U?$less@PAVTHD@@@std@@V?$allocator@PAVTHD@@@3@$0A@@std@@@std@@IAEPAU?$_Tree_node@PAVTHD@@PAX@1@U_Nil@1@ABQAVTHD@@@Z
??$destroy@PAVTHD@@@?$allocator@U?$_Tree_node@PAVTHD@@PAX@std@@@std@@QAEXPAPAVTHD@@@Z
??$destroy@PAU?$_Tree_node@PAVTHD@@PAX@std@@@?$allocator@U?$_Tree_node@PAVTHD@@PAX@std@@@std@@QAEXPAPAU?$_Tree_node@PAVTHD@@PAX@1@@Z
??$destroy@PAU?$_List_node@PAVTHD@@PAX@std@@@?$allocator@U?$_List_node@PAVTHD@@PAX@std@@@std@@QAEXPAPAU?$_List_node@PAVTHD@@PAX@1@@Z
??$destroy@PAVTHD@@@?$allocator@U?$_List_node@PAVTHD@@PAX@std@@@std@@QAEXPAPAVTHD@@@Z
??$construct@PAU?$_List_node@PAVTHD@@PAX@std@@AAPAU12@@?$allocator@U?$_List_node@PAVTHD@@PAX@std@@@std@@QAEXPAPAU?$_List_node@PAVTHD@@PAX@1@AAPAU21@@Z
??$construct@PAU?$_Tree_node@PAVTHD@@PAX@std@@AAPAU12@@?$allocator@U?$_Tree_node@PAVTHD@@PAX@std@@@std@@QAEXPAPAU?$_Tree_node@PAVTHD@@PAX@1@AAPAU21@@Z
??$_Move@PAUmy_option@@PAU1@@std@@YAPAUmy_option@@PAU1@00U_Nonscalar_ptr_iterator_tag@0@@Z
??$_Debug_pointer@V?$_Vector_iterator@V?$_Vector_val@U?$_Simple_types@Umy_option@@@std@@@std@@@std@@@std@@YAXAAV?$_Vector_iterator@V?$_Vector_val@U?$_Simple_types@Umy_option@@@std@@@std@@@0@PB_WI@Z
??$_Median@PAUmy_option@@U?$less@Umy_option@@@std@@@std@@YAXPAUmy_option@@00U?$less@Umy_option@@@0@@Z
??$_Debug_lt_pred@U?$less@Umy_option@@@std@@Umy_option@@U3@@std@@YA_NU?$less@Umy_option@@@0@AAUmy_option@@1PB_WI@Z
??$iter_swap@PAUmy_option@@PAU1@@std@@YAXPAUmy_option@@0@Z
??$?0AAPAUmy_option@@AAPAU0@@?$pair@PAUmy_option@@PAU1@@std@@QAE@AAPAUmy_option@@0PAPAX@Z
??$forward@PAUmy_option@@@std@@YA$$QAPAUmy_option@@AAPAU1@@Z
??$_Debug_range@PAUmy_option@@@std@@YAXPAUmy_option@@0PB_WI@Z
??$_Unchecked@PAUmy_option@@@std@@YAPAUmy_option@@PAU1@@Z
??$_Dist_type@PAUmy_option@@@std@@YAPAHPAUmy_option@@@Z
??$_Make_heap@PAUmy_option@@HU1@U?$less@Umy_option@@@std@@@std@@YAXPAUmy_option@@0U?$less@Umy_option@@@0@PAH0@Z
??$_Debug_heap@PAUmy_option@@U?$less@Umy_option@@@std@@@std@@YAXPAUmy_option@@0U?$less@Umy_option@@@0@@Z
??$_Sort_heap@PAUmy_option@@U?$less@Umy_option@@@std@@@std@@YAXPAUmy_option@@0U?$less@Umy_option@@@0@@Z
??$_Insertion_sort1@PAUmy_option@@U?$less@Umy_option@@@std@@U1@@std@@YAXPAUmy_option@@0U?$less@Umy_option@@@0@0@Z
??$construct@PAVTHD@@ABQAV1@@?$allocator_traits@V?$allocator@U?$_List_node@PAVTHD@@PAX@std@@@std@@@std@@SAXAAV?$allocator@U?$_List_node@PAVTHD@@PAX@std@@@1@PAPAVTHD@@ABQAV3@@Z
??$_Debug_range@V?$move_iterator@V?$_Vector_iterator@V?$_Vector_val@U?$_Simple_types@Umy_option@@@std@@@std@@@std@@@std@@@std@@YAXV?$move_iterator@V?$_Vector_iterator@V?$_Vector_val@U?$_Simple_types@Umy_option@@@std@@@std@@@std@@@0@0PB_WI@Z
??$_Distance@V?$move_iterator@V?$_Vector_iterator@V?$_Vector_val@U?$_Simple_types@Umy_option@@@std@@@std@@@std@@@std@@I@std@@YAXV?$move_iterator@V?$_Vector_iterator@V?$_Vector_val@U?$_Simple_types@Umy_option@@@std@@@std@@@std@@@0@0AAI@Z
??$_Ucopy@V?$move_iterator@V?$_Vector_iterator@V?$_Vector_val@U?$_Simple_types@Umy_option@@@std@@@std@@@std@@@std@@@?$vector@Umy_option@@V?$allocator@Umy_option@@@std@@@std@@IAEPAUmy_option@@V?$move_iterator@V?$_Vector_iterator@V?$_Vector_val@U?$_Simple_types@Umy_option@@@std@@@std@@@std@@@1@0PAU2@@Z
??$rotate@PAUmy_option@@@std@@YAPAUmy_option@@PAU1@00@Z
??$_Debug_pointer@Umy_option@@@std@@YAXPAUmy_option@@PB_WI@Z
??$construct@Umy_option@@U1@@?$_Wrap_alloc@V?$allocator@Umy_option@@@std@@@std@@QAEXPAUmy_option@@$$QAU2@@Z
??$_Buynode@AAPAVTHD@@@?$_Tree_buy@PAVTHD@@V?$allocator@PAVTHD@@@std@@@std@@QAEPAU?$_Tree_node@PAVTHD@@PAX@1@AAPAVTHD@@@Z
??$_Buynode@ABQAVTHD@@@?$_Tree_buy@PAVTHD@@V?$allocator@PAVTHD@@@std@@@std@@QAEPAU?$_Tree_node@PAVTHD@@PAX@1@ABQAVTHD@@@Z
??$move@AAUmy_option@@@std@@YA$$QAUmy_option@@AAU1@@Z
??$_Med3@PAUmy_option@@U?$less@Umy_option@@@std@@@std@@YAXPAUmy_option@@00U?$less@Umy_option@@@0@@Z
??$swap@Umy_option@@@std@@YAXAAUmy_option@@0@Z
??$forward@AAPAUmy_option@@@std@@YAAAPAUmy_option@@AAPAU1@@Z
??$_Iter_cat@PAUmy_option@@@std@@YA?AUrandom_access_iterator_tag@0@ABQAUmy_option@@@Z
??$_Debug_range2@PAUmy_option@@@std@@YAXPAUmy_option@@0PB_WIUrandom_access_iterator_tag@0@@Z
??$_Move@AAUmy_option@@@std@@YA$$QAUmy_option@@AAU1@@Z
??$_Adjust_heap@PAUmy_option@@HU1@U?$less@Umy_option@@@std@@@std@@YAXPAUmy_option@@HH$$QAU1@U?$less@Umy_option@@@0@@Z
??$_Pop_heap@PAUmy_option@@U?$less@Umy_option@@@std@@@std@@YAXPAUmy_option@@0U?$less@Umy_option@@@0@@Z
??$_Move_backward@PAUmy_option@@PAU1@@std@@YAPAUmy_option@@PAU1@00@Z
??$construct@PAVTHD@@ABQAV1@@?$allocator@U?$_List_node@PAVTHD@@PAX@std@@@std@@QAEXPAPAVTHD@@ABQAV2@@Z
??$_Debug_range2@V?$move_iterator@V?$_Vector_iterator@V?$_Vector_val@U?$_Simple_types@Umy_option@@@std@@@std@@@std@@@std@@@std@@YAXV?$move_iterator@V?$_Vector_iterator@V?$_Vector_val@U?$_Simple_types@Umy_option@@@std@@@std@@@std@@@0@0PB_WIUrandom_access_iterator_tag@0@@Z
??$_Distance2@V?$move_iterator@V?$_Vector_iterator@V?$_Vector_val@U?$_Simple_types@Umy_option@@@std@@@std@@@std@@@std@@I@std@@YAXV?$move_iterator@V?$_Vector_iterator@V?$_Vector_val@U?$_Simple_types@Umy_option@@@std@@@std@@@std@@@0@0AAIUrandom_access_iterator_tag@0@@Z
??$_Uninitialized_copy@V?$move_iterator@V?$_Vector_iterator@V?$_Vector_val@U?$_Simple_types@Umy_option@@@std@@@std@@@std@@@std@@PAUmy_option@@U?$_Wrap_alloc@V?$allocator@Umy_option@@@std@@@2@@std@@YAPAUmy_option@@V?$move_iterator@V?$_Vector_iterator@V?$_Vector_val@U?$_Simple_types@Umy_option@@@std@@@std@@@std@@@0@0PAU1@AAU?$_Wrap_alloc@V?$allocator@Umy_option@@@std@@@0@@Z
??$_Rotate@PAUmy_option@@@std@@YAXPAUmy_option@@00Urandom_access_iterator_tag@0@@Z
??$distance@PAUmy_option@@@std@@YAHPAUmy_option@@0@Z
??$advance@PAUmy_option@@H@std@@YAXAAPAUmy_option@@H@Z
??$forward@Umy_option@@@std@@YA$$QAUmy_option@@AAU1@@Z
??$construct@Umy_option@@U1@@?$allocator_traits@V?$allocator@Umy_option@@@std@@@std@@SAXAAV?$allocator@Umy_option@@@1@PAUmy_option@@$$QAU3@@Z
??$forward@AAPAVTHD@@@std@@YAAAPAVTHD@@AAPAV1@@Z
??$construct@PAVTHD@@AAPAV1@@?$_Wrap_alloc@V?$allocator@U?$_Tree_node@PAVTHD@@PAX@std@@@std@@@std@@QAEXPAPAVTHD@@AAPAV2@@Z
??$construct@PAVTHD@@ABQAV1@@?$_Wrap_alloc@V?$allocator@U?$_Tree_node@PAVTHD@@PAX@std@@@std@@@std@@QAEXPAPAVTHD@@ABQAV2@@Z
??$_Push_heap@PAUmy_option@@HU1@U?$less@Umy_option@@@std@@@std@@YAXPAUmy_option@@HH$$QAU1@U?$less@Umy_option@@@0@@Z
??$_Pop_heap_0@PAUmy_option@@U1@U?$less@Umy_option@@@std@@@std@@YAXPAUmy_option@@0U?$less@Umy_option@@@0@0@Z
??$_Move_backward@PAUmy_option@@PAU1@@std@@YAPAUmy_option@@PAU1@00U_Nonscalar_ptr_iterator_tag@0@@Z
??$?9V?$_Vector_iterator@V?$_Vector_val@U?$_Simple_types@Umy_option@@@std@@@std@@@std@@V01@@std@@YA_NABV?$move_iterator@V?$_Vector_iterator@V?$_Vector_val@U?$_Simple_types@Umy_option@@@std@@@std@@@std@@@0@0@Z
??$_Debug_pointer@V?$move_iterator@V?$_Vector_iterator@V?$_Vector_val@U?$_Simple_types@Umy_option@@@std@@@std@@@std@@@std@@@std@@YAXAAV?$move_iterator@V?$_Vector_iterator@V?$_Vector_val@U?$_Simple_types@Umy_option@@@std@@@std@@@std@@@0@PB_WI@Z
??$?MV?$_Vector_iterator@V?$_Vector_val@U?$_Simple_types@Umy_option@@@std@@@std@@@std@@V01@@std@@YA_NABV?$move_iterator@V?$_Vector_iterator@V?$_Vector_val@U?$_Simple_types@Umy_option@@@std@@@std@@@std@@@0@0@Z
??$?GV?$_Vector_iterator@V?$_Vector_val@U?$_Simple_types@Umy_option@@@std@@@std@@@std@@V01@@std@@YAHAAV?$move_iterator@V?$_Vector_iterator@V?$_Vector_val@U?$_Simple_types@Umy_option@@@std@@@std@@@std@@@0@ABV10@@Z
??$_Ptr_cat@V?$move_iterator@V?$_Vector_iterator@V?$_Vector_val@U?$_Simple_types@Umy_option@@@std@@@std@@@std@@@std@@PAUmy_option@@@std@@YA?AU_Nonscalar_ptr_iterator_tag@0@AAV?$move_iterator@V?$_Vector_iterator@V?$_Vector_val@U?$_Simple_types@Umy_option@@@std@@@std@@@std@@@0@AAPAUmy_option@@@Z
??$_Uninit_copy@V?$move_iterator@V?$_Vector_iterator@V?$_Vector_val@U?$_Simple_types@Umy_option@@@std@@@std@@@std@@@std@@PAUmy_option@@V?$allocator@Umy_option@@@2@@std@@YAPAUmy_option@@V?$move_iterator@V?$_Vector_iterator@V?$_Vector_val@U?$_Simple_types@Umy_option@@@std@@@std@@@std@@@0@0PAU1@AAU?$_Wrap_alloc@V?$allocator@Umy_option@@@std@@@0@U_Nonscalar_ptr_iterator_tag@0@@Z
??$_Rotate@PAUmy_option@@HU1@@std@@YAXPAUmy_option@@00PAH0@Z
??$_Distance2@PAUmy_option@@H@std@@YAXPAUmy_option@@0AAHUrandom_access_iterator_tag@0@@Z
??$_Advance@PAUmy_option@@H@std@@YAXAAPAUmy_option@@HUrandom_access_iterator_tag@0@@Z
??$construct@Umy_option@@U1@@?$allocator@Umy_option@@@std@@QAEXPAUmy_option@@$$QAU2@@Z
??$construct@PAVTHD@@AAPAV1@@?$allocator_traits@V?$allocator@U?$_Tree_node@PAVTHD@@PAX@std@@@std@@@std@@SAXAAV?$allocator@U?$_Tree_node@PAVTHD@@PAX@std@@@1@PAPAVTHD@@AAPAV3@@Z
??$construct@PAVTHD@@ABQAV1@@?$allocator_traits@V?$allocator@U?$_Tree_node@PAVTHD@@PAX@std@@@std@@@std@@SAXAAV?$allocator@U?$_Tree_node@PAVTHD@@PAX@std@@@1@PAPAVTHD@@ABQAV3@@Z
??$_Pop_heap@PAUmy_option@@HU1@U?$less@Umy_option@@@std@@@std@@YAXPAUmy_option@@00$$QAU1@U?$less@Umy_option@@@0@PAH@Z
??$?8V?$_Vector_iterator@V?$_Vector_val@U?$_Simple_types@Umy_option@@@std@@@std@@@std@@V01@@std@@YA_NABV?$move_iterator@V?$_Vector_iterator@V?$_Vector_val@U?$_Simple_types@Umy_option@@@std@@@std@@@std@@@0@0@Z
??$_Less@V?$_Vector_iterator@V?$_Vector_val@U?$_Simple_types@Umy_option@@@std@@@std@@@std@@@?$move_iterator@V?$_Vector_iterator@V?$_Vector_val@U?$_Simple_types@Umy_option@@@std@@@std@@@std@@@std@@QBE_NABV01@@Z
??$construct@PAVTHD@@AAPAV1@@?$allocator@U?$_Tree_node@PAVTHD@@PAX@std@@@std@@QAEXPAPAVTHD@@AAPAV2@@Z
??$construct@PAVTHD@@ABQAV1@@?$allocator@U?$_Tree_node@PAVTHD@@PAX@std@@@std@@QAEXPAPAVTHD@@ABQAV2@@Z
??$_Equal@V?$_Vector_iterator@V?$_Vector_val@U?$_Simple_types@Umy_option@@@std@@@std@@@std@@@?$move_iterator@V?$_Vector_iterator@V?$_Vector_val@U?$_Simple_types@Umy_option@@@std@@@std@@@std@@@std@@QBE_NABV01@@Z
?decimal_zero@@3Vmy_decimal@@A DATA
?key_map_empty@@3V?$Bitmap@$0EA@@@B DATA
?key_map_full@@3V?$Bitmap@$0EA@@@A DATA
?query_cache@@3VQuery_cache@@A DATA
?file_parser_dummy_hook@@3VFile_parser_dummy_hook@@A DATA
?eq_creator@@3VEq_creator@@A DATA
?ne_creator@@3VNe_creator@@A DATA
?gt_creator@@3VGt_creator@@A DATA
?lt_creator@@3VLt_creator@@A DATA
?ge_creator@@3VGe_creator@@A DATA
?le_creator@@3VLe_creator@@A DATA
?err_log_throttle@@3VError_log_throttle@@A DATA
?all_options@@3V?$vector@Umy_option@@V?$allocator@Umy_option@@@std@@@std@@A DATA
?all_events_stages@@3PAPAUPSI_stage_info_v1@@A DATA
?key_LOCK_event_queue@@3IA DATA
?key_COND_queue_state@@3IA DATA
?key_event_scheduler_LOCK_scheduler_state@@3IA DATA
?key_event_scheduler_COND_state@@3IA DATA
?key_thread_event_scheduler@@3IA DATA
?key_thread_event_worker@@3IA DATA
?stage_waiting_on_empty_queue@@3UPSI_stage_info_v1@@A DATA
?stage_waiting_for_next_activation@@3UPSI_stage_info_v1@@A DATA
?stage_waiting_for_scheduler_to_stop@@3UPSI_stage_info_v1@@A DATA
?opt_event_scheduler@Events@@2KA DATA
?event_queue@Events@@0PAVEvent_queue@@A DATA
?scheduler@Events@@0PAVEvent_scheduler@@A DATA
?db_repository@Events@@0PAVEvent_db_repository@@A DATA
?check_system_tables_error@Events@@0_NA DATA
??2Sql_alloc@@SAPAXI@Z
?push_back@base_list@@QAE_NPAX@Z
?set@Simple_cstring@@IAEXPBDI@Z
??0Simple_cstring@@QAE@PBDI@Z
??0String@@QAE@PADIPBUcharset_info_st@@@Z
?length@String@@QAEXI@Z
?append@String@@QAE_ND@Z
?get_client_cs@Default_object_creation_ctx@@QAEPBUcharset_info_st@@XZ
?get_connection_cl@Default_object_creation_ctx@@QAEPBUcharset_info_st@@XZ
??0?$List@VItem@@@@QAE@XZ
?push_back@?$List@VItem@@@@QAE_NPAVItem@@@Z
??1?$List@VItem@@@@QAE@XZ
?is_infoschema_db@@YA_NPBD@Z
??0Name_string@@QAE@PBDI@Z
??0Item_name_string@@QAE@VName_string@@@Z
??2Item@@SAPAXI@Z
??0Item_basic_constant@@QAE@XZ
?used_tables@Item_basic_constant@@UBE_KXZ
?cleanup@Item_basic_constant@@UAEXXZ
??1Item_basic_constant@@UAE@XZ
??0Item_string@@QAE@VName_string@@PBDIPBUcharset_info_st@@W4Derivation@@I@Z
?type@Item_string@@UBE?AW4Type@Item@@XZ
?val_str@Item_string@@UAEPAVString@@PAV2@@Z
?get_date@Item_string@@UAE_NPAUst_mysql_time@@I@Z
?get_time@Item_string@@UAE_NPAUst_mysql_time@@@Z
?result_type@Item_string@@UBE?AW4Item_result@@XZ
?field_type@Item_string@@UBE?AW4enum_field_types@@XZ
?basic_const_item@Item_string@@UBE_NXZ
?clone_item@Item_string@@UAEPAVItem@@XZ
?check_partition_func_processor@Item_string@@UAE_NPAE@Z
??1Item_string@@UAE@XZ
??0Item_partition_func_safe_string@@QAE@VName_string@@IPBUcharset_info_st@@@Z
??1Item_partition_func_safe_string@@UAE@XZ
??0Item_empty_string@@QAE@PBDIPBUcharset_info_st@@@Z
??1Item_empty_string@@UAE@XZ
?query@Statement@@QBEPADXZ
?query_length@Statement@@QBEIXZ
?is_current_stmt_binlog_format_row@THD@@QBEHXZ
?set_row_count_func@THD@@QAEX_J@Z
?set_time@THD@@QAEXXZ
?set_current_stmt_binlog_format_row@THD@@QAEXXZ
?clear_current_stmt_binlog_format_row@THD@@QAEXXZ
?my_eof@@YAXPAVTHD@@@Z
?sortcmp_lex_string@@YAHUst_mysql_lex_string@@0PAUcharset_info_st@@@Z
?check_if_system_tables_error@Events@@SA_NXZ
?start@Events@@SA_NPAH@Z
?stop@Events@@SA_NXZ
?init@Events@@SA_ND@Z
?deinit@Events@@SAXXZ
?init_mutexes@Events@@SAXXZ
?create_event@Events@@SA_NPAVTHD@@PAVEvent_parse_data@@_N@Z
?update_event@Events@@SA_NPAVTHD@@PAVEvent_parse_data@@PAUst_mysql_lex_string@@2@Z
?drop_event@Events@@SA_NPAVTHD@@Ust_mysql_lex_string@@1_N@Z
?drop_schema_events@Events@@SAXPAVTHD@@PAD@Z
?show_create_event@Events@@SA_NPAVTHD@@Ust_mysql_lex_string@@1@Z
?reconstruct_interval_expression@Events@@SAHPAVString@@W4interval_type@@_J@Z
?fill_schema_events@Events@@SAHPAVTHD@@PAUTABLE_LIST@@PAVItem@@@Z
?dump_internal_status@Events@@SAXXZ
?load_events_from_db@Events@@CA_NPAVTHD@@@Z
??0READ_RECORD@@QAE@XZ
??0Event_db_repository@@QAE@XZ
?init@Event_worker_thread@@SAXPAVEvent_db_repository@@@Z
?get_db_cl@Stored_program_creation_ctx@@QAEPBUcharset_info_st@@XZ
?db_repository@Event_worker_thread@@0PAVEvent_db_repository@@A DATA
?inc_thread_running@@YAHXZ
?dec_thread_running@@YAHXZ
?get_level@Sql_condition@@QBE?AW4enum_warning_level@1@XZ
?is_empty@?$I_P_List@VSql_condition@@U?$I_P_List_adapter@VSql_condition@@$0OM@$0PA@@@VI_P_List_counter@@V?$I_P_List_fast_push_back@VSql_condition@@@@@@QBE_NXZ
?is_empty@Warning_info@@ABE_NXZ
?is_warning_info_empty@Diagnostics_area@@QBE_NXZ
?sql_conditions@Diagnostics_area@@QBE?AV?$I_P_List_iterator@$$CBVSql_condition@@V?$I_P_List@VSql_condition@@U?$I_P_List_adapter@VSql_condition@@$0OM@$0PA@@@VI_P_List_counter@@V?$I_P_List_fast_push_back@VSql_condition@@@@@@@@XZ
??0?$I_P_List_iterator@$$CBVSql_condition@@V?$I_P_List@VSql_condition@@U?$I_P_List_adapter@VSql_condition@@$0OM@$0PA@@@VI_P_List_counter@@V?$I_P_List_fast_push_back@VSql_condition@@@@@@@@QAE@ABV?$I_P_List@VSql_condition@@U?$I_P_List_adapter@VSql_condition@@$0OM@$0PA@@@VI_P_List_counter@@V?$I_P_List_fast_push_back@VSql_condition@@@@@@@Z
??E?$I_P_List_iterator@$$CBVSql_condition@@V?$I_P_List@VSql_condition@@U?$I_P_List_adapter@VSql_condition@@$0OM@$0PA@@@VI_P_List_counter@@V?$I_P_List_fast_push_back@VSql_condition@@@@@@@@QAEPBVSql_condition@@H@Z
?pre_init_event_thread@@YAXPAVTHD@@@Z
?post_init_event_thread@@YA_NPAVTHD@@@Z
?deinit_event_thread@@YAXPAVTHD@@@Z
?run@Event_worker_thread@@QAEXPAVTHD@@PAVEvent_queue_element_for_exec@@@Z
?print_warnings@Event_worker_thread@@AAEXPAVTHD@@PAVEvent_job_data@@@Z
??0Event_scheduler@@QAE@PAVEvent_queue@@@Z
??1Event_scheduler@@QAE@XZ
?start@Event_scheduler@@QAE_NPAH@Z
?stop@Event_scheduler@@QAE_NXZ
?run@Event_scheduler@@QAE_NPAVTHD@@@Z
?is_running@Event_scheduler@@QAE_NXZ
?dump_internal_status@Event_scheduler@@QAEXXZ
?workers_count@Event_scheduler@@AAEIXZ
?execute_top@Event_scheduler@@AAE_NPAVEvent_queue_element_for_exec@@@Z
?lock_data@Event_scheduler@@AAEXPBDI@Z
?unlock_data@Event_scheduler@@AAEXPBDI@Z
?cond_wait@Event_scheduler@@AAEXPAVTHD@@PAUtimespec@@PBUPSI_stage_info_v1@@PBD3I@Z
??1Event_job_data@@UAE@XZ
event_scheduler_thread
event_worker_thread
?next_ptr@?$I_P_List_adapter@VSql_condition@@$0OM@$0PA@@@SAPBQBVSql_condition@@PBV2@@Z
??0Event_queue@@QAE@XZ
??1Event_queue@@QAE@XZ
?init_queue@Event_queue@@QAE_NPAVTHD@@@Z
?create_event@Event_queue@@QAE_NPAVTHD@@PAVEvent_queue_element@@PA_N@Z
?update_event@Event_queue@@QAEXPAVTHD@@Ust_mysql_lex_string@@1PAVEvent_queue_element@@@Z
?drop_event@Event_queue@@QAEXPAVTHD@@Ust_mysql_lex_string@@1@Z
?drop_schema_events@Event_queue@@QAEXPAVTHD@@Ust_mysql_lex_string@@@Z
?recalculate_activation_times@Event_queue@@QAEXPAVTHD@@@Z
?get_top_for_execution_if_time@Event_queue@@QAE_NPAVTHD@@PAPAVEvent_queue_element_for_exec@@@Z
?dump_internal_status@Event_queue@@QAEXXZ
?empty_queue@Event_queue@@AAEXXZ
?deinit_queue@Event_queue@@AAEXXZ
?lock_data@Event_queue@@AAEXPBDI@Z
?unlock_data@Event_queue@@AAEXPBDI@Z
?cond_wait@Event_queue@@AAEXPAVTHD@@PAUtimespec@@PBUPSI_stage_info_v1@@PBD3I@Z
?find_n_remove_event@Event_queue@@AAEXUst_mysql_lex_string@@0@Z
?drop_matching_events@Event_queue@@AAEXPAVTHD@@Ust_mysql_lex_string@@P6A_N1PAVEvent_basic@@@Z@Z
?dbug_dump_queue@Event_queue@@AAEX_J@Z
??0Event_queue_element_for_exec@@QAE@XZ
?get_db_repository@Events@@SAPAVEvent_db_repository@@XZ
?set_current_time@THD@@QAEXXZ
event_queue_element_compare_q
?alloc@String@@QAE_NI@Z
?alloc@Query_arena@@QAEPAXI@Z
?strmake@Query_arena@@QAEPADPBDI@Z
?new_instance@Event_parse_data@@SAPAV1@PAVTHD@@@Z
?check_parse_data@Event_parse_data@@QAE_NPAVTHD@@@Z
?check_dates@Event_parse_data@@QAE_NPAVTHD@@H@Z
?init_definer@Event_parse_data@@AAEXPAVTHD@@@Z
?init_name@Event_parse_data@@AAEXPAVTHD@@PAVsp_name@@@Z
?init_execute_at@Event_parse_data@@AAEHPAVTHD@@@Z
?init_interval@Event_parse_data@@AAEHPAVTHD@@@Z
?init_starts@Event_parse_data@@AAEHPAVTHD@@@Z
?init_ends@Event_parse_data@@AAEHPAVTHD@@@Z
??0Event_parse_data@@AAE@XZ
?report_bad_value@Event_parse_data@@AAEXPBDPAVItem@@@Z
?check_if_in_the_past@Event_parse_data@@AAEXPAVTHD@@J@Z
?check_originator_id@Event_parse_data@@AAEXPAVTHD@@@Z
??0MDL_key@@QAE@XZ
??0MDL_request@@QAE@XZ
??0MDL_savepoint@@QAE@XZ
??0MDL_savepoint@@AAE@PAVMDL_ticket@@0@Z
?front@?$I_P_List@VMDL_ticket@@U?$I_P_List_adapter@VMDL_ticket@@$03$07@@VI_P_List_null_counter@@V?$I_P_List_no_push_back@VMDL_ticket@@@@@@QAEPAVMDL_ticket@@XZ
?mdl_savepoint@MDL_context@@QAE?AVMDL_savepoint@@XZ
??0Table_id@@QAE@XZ
??0Table_check_intact@@QAE@XZ
??1Table_check_intact@@UAE@XZ
?column_bitmaps_set@TABLE@@QAEXPAUst_bitmap@@0@Z
?use_all_columns@TABLE@@QAEXXZ
??0TABLE_LIST@@QAE@XZ
?init_one_table@TABLE_LIST@@QAEXPBDI0I0W4thr_lock_type@@@Z
??0?$List@VDerived_key@@@@QAE@XZ
??1?$List@VDerived_key@@@@QAE@XZ
??1TABLE_LIST@@QAE@XZ
?store_time@Field@@QAE?AW4type_conversion_status@@PAUst_mysql_time@@@Z
?set_null@Field@@QAEXJ@Z
?set_notnull@Field@@QAEXJ@Z
?real_maybe_null@Field@@QBE_NXZ
??0?$Dynamic_array@PAVReprepare_observer@@@@QAE@II@Z
?init@?$Dynamic_array@PAVReprepare_observer@@@@QAEXII@Z
??1?$Dynamic_array@PAVReprepare_observer@@@@QAE@XZ
??0Open_tables_state@@QAE@XZ
??1Open_tables_state@@QAE@XZ
??0Open_tables_backup@@QAE@XZ
??1Open_tables_backup@@QAE@XZ
??1Prelocking_strategy@@UAE@XZ
??0Prelocking_strategy@@QAE@XZ
??0DML_prelocking_strategy@@QAE@XZ
??1DML_prelocking_strategy@@UAE@XZ
?open_and_lock_tables@@YA_NPAVTHD@@PAUTABLE_LIST@@_NI@Z
?create_event@Event_db_repository@@QAE_NPAVTHD@@PAVEvent_parse_data@@_NPA_N@Z
?update_event@Event_db_repository@@QAE_NPAVTHD@@PAVEvent_parse_data@@PAUst_mysql_lex_string@@2@Z
?drop_event@Event_db_repository@@QAE_NPAVTHD@@Ust_mysql_lex_string@@1_N@Z
?drop_schema_events@Event_db_repository@@QAEXPAVTHD@@Ust_mysql_lex_string@@@Z
?find_named_event@Event_db_repository@@QAE_NUst_mysql_lex_string@@0PAUTABLE@@@Z
?load_named_event@Event_db_repository@@QAE_NPAVTHD@@Ust_mysql_lex_string@@1PAVEvent_basic@@@Z
?open_event_table@Event_db_repository@@SA_NPAVTHD@@W4thr_lock_type@@PAPAUTABLE@@@Z
?fill_schema_events@Event_db_repository@@QAE_NPAVTHD@@PAUTABLE_LIST@@PBD@Z
?update_timing_fields_for_event@Event_db_repository@@QAE_NPAVTHD@@Ust_mysql_lex_string@@1J_K@Z
?check_system_tables@Event_db_repository@@SA_NPAVTHD@@@Z
?index_read_for_db_for_i_s@Event_db_repository@@AAE_NPAVTHD@@PAUTABLE@@1PBD@Z
?table_scan_all_for_i_s@Event_db_repository@@AAE_NPAVTHD@@PAUTABLE@@1@Z
?report_error@Event_db_intact@@MAAXIPBDZZ
??0Event_db_intact@@QAE@XZ
??1Event_db_intact@@UAE@XZ
??0String@@QAE@PBDPBUcharset_info_st@@@Z
?set@String@@QAEXPADIPBUcharset_info_st@@@Z
??1Object_creation_ctx@@UAE@XZ
??1Default_object_creation_ctx@@UAE@XZ
?val_str@Field@@QAEPAVString@@PAV2@@Z
?is_null@Field@@QBE_NJ@Z
??0Lex_input_stream@@QAE@XZ
??1Lex_input_stream@@QAE@XZ
??0Set_signal_information@@QAE@XZ
??1Set_signal_information@@QAE@XZ
??0Yacc_state@@QAE@XZ
?reset@Yacc_state@@QAEXXZ
??0Parser_input@@QAE@XZ
??0Parser_state@@QAE@XZ
?init@Parser_state@@QAE_NPAVTHD@@PADI@Z
??1Parser_state@@QAE@XZ
??0Security_context@@QAE@XZ
??1Security_context@@QAE@XZ
?set_db@THD@@QAE_NPBDI@Z
?set_query@THD@@QAEXPADI@Z
?reset_query@THD@@QAEXXZ
??0Stored_program_creation_ctx@@IAE@PBUcharset_info_st@@00@Z
?change_env@Stored_program_creation_ctx@@MBEXPAVTHD@@@Z
??1Stored_program_creation_ctx@@UAE@XZ
?set_creation_ctx@sp_head@@QAEXPAVStored_program_creation_ctx@@@Z
??1Event_queue_element_for_exec@@QAE@XZ
?init@Event_queue_element_for_exec@@QAE_NUst_mysql_lex_string@@0@Z
??0Event_basic@@QAE@XZ
??1Event_basic@@UAE@XZ
?load_string_fields@Event_basic@@IAA_NPAPAVField@@ZZ
?load_time_zone@Event_basic@@IAE_NPAVTHD@@Ust_mysql_lex_string@@@Z
??0Event_queue_element@@QAE@XZ
??1Event_queue_element@@UAE@XZ
?load_from_row@Event_queue_element@@UAE_NPAVTHD@@PAUTABLE@@@Z
?compute_next_execution_time@Event_queue_element@@QAE_NXZ
?mark_last_executed@Event_queue_element@@QAEXPAVTHD@@@Z
??0Event_timed@@QAE@XZ
??1Event_timed@@UAE@XZ
?init@Event_timed@@QAEXXZ
?load_from_row@Event_timed@@UAE_NPAVTHD@@PAUTABLE@@@Z
?get_create_event@Event_timed@@QAEHPAVTHD@@PAVString@@@Z
??0Event_job_data@@QAE@XZ
?load_from_row@Event_job_data@@UAE_NPAVTHD@@PAUTABLE@@@Z
?execute@Event_job_data@@QAE_NPAVTHD@@_N@Z
?construct_sp_sql@Event_job_data@@AAE_NPAVTHD@@PAVString@@@Z
?construct_drop_event_sql@Event_job_data@@AAE_NPAVTHD@@PAVString@@@Z
?event_basic_db_equal@@YA_NUst_mysql_lex_string@@PAVEvent_basic@@@Z
?event_basic_identifier_equal@@YA_NUst_mysql_lex_string@@0PAVEvent_basic@@@Z
?append_identifier@@YAXPAVTHD@@PAVString@@PBDI@Z
?load_from_db@Event_creation_ctx@@SA_NPAVTHD@@PAUst_mem_root@@PBD2PAUTABLE@@PAPAVStored_program_creation_ctx@@@Z
?clone@Event_creation_ctx@@UAEPAVStored_program_creation_ctx@@PAUst_mem_root@@@Z
?create_backup_ctx@Event_creation_ctx@@MBEPAVObject_creation_ctx@@PAVTHD@@@Z
??0Event_creation_ctx@@AAE@PBUcharset_info_st@@00@Z
??1Event_creation_ctx@@UAE@XZ
sha256_password_auth_client
sha256_password_init
sha256_password_deinit
_net_field_length@4
_net_field_length_checked@8
net_field_length_ll
net_store_length
parse_user
log_10_int DATA
days_in_month DATA
my_zero_datetime6 DATA
check_date
str_to_datetime
number_to_datetime
number_to_time
TIME_to_ulonglong_datetime
TIME_to_ulonglong_date
TIME_to_ulonglong_time
TIME_to_ulonglong
year_to_longlong_datetime_packed
TIME_to_longlong_datetime_packed
TIME_to_longlong_date_packed
TIME_to_longlong_time_packed
TIME_to_longlong_packed
TIME_from_longlong_datetime_packed
TIME_from_longlong_time_packed
TIME_from_longlong_date_packed
TIME_set_yymmdd
TIME_set_hhmmss
my_datetime_packed_to_binary
my_datetime_packed_from_binary
my_datetime_binary_length
my_time_packed_to_binary
my_time_packed_from_binary
my_time_binary_length
my_timestamp_to_binary
my_timestamp_from_binary
my_timestamp_binary_length
str_to_time
check_time_mmssff_range
check_time_range_quick
check_datetime_range
adjust_time_range
calc_daynr
calc_days_in_year
year_2000_handling
my_init_time
my_system_gmt_sec
set_zero_time
set_max_time
set_max_hhmmss
my_time_to_str
my_date_to_str
my_datetime_to_str
my_TIME_to_str
my_timeval_to_str
is_file_or_dir_world_writable
mysql_client_plugin_init
mysql_client_plugin_deinit
mysql_load_plugin
mysql_load_plugin_v
mysql_client_find_plugin
mysql_client_register_plugin
mysql_plugin_options
charsets DATA
sql_protocol_names_lib DATA
mysql_port DATA
mysql_unix_port DATA
sql_protocol_typelib DATA
unknown_sqlstate DATA
cant_connect_sqlstate DATA
not_error_sqlstate DATA
cli_read_rows
default_client_charset_info DATA
cli_advanced_command
mysql_client_builtins DATA
libmysql_cleartext_plugin_enabled DATA
mysql_server_last_errno DATA
mysql_server_last_error DATA
cli_read_change_user_result
_mysql_num_rows@4
_mysql_num_fields@4
_mysql_errno@4
_mysql_error@4
_mysql_set_character_set@8
_mysql_init@4
_mysql_ssl_set@24
_mysql_get_ssl_cipher@4
_mysql_real_connect@32
_mysql_select_db@8
_mysql_send_query@12
_mysql_real_query@12
_mysql_store_result@4
_mysql_get_server_version@4
_mysql_options@12
_mysql_options4@16
_mysql_free_result@4
_mysql_fetch_row@4
_mysql_fetch_lengths@4
_mysql_close@4
unpack_fields
free_rows
free_old_query
end_server
mysql_reconnect
mysql_read_default_options
cli_safe_read
net_clear_error
set_mysql_error
set_mysql_extended_error
mpvio_info
run_plugin_auth
send_client_connect_attrs
my_net_is_inited
flush_one_result
opt_flush_ok_packet
mysql_init_character_set
write_length_encoded_string4
write_string
mysql_detach_stmt_list
get_attr_key
client_errors DATA
init_client_errs
finish_client_errs
get_client_errmsgs
?next@base_list_iterator@@QAEPAXXZ
?rewind@base_list_iterator@@QAEXXZ
??0?$Bitmap@$0EA@@@QAE@XZ
?init@?$Bitmap@$0EA@@@QAEXXZ
?clear_all@?$Bitmap@$0EA@@@QAEXXZ
?max_record_length@handler@@QBEIXZ
??$min@I@std@@YAABIABI0@Z
??0Filesort_buffer@@QAE@XZ
??0?$Bounds_checked_array@PAE@@QAE@XZ
??0Filesort_info@@QAE@XZ
??0TABLE_SHARE@@QAE@XZ
??0?$I_P_List_no_push_back@VWait_for_flush@@@@IAE@PAPAVWait_for_flush@@@Z
??0?$I_P_List@VWait_for_flush@@U?$I_P_List_adapter@VWait_for_flush@@$0BA@$0BE@@@VI_P_List_null_counter@@V?$I_P_List_no_push_back@VWait_for_flush@@@@@@QAE@XZ
??0TABLE@@QAE@XZ
?is_error@Diagnostics_area@@QBE_NXZ
?init@Field@@QAEXPAUTABLE@@@Z
?field_storage_type@Create_field@@QBE?AW4ha_storage_media@@XZ
?column_format@Create_field@@QBE?AW4column_format_type@@XZ
?mysql_create_frm@@YA_NPAVTHD@@PBD11PAUst_ha_create_information@@AAV?$List@VCreate_field@@@@IPAUst_key@@PAVhandler@@@Z
?rea_create_table@@YAHPAVTHD@@PBD11PAUst_ha_create_information@@AAV?$List@VCreate_field@@@@IPAUst_key@@PAVhandler@@_N@Z
??0Internal_error_handler@@IAE@XZ
??1Internal_error_handler@@MAE@XZ
?clear_error@THD@@QAEXXZ
?is_error@THD@@QBE_NXZ
?get_stmt_da@THD@@QBEPBVDiagnostics_area@@XZ
?handle_condition@Pack_header_error_handler@@UAE_NPAVTHD@@IPBDW4enum_warning_level@Sql_condition@@1PAPAV4@@Z
??0Pack_header_error_handler@@QAE@XZ
??1Pack_header_error_handler@@UAE@XZ
??0?$List_iterator@VCreate_field@@@@QAE@AAV?$List@VCreate_field@@@@@Z
??E?$List_iterator@VCreate_field@@@@QAEPAVCreate_field@@H@Z
?rewind@?$List_iterator@VCreate_field@@@@QAEXXZ
??$min@E@std@@YAABEABE0@Z
??$_Debug_lt@EE@std@@YA_NABE0PB_WI@Z
??0Sort_param@@QAE@XZ
?flush@Unique@@AAE_NXZ
??0Unique@@QAE@P6AHPBX00@ZPAXI_K@Z
??1Unique@@QAE@XZ
?get@Unique@@QAE_NPAUTABLE@@@Z
?get_use_cost@Unique@@SANPAIII_K@Z
?reset@Unique@@QAEXXZ
?walk@Unique@@QAE_NP6AHPAXI0@Z0@Z
?unique_write_to_file@@YAHPAEIPAVUnique@@@Z
?unique_write_to_ptrs@@YAHPAEIPAVUnique@@@Z
?log2_n_fact@@YANN@Z
?my_tz_UTC@@3PAVTime_zone@@A DATA
?my_tz_SYSTEM@@3PAVTime_zone@@A DATA
?my_tz_OFFSET0@@3PAVTime_zone@@A DATA
??0String@@QAE@PBDIPBUcharset_info_st@@@Z
?is_empty@String@@QBE_NXZ
?set@String@@QAEXPBDIPBUcharset_info_st@@@Z
?message@Diagnostics_area@@QBEPBDXZ
??0Time_zone@@QAE@XZ
??1Time_zone@@UAE@XZ
?adjust_leap_second@Time_zone@@KAXPAUst_mysql_time@@@Z
?my_tz_find@@YAPAVTime_zone@@PAVTHD@@PBVString@@@Z
?my_tz_init@@YADPAVTHD@@PBDD@Z
?my_tz_free@@YAXXZ
??$min@J@std@@YAABJABJ0@Z
??0Time_zone_system@@QAE@XZ
?TIME_to_gmt_sec@Time_zone_system@@UBEJPBUst_mysql_time@@PAD@Z
?gmt_sec_to_TIME@Time_zone_system@@UBEXPAUst_mysql_time@@J@Z
?get_name@Time_zone_system@@UBEPBVString@@XZ
??1Time_zone_system@@UAE@XZ
??0Time_zone_utc@@QAE@XZ
?TIME_to_gmt_sec@Time_zone_utc@@UBEJPBUst_mysql_time@@PAD@Z
?gmt_sec_to_TIME@Time_zone_utc@@UBEXPAUst_mysql_time@@J@Z
?get_name@Time_zone_utc@@UBEPBVString@@XZ
??1Time_zone_utc@@UAE@XZ
??0Time_zone_db@@QAE@PAUst_time_zone_info@@PBVString@@@Z
?TIME_to_gmt_sec@Time_zone_db@@UBEJPBUst_mysql_time@@PAD@Z
?gmt_sec_to_TIME@Time_zone_db@@UBEXPAUst_mysql_time@@J@Z
?get_name@Time_zone_db@@UBEPBVString@@XZ
??1Time_zone_db@@UAE@XZ
??0Time_zone_offset@@QAE@J@Z
?TIME_to_gmt_sec@Time_zone_offset@@UBEJPBUst_mysql_time@@PAD@Z
?gmt_sec_to_TIME@Time_zone_offset@@UBEXPAUst_mysql_time@@J@Z
?get_name@Time_zone_offset@@UBEPBVString@@XZ
??1Time_zone_offset@@UAE@XZ
??0Tz_names_entry@@QAE@XZ
my_tz_names_get_key
my_offset_tzs_get_key
?str_to_offset@@YADPBDIPAJ@Z
??$_Debug_lt@JJ@std@@YA_NABJ0PB_WI@Z
?trans_check_state@@YA_NPAVTHD@@@Z
?trans_begin@@YA_NPAVTHD@@I@Z
?trans_commit@@YA_NPAVTHD@@@Z
?trans_commit_implicit@@YA_NPAVTHD@@@Z
?trans_rollback@@YA_NPAVTHD@@@Z
?trans_rollback_implicit@@YA_NPAVTHD@@@Z
?trans_commit_stmt@@YA_NPAVTHD@@@Z
?trans_rollback_stmt@@YA_NPAVTHD@@@Z
?trans_savepoint@@YA_NPAVTHD@@Ust_mysql_lex_string@@@Z
?trans_rollback_to_savepoint@@YA_NPAVTHD@@Ust_mysql_lex_string@@@Z
?trans_release_savepoint@@YA_NPAVTHD@@Ust_mysql_lex_string@@@Z
?trans_xa_start@@YA_NPAVTHD@@@Z
?trans_xa_end@@YA_NPAVTHD@@@Z
?trans_xa_prepare@@YA_NPAVTHD@@@Z
?trans_xa_commit@@YA_NPAVTHD@@@Z
?trans_xa_rollback@@YA_NPAVTHD@@@Z
?eq@xid_t@@QAE_NPAU1@@Z
?eq@xid_t@@QAE_NJJPBD@Z
?set@xid_t@@QAEXPAU1@@Z
?is_null@xid_t@@QAE_NXZ
?null@xid_t@@QAEXXZ
?length@xid_t@@QAEIXZ
?is_open@MYSQL_LOG@@QAE_NXZ
?dbug_unsafe_rollback_flags@THD_TRANS@@QBEXPBD@Z
?cannot_safely_rollback@THD_TRANS@@QBE_NXZ
?get_unsafe_rollback_flags@THD_TRANS@@QBEIXZ
?add_unsafe_rollback_flags@THD_TRANS@@QAEXI@Z
?reset_unsafe_rollback_flags@THD_TRANS@@QAEXXZ
?has_modified_non_trans_table@THD_TRANS@@QBE_NXZ
?has_created_temp_table@THD_TRANS@@QBE_NXZ
?has_dropped_temp_table@THD_TRANS@@QBE_NXZ
?reset@THD_TRANS@@QAEXXZ
?is_empty@THD_TRANS@@QBE_NXZ
?ha_list_names@@YAPBDPAVHa_trx_info@@QAD@Z
?push_unsafe_rollback_warnings@st_transactions@THD@@QAEXPAV2@@Z
?merge_unsafe_rollback_flags@st_transactions@THD@@QAEXXZ
?in_multi_stmt_transaction_mode@THD@@QBE_NXZ
?in_active_multi_stmt_transaction@THD@@QBE_NXZ
?init_sql_alloc@@YAXPAUst_mem_root@@II@Z
?sql_alloc@@YAPAXI@Z
?sql_calloc@@YAPAXI@Z
?sql_strdup@@YAPADPBD@Z
?sql_strmake@@YAPADPBDI@Z
?sql_memdup@@YAPAXPBXI@Z
?sql_strmake_with_convert@@YAPADPBDIPBUcharset_info_st@@I1PAI@Z
?copy_and_convert@@YAIPADIPBUcharset_info_st@@PBDI1PAI@Z
?m_lock_key@Table_cache@@0IA DATA
?m_mutex_keys@Table_cache@@0PAUPSI_mutex_info_v1@@A DATA
?table_cache_manager@@3VTable_cache_manager@@A DATA
?dec@I_P_List_null_counter@@IAEXXZ
?check_unused@Table_cache@@AAEXXZ
?unlink_unused_table@Table_cache@@AAEXPAUTABLE@@@Z
?init@Table_cache@@QAE_NXZ
?destroy@Table_cache@@QAEXXZ
?init_psi_keys@Table_cache@@SAXXZ
?lock@Table_cache@@QAEXXZ
?unlock@Table_cache@@QAEXXZ
?assert_owner@Table_cache@@QAEXXZ
?remove_table@Table_cache@@QAEXPAUTABLE@@@Z
?cached_tables@Table_cache@@QBEIXZ
?free_all_unused_tables@Table_cache@@QAEXXZ
?print_tables@Table_cache@@QAEXXZ
?init@Table_cache_manager@@QAE_NXZ
?destroy@Table_cache_manager@@QAEXXZ
?cache_index@Table_cache_manager@@QBEIPAVTable_cache@@@Z
?cached_tables@Table_cache_manager@@QAEIXZ
?lock_all_and_tdc@Table_cache_manager@@QAEXXZ
?unlock_all_and_tdc@Table_cache_manager@@QAEXXZ
?assert_owner_all@Table_cache_manager@@QAEXXZ
?assert_owner_all_and_tdc@Table_cache_manager@@QAEXXZ
?free_table@Table_cache_manager@@QAEXPAVTHD@@W4enum_tdc_remove_table_type@@PAUTABLE_SHARE@@@Z
?free_all_unused_tables@Table_cache_manager@@QAEXXZ
?print_tables@Table_cache_manager@@QAEXXZ
?set_last@?$I_P_List_no_push_back@UTABLE@@@@IAEXPAPAUTABLE@@@Z
?is_empty@?$I_P_List@UTABLE@@U?$I_P_List_adapter@UTABLE@@$0BA@$0BE@@@VI_P_List_null_counter@@V?$I_P_List_no_push_back@UTABLE@@@@@@QBE_NXZ
?remove@?$I_P_List@UTABLE@@U?$I_P_List_adapter@UTABLE@@$0BA@$0BE@@@VI_P_List_null_counter@@V?$I_P_List_no_push_back@UTABLE@@@@@@QAEXPAUTABLE@@@Z
?get_share@Table_cache_element@@QBEPAUTABLE_SHARE@@XZ
??0?$I_P_List_iterator@UTABLE@@V?$I_P_List@UTABLE@@U?$I_P_List_adapter@UTABLE@@$0BA@$0BE@@@VI_P_List_null_counter@@V?$I_P_List_no_push_back@UTABLE@@@@@@@@QAE@ABV?$I_P_List@UTABLE@@U?$I_P_List_adapter@UTABLE@@$0BA@$0BE@@@VI_P_List_null_counter@@V?$I_P_List_no_push_back@UTABLE@@@@@@@Z
?init@?$I_P_List_iterator@UTABLE@@V?$I_P_List@UTABLE@@U?$I_P_List_adapter@UTABLE@@$0BA@$0BE@@@VI_P_List_null_counter@@V?$I_P_List_no_push_back@UTABLE@@@@@@@@QAEXABV?$I_P_List@UTABLE@@U?$I_P_List_adapter@UTABLE@@$0BA@$0BE@@@VI_P_List_null_counter@@V?$I_P_List_no_push_back@UTABLE@@@@@@@Z
??E?$I_P_List_iterator@UTABLE@@V?$I_P_List@UTABLE@@U?$I_P_List_adapter@UTABLE@@$0BA@$0BE@@@VI_P_List_null_counter@@V?$I_P_List_no_push_back@UTABLE@@@@@@@@QAEPAUTABLE@@H@Z
table_cache_key
table_cache_free_entry
?next_ptr@?$I_P_List_adapter@UTABLE@@$0BA@$0BE@@@SAPAPAUTABLE@@PAU2@@Z
?prev_ptr@?$I_P_List_adapter@UTABLE@@$0BA@$0BE@@@SAPAPAPAUTABLE@@PAU2@@Z
?PERFORMANCE_SCHEMA_DB_NAME@@3Ust_mysql_lex_string@@A DATA
?GENERAL_LOG_NAME@@3Ust_mysql_lex_string@@A DATA
?SLOW_LOG_NAME@@3Ust_mysql_lex_string@@A DATA
?INFORMATION_SCHEMA_NAME@@3Ust_mysql_lex_string@@A DATA
?MYSQL_SCHEMA_NAME@@3Ust_mysql_lex_string@@A DATA
?RLI_INFO_NAME@@3Ust_mysql_lex_string@@A DATA
?MI_INFO_NAME@@3Ust_mysql_lex_string@@A DATA
?WORKER_INFO_NAME@@3Ust_mysql_lex_string@@A DATA
?push_front@base_list@@QAE_NPAX@Z
?sort@base_list@@QAEXP6AHPAX00@Z0@Z
?head@base_list@@QAEPAXXZ
?init_from_field@KEY_PART_INFO@@QAEXPAVField@@@Z
?init_flags@KEY_PART_INFO@@QAEXXZ
?init@?$Bitmap@$0EA@@@QAEXI@Z
?set_bit@?$Bitmap@$0EA@@@QAEXI@Z
?intersect@?$Bitmap@$0EA@@@QAEXABV1@@Z
?subtract@?$Bitmap@$0EA@@@QAEXABV1@@Z
?merge@?$Bitmap@$0EA@@@QAEXABV1@@Z
?is_set@?$Bitmap@$0EA@@@QBEDI@Z
?is_clear_all@?$Bitmap@$0EA@@@QBEDXZ
?is_overlapping@?$Bitmap@$0EA@@@QBEDABV1@@Z
?alloced_length@String@@QBEIXZ
?my_decimal_precision_to_length_no_truncation@@YAIIE_N@Z
?my_decimal_precision_to_length@@YAIIE_N@Z
?reset@I_P_List_null_counter@@IAEXXZ
?inc@I_P_List_null_counter@@IAEXXZ
??0MDL_wait_for_subgraph@@QAE@XZ
?will_wait_for@MDL_context@@QAEXPAVMDL_wait_for_subgraph@@@Z
?done_waiting_for@MDL_context@@QAEXXZ
?calculate_key_len@@YAIPAUTABLE@@IPBEK@Z
?ha_table_flags@handler@@QBE_KXZ
?type@File_parser@@QBEPBUst_mysql_lex_string@@XZ
??4Table_id@@QAEX_K@Z
?set_n_backup@Object_creation_ctx@@QAEPAV1@PAVTHD@@@Z
?restore_env@Object_creation_ctx@@QAEXPAVTHD@@PAV1@@Z
??0Object_creation_ctx@@IAE@XZ
??0Default_object_creation_ctx@@IAE@PAVTHD@@@Z
??0Default_object_creation_ctx@@IAE@PBUcharset_info_st@@0@Z
?create_backup_ctx@Default_object_creation_ctx@@MBEPAVObject_creation_ctx@@PAVTHD@@@Z
?change_env@Default_object_creation_ctx@@MBEXPAVTHD@@@Z
?create@View_creation_ctx@@SAPAV1@PAVTHD@@@Z
?create@View_creation_ctx@@SAPAV1@PAVTHD@@PAUTABLE_LIST@@@Z
??0View_creation_ctx@@AAE@PAVTHD@@@Z
??1View_creation_ctx@@UAE@XZ
?get_table_category@@YA?AW4enum_table_category@@PBUst_mysql_lex_string@@0@Z
?check@Table_check_intact@@QAE_NPAUTABLE@@PBUst_table_field_def@@@Z
??0Wait_for_flush@@QAE@PAVMDL_context@@PAUTABLE_SHARE@@I@Z
?get_ctx@Wait_for_flush@@QBEPAVMDL_context@@XZ
?accept_visitor@Wait_for_flush@@UAE_NPAVMDL_wait_for_graph_visitor@@@Z
?get_deadlock_weight@Wait_for_flush@@UBEIXZ
??1Wait_for_flush@@UAE@XZ
?db_type@TABLE_SHARE@@QBEPAUhandlerton@@XZ
?set_last@?$I_P_List_no_push_back@VWait_for_flush@@@@IAEXPAPAVWait_for_flush@@@Z
?empty@?$I_P_List@VWait_for_flush@@U?$I_P_List_adapter@VWait_for_flush@@$0BA@$0BE@@@VI_P_List_null_counter@@V?$I_P_List_no_push_back@VWait_for_flush@@@@@@QAEXXZ
?is_empty@?$I_P_List@VWait_for_flush@@U?$I_P_List_adapter@VWait_for_flush@@$0BA@$0BE@@@VI_P_List_null_counter@@V?$I_P_List_no_push_back@VWait_for_flush@@@@@@QBE_NXZ
?push_front@?$I_P_List@VWait_for_flush@@U?$I_P_List_adapter@VWait_for_flush@@$0BA@$0BE@@@VI_P_List_null_counter@@V?$I_P_List_no_push_back@VWait_for_flush@@@@@@QAEXPAVWait_for_flush@@@Z
?remove@?$I_P_List@VWait_for_flush@@U?$I_P_List_adapter@VWait_for_flush@@$0BA@$0BE@@@VI_P_List_null_counter@@V?$I_P_List_no_push_back@VWait_for_flush@@@@@@QAEXPAVWait_for_flush@@@Z
?set_table_cache_key@TABLE_SHARE@@QAEXPADI@Z
?set_table_cache_key@TABLE_SHARE@@QAEXPADPBDI@Z
?visit_subgraph@TABLE_SHARE@@QAE_NPAVWait_for_flush@@PAVMDL_wait_for_graph_visitor@@@Z
?wait_for_old_version@TABLE_SHARE@@QAE_NPAVTHD@@PAUtimespec@@I@Z
?destroy@TABLE_SHARE@@QAEXXZ
?init@TABLE@@QAEXPAVTHD@@PAUTABLE_LIST@@@Z
?fill_item_list@TABLE@@QBE_NPAV?$List@VItem@@@@@Z
?reset_item_list@TABLE@@QBEXPAV?$List@VItem@@@@@Z
?clear_column_bitmaps@TABLE@@QAEXXZ
?prepare_for_position@TABLE@@QAEXXZ
?mark_columns_used_by_index_no_reset@TABLE@@QAEXIPAUst_bitmap@@@Z
?mark_columns_used_by_index@TABLE@@QAEXI@Z
?mark_auto_increment_column@TABLE@@QAEXXZ
?mark_columns_needed_for_update@TABLE@@QAEX_N@Z
?mark_columns_needed_for_delete@TABLE@@QAEXXZ
?mark_columns_needed_for_insert@TABLE@@QAEXXZ
?mark_columns_per_binlog_row_image@TABLE@@QAEXXZ
?default_column_bitmaps@TABLE@@QAEXXZ
?alloc_keys@TABLE@@QAE_NI@Z
?add_tmp_key@TABLE@@QAE_NPAV?$Bitmap@$0BAAA@@@PAD@Z
?use_index@TABLE@@QAEXH@Z
?set_keyread@TABLE@@QAEX_N@Z
?update_const_key_parts@TABLE@@QAE_NPAVItem@@@Z
?check_read_removal@TABLE@@QAE_NI@Z
?is_created@TABLE@@QBE_NXZ
??0Natural_join_column@@QAE@PAUField_translator@@PAUTABLE_LIST@@@Z
??0Natural_join_column@@QAE@PAVItem_field@@PAUTABLE_LIST@@@Z
?name@Natural_join_column@@QAEPBDXZ
?create_item@Natural_join_column@@QAEPAVItem@@PAVTHD@@@Z
?field@Natural_join_column@@QAEPAVField@@XZ
?table_name@Natural_join_column@@QAEPBDXZ
?db_name@Natural_join_column@@QAEPBDXZ
?grant@Natural_join_column@@QAEPAUst_grant_info@@XZ
??0?$Bitmap@$0BAAA@@@QAE@XZ
?init@?$Bitmap@$0BAAA@@@QAEXXZ
?set_bit@?$Bitmap@$0BAAA@@@QAEXI@Z
?clear_all@?$Bitmap@$0BAAA@@@QAEXXZ
?is_set@?$Bitmap@$0BAAA@@@QBEDI@Z
?bits_set@?$Bitmap@$0BAAA@@@QBEIXZ
??0Derived_key@@QAE@XZ
?new_nested_join@TABLE_LIST@@SAPAU1@PAUst_mem_root@@PBDPAU1@PAV?$List@UTABLE_LIST@@@@PAVst_select_lex@@@Z
?join_cond@TABLE_LIST@@QBEPAVItem@@XZ
?set_join_cond@TABLE_LIST@@QAEPAVItem@@PAV2@@Z
?push_back@?$List@VDerived_key@@@@QAE_NPAVDerived_key@@PAUst_mem_root@@@Z
?calc_md5@TABLE_LIST@@QAEXPAD@Z
?set_underlying_merge@TABLE_LIST@@QAEXXZ
?view_check_option@TABLE_LIST@@QBEHPAVTHD@@_N@Z
?setup_underlying@TABLE_LIST@@QAE_NPAVTHD@@@Z
?cleanup_items@TABLE_LIST@@QAEXXZ
?check_single_table@TABLE_LIST@@QAE_NPAPAU1@_KPAU1@@Z
?set_insert_values@TABLE_LIST@@QAE_NPAUst_mem_root@@@Z
?hide_view_error@TABLE_LIST@@QAEXPAVTHD@@@Z
?find_underlying_table@TABLE_LIST@@QAEPAU1@PAUTABLE@@@Z
?first_leaf_for_name_resolution@TABLE_LIST@@QAEPAU1@XZ
?last_leaf_for_name_resolution@TABLE_LIST@@QAEPAU1@XZ
?is_leaf_for_name_resolution@TABLE_LIST@@QAE_NXZ
?top_table@TABLE_LIST@@QBEPBU1@XZ
?top_table@TABLE_LIST@@QAEPAU1@XZ
?uses_materialization@TABLE_LIST@@QBE_NXZ
?materializable_is_const@TABLE_LIST@@QBE_NXZ
?register_want_access@TABLE_LIST@@QAEXK@Z
?prepare_security@TABLE_LIST@@QAE_NPAVTHD@@@Z
?find_view_security_context@TABLE_LIST@@QAEPAVSecurity_context@@PAVTHD@@@Z
?prepare_view_securety_context@TABLE_LIST@@QAE_NPAVTHD@@@Z
?reinit_before_use@TABLE_LIST@@QAEXPAVTHD@@@Z
?containing_subselect@TABLE_LIST@@QAEPAVItem_subselect@@XZ
?process_index_hints@TABLE_LIST@@QAE_NPAUTABLE@@@Z
?query_block_id@TABLE_LIST@@QBEIXZ
?fetch_number_of_rows@TABLE_LIST@@QAEHXZ
?update_derived_keys@TABLE_LIST@@QAE_NPAVField@@PAPAVItem@@I@Z
?generate_keys@TABLE_LIST@@QAE_NXZ
?handle_derived@TABLE_LIST@@QAE_NPAULEX@@P6A_NPAVTHD@@0PAU1@@Z@Z
?get_unit@TABLE_LIST@@QBEPAVst_select_lex_unit@@XZ
?prep_check_option@TABLE_LIST@@AAE_NPAVTHD@@E@Z
?prep_where@TABLE_LIST@@AAE_NPAVTHD@@PAPAVItem@@_N@Z
?name@Field_iterator_table@@UAEPBDXZ
?create_item@Field_iterator_table@@UAEPAVItem@@PAVTHD@@@Z
?set@Field_iterator_view@@UAEXPAUTABLE_LIST@@@Z
?name@Field_iterator_view@@UAEPBDXZ
?create_item@Field_iterator_view@@UAEPAVItem@@PAVTHD@@@Z
?field_translator@Field_iterator_view@@QAEPAUField_translator@@XZ
?init@?$List_iterator_fast@VNatural_join_column@@@@QAEXAAV?$List@VNatural_join_column@@@@@Z
??E?$List_iterator_fast@VNatural_join_column@@@@QAEPAVNatural_join_column@@H@Z
?set@Field_iterator_natural_join@@UAEXPAUTABLE_LIST@@@Z
?next@Field_iterator_natural_join@@UAEXXZ
?column_ref@Field_iterator_natural_join@@QAEPAVNatural_join_column@@XZ
?set_field_iterator@Field_iterator_table_ref@@AAEXXZ
?set@Field_iterator_table_ref@@UAEXPAUTABLE_LIST@@@Z
?next@Field_iterator_table_ref@@UAEXXZ
?get_table_name@Field_iterator_table_ref@@QAEPBDXZ
?get_db_name@Field_iterator_table_ref@@QAEPBDXZ
?grant@Field_iterator_table_ref@@QAEPAUst_grant_info@@XZ
?get_or_create_column_ref@Field_iterator_table_ref@@QAEPAVNatural_join_column@@PAVTHD@@PAUTABLE_LIST@@@Z
?get_natural_column_ref@Field_iterator_table_ref@@QAEPAVNatural_join_column@@XZ
?head@?$List@UTABLE_LIST@@@@QAEPAUTABLE_LIST@@XZ
?max_row_length@@YAIPAUTABLE@@PBE@Z
?init_mdl_requests@@YAXPAUTABLE_LIST@@@Z
?open_table_from_share@@YAHPAVTHD@@PAUTABLE_SHARE@@PBDIIIPAUTABLE@@_N@Z
?alloc_table_share@@YAPAUTABLE_SHARE@@PAUTABLE_LIST@@PBDI@Z
?init_tmp_table_share@@YAXPAVTHD@@PAUTABLE_SHARE@@PBDI22@Z
?free_table_share@@YAXPAUTABLE_SHARE@@@Z
?open_table_def@@YAHPAVTHD@@PAUTABLE_SHARE@@I@Z
?open_table_error@@YAXPAUTABLE_SHARE@@HHH@Z
?update_create_info_from_table@@YAXPAUst_ha_create_information@@PAUTABLE@@@Z
?check_and_convert_db_name@@YA?AW4enum_ident_name_check@@PAUst_mysql_lex_string@@_N@Z
?check_column_name@@YA_NPBD@Z
?check_table_name@@YA?AW4enum_ident_name_check@@PBDI_N@Z
?rename_file_ext@@YAHPBD00@Z
?get_field@@YAPADPAUst_mem_root@@PAVField@@@Z
?get_field@@YA_NPAUst_mem_root@@PAVField@@PAVString@@@Z
?closefrm@@YAHPAUTABLE@@_N@Z
?read_string@@YAHHPAPAEI@Z
?free_blobs@@YAXPAUTABLE@@@Z
?free_field_buffers_larger_than@@YAXPAUTABLE@@I@Z
?set_zone@@YAHHHH@Z
?make_new_entry@@YAKHPAEPAUst_typelib@@PBD@Z
?next_io_size@@YAKK@Z
?append_unescaped@@YAXPAVString@@PBDI@Z
?create_frm@@YAHPAVTHD@@PBD11IPAEPAUst_ha_create_information@@IPAUst_key@@@Z
?fn_rext@@YAPADPAD@Z
?is_infoschema_db@@YA_NPBDI@Z
?typelib@@YAPAUst_typelib@@PAUst_mem_root@@AAV?$List@VString@@@@@Z
?is_simple_order@@YA_NPAUst_order@@@Z
?sql_errno@Diagnostics_area@@QBEIXZ
?null_offset@Field@@QBEIPBE@Z
?null_offset@Field@@QBEIXZ
?offset@Field@@QAEIPAE@Z
?field_storage_type@Field@@QBE?AW4ha_storage_media@@XZ
?set_storage_type@Field@@QAEXW4ha_storage_media@@@Z
?column_format@Field@@QBE?AW4column_format_type@@XZ
?set_column_format@Field@@QAEXW4column_format_type@@@Z
?get_field_buffer_size@Field_blob@@QAEIXZ
?get_length@Field_blob@@QAEIPBE@Z
?build_table_filename@@YAIPADIPBD11I@Z
?set_numeric@DTCollation@@QAEXXZ
?change_context_processor@Item_ident@@UAE_NPAE@Z
??1Item_ident@@UAE@XZ
?type@Item_ref@@UBE?AW4Type@Item@@XZ
?eq@Item_ref@@UBE_NPBVItem@@_N@Z
?result_type@Item_ref@@UBE?AW4Item_result@@XZ
?field_type@Item_ref@@UBE?AW4enum_field_types@@XZ
?get_tmp_table_field@Item_ref@@UAEPAVField@@XZ
?const_item@Item_ref@@UBE_NXZ
?used_tables@Item_ref@@UBE_KXZ
?update_used_tables@Item_ref@@UAEXXZ
?not_null_tables@Item_ref@@UBE_KXZ
?set_result_field@Item_ref@@UAEXPAVField@@@Z
?is_result_field@Item_ref@@UAE_NXZ
?save_in_result_field@Item_ref@@UAEX_N@Z
?real_item@Item_ref@@UAEPAVItem@@XZ
?walk@Item_ref@@UAE_NP8Item@@AE_NPAE@Z_N0@Z
?explain_subquery_checker@Item_ref@@UAE_NPAPAE@Z
?field_for_view_update@Item_ref@@UAEPAVItem_field@@XZ
?cols@Item_ref@@UAEIXZ
?element_index@Item_ref@@UAEPAVItem@@I@Z
?addr@Item_ref@@UAEPAPAVItem@@I@Z
?check_cols@Item_ref@@UAE_NI@Z
?null_inside@Item_ref@@UAE_NXZ
?bring_value@Item_ref@@UAEXXZ
?get_time@Item_ref@@UAE_NPAUst_mysql_time@@@Z
?basic_const_item@Item_ref@@UBE_NXZ
?is_outer_field@Item_ref@@UBE_NXZ
?has_subquery@Item_ref@@UBE_NXZ
?has_stored_program@Item_ref@@UBE_NXZ
?created_by_in2exists@Item_ref@@UBE_NXZ
??1Item_ref@@UAE@XZ
??0Item_direct_ref@@QAE@PAUName_resolution_context@@PAPAVItem@@PBD2_N@Z
?ref_type@Item_direct_ref@@UAE?AW4Ref_Type@Item_ref@@XZ
??1Item_direct_ref@@UAE@XZ
??0Item_direct_view_ref@@QAE@PAUName_resolution_context@@PAPAVItem@@PBD22@Z
?subst_argument_checker@Item_direct_view_ref@@UAE_NPAPAE@Z
?get_tmp_table_item@Item_direct_view_ref@@UAEPAVItem@@PAVTHD@@@Z
?ref_type@Item_direct_view_ref@@UAE?AW4Ref_Type@Item_ref@@XZ
??1Item_direct_view_ref@@UAE@XZ
??0Item_int_func@@QAE@XZ
?get_date@Item_int_func@@UAE_NPAUst_mysql_time@@I@Z
?get_time@Item_int_func@@UAE_NPAUst_mysql_time@@@Z
?result_type@Item_int_func@@UBE?AW4Item_result@@XZ
?fix_length_and_dec@Item_int_func@@UAEXXZ
??1Item_int_func@@UAE@XZ
??0Item_bool_func@@QAE@XZ
?is_bool_func@Item_bool_func@@UAE_NXZ
?fix_length_and_dec@Item_bool_func@@UAEXXZ
?decimal_precision@Item_bool_func@@UBEIXZ
?created_by_in2exists@Item_bool_func@@UBE_NXZ
??1Item_bool_func@@UAE@XZ
??0Item_cond@@QAE@PAVItem@@0@Z
?type@Item_cond@@UBE?AW4Type@Item@@XZ
?used_tables@Item_cond@@UBE_KXZ
?top_level_item@Item_cond@@UAEXXZ
?field_type@Item_cond@@UBE?AW4enum_field_types@@XZ
?subst_argument_checker@Item_cond@@UAE_NPAPAE@Z
?equality_substitution_analyzer@Item_cond@@UAE_NPAPAE@Z
??1Item_cond@@UAE@XZ
??0?$List@VItem_equal@@@@QAE@XZ
??1?$List@VItem_equal@@@@QAE@XZ
??0COND_EQUAL@@QAE@XZ
??1COND_EQUAL@@QAE@XZ
??0Item_cond_and@@QAE@PAVItem@@0@Z
??0Item_cond_and@@QAE@PAVTHD@@PAV0@@Z
?functype@Item_cond_and@@UBE?AW4Functype@Item_func@@XZ
?func_name@Item_cond_and@@UBEPBDXZ
?copy_andor_structure@Item_cond_and@@UAEPAVItem@@PAVTHD@@_N@Z
??1Item_cond_and@@UAE@XZ
?and_conds@@YAPAVItem@@PAV1@0@Z
??1SQL_CRYPT@@QAE@XZ
?first_select@st_select_lex_unit@@QAEPAVst_select_lex@@XZ
?get_result@st_select_lex_unit@@QAEPAVselect_result@@XZ
?push_front@?$List@VItem_func_match@@@@QAE_NPAVItem_func_match@@@Z
?next_select@st_select_lex@@QAEPAV1@XZ
?set_non_agg_field_used@st_select_lex@@QAEX_N@Z
??0Switch_resolve_place@@QAE@PAW4Resolve_place@st_select_lex@@W412@_N@Z
??1Switch_resolve_place@@QAE@XZ
?is_ps_or_view_context_analysis@LEX@@QAE_NXZ
??0Query_arena@@QAE@PAUst_mem_root@@W4enum_state@0@@Z
??0Query_arena@@QAE@XZ
??1Query_arena@@UAE@XZ
?is_conventional@Query_arena@@QBE_NXZ
?strdup@Query_arena@@QAEPADPBD@Z
?get_internal_handler@THD@@QAEPAVInternal_error_handler@@XZ
??0Prepared_stmt_arena_holder@@QAE@PAVTHD@@_N@Z
??1Prepared_stmt_arena_holder@@QAE@XZ
?is_activated@Prepared_stmt_arena_holder@@QBE_NXZ
?front@?$I_P_List@UTABLE@@U?$I_P_List_adapter@UTABLE@@$0BA@$0BE@@@VI_P_List_null_counter@@V?$I_P_List_no_push_back@UTABLE@@@@@@QAEPAUTABLE@@XZ
?move_to_next_table@Table_cache_iterator@@AAEXXZ
??0Table_cache_iterator@@QAE@PBUTABLE_SHARE@@@Z
??ETable_cache_iterator@@QAEPAUTABLE@@H@Z
?rewind@Table_cache_iterator@@QAEXXZ
??0?$I_P_List_iterator@UTABLE@@V?$I_P_List@UTABLE@@U?$I_P_List_adapter@UTABLE@@$0BA@$0BE@@@VI_P_List_null_counter@@V?$I_P_List_no_push_back@UTABLE@@@@@@@@QAE@ABV?$I_P_List@UTABLE@@U?$I_P_List_adapter@UTABLE@@$0BA@$0BE@@@VI_P_List_null_counter@@V?$I_P_List_no_push_back@UTABLE@@@@@@PAUTABLE@@@Z
??E?$I_P_List_iterator@UTABLE@@V?$I_P_List@UTABLE@@U?$I_P_List_adapter@UTABLE@@$0BA@$0BE@@@VI_P_List_null_counter@@V?$I_P_List_no_push_back@UTABLE@@@@@@@@QAEPAUTABLE@@XZ
?is_system_table_name@@YA_NPBDI@Z
??0?$I_P_List_iterator@VWait_for_flush@@V?$I_P_List@VWait_for_flush@@U?$I_P_List_adapter@VWait_for_flush@@$0BA@$0BE@@@VI_P_List_null_counter@@V?$I_P_List_no_push_back@VWait_for_flush@@@@@@@@QAE@ABV?$I_P_List@VWait_for_flush@@U?$I_P_List_adapter@VWait_for_flush@@$0BA@$0BE@@@VI_P_List_null_counter@@V?$I_P_List_no_push_back@VWait_for_flush@@@@@@@Z
??E?$I_P_List_iterator@VWait_for_flush@@V?$I_P_List@VWait_for_flush@@U?$I_P_List_adapter@VWait_for_flush@@$0BA@$0BE@@@VI_P_List_null_counter@@V?$I_P_List_no_push_back@VWait_for_flush@@@@@@@@QAEPAVWait_for_flush@@H@Z
??0?$List_iterator@VString@@@@QAE@AAV?$List@VString@@@@@Z
??E?$List_iterator@VString@@@@QAEPAVString@@H@Z
??0?$List_iterator_fast@VItem@@@@QAE@AAV?$List@VItem@@@@@Z
??E?$List_iterator_fast@VItem@@@@QAEPAVItem@@H@Z
??0?$List_iterator_fast@VItem_func_match@@@@QAE@AAV?$List@VItem_func_match@@@@@Z
??E?$List_iterator_fast@VItem_func_match@@@@QAEPAVItem_func_match@@H@Z
??0?$List_iterator@UTABLE_LIST@@@@QAE@AAV?$List@UTABLE_LIST@@@@@Z
??E?$List_iterator@UTABLE_LIST@@@@QAEPAUTABLE_LIST@@H@Z
??_9Item@@$BBEA@AE
??0?$List_iterator_fast@UTABLE_LIST@@@@QAE@AAV?$List@UTABLE_LIST@@@@@Z
??E?$List_iterator_fast@UTABLE_LIST@@@@QAEPAUTABLE_LIST@@H@Z
??0?$List@VNatural_join_column@@@@QAE@XZ
?push_back@?$List@VNatural_join_column@@@@QAE_NPAVNatural_join_column@@@Z
??0?$List_iterator@VIndex_hint@@@@QAE@AAV?$List@VIndex_hint@@@@@Z
??E?$List_iterator@VIndex_hint@@@@QAEPAVIndex_hint@@H@Z
??0?$List_iterator@VDerived_key@@@@QAE@AAV?$List@VDerived_key@@@@@Z
??E?$List_iterator@VDerived_key@@@@QAEPAVDerived_key@@H@Z
?next_ptr@?$I_P_List_adapter@VWait_for_flush@@$0BA@$0BE@@@SAPAPAVWait_for_flush@@PAV2@@Z
?prev_ptr@?$I_P_List_adapter@VWait_for_flush@@$0BA@$0BE@@@SAPAPAPAVWait_for_flush@@PAV2@@Z
?bool_typelib@@3Ust_typelib@@A DATA
?abort@Rpl_info_dummy@@0_NB DATA
?opt_mi_repository_id@@3KA DATA
?opt_rli_repository_id@@3KA DATA
?slave_type_conversions_name@@3PAPBDA DATA
?gtid_purged@@3PAVGtid_set@@A DATA
?Sys_autocommit_ptr@@3PAVsys_var@@A DATA
?Sys_gtid_next_ptr@@3PAVsys_var@@A DATA
?Sys_gtid_purged_ptr@@3PAVsys_var@@A DATA
?Sys_optimizer_trace_ptr@@3PAVsys_var@@A DATA
?my_double2ulonglong@@YA_KN@Z
?replace@Discrete_interval@@QAEX_K00@Z
?minimum@Discrete_interval@@QBE_KXZ
?merge_if_contiguous@Discrete_interval@@QAE_N_K00@Z
?append@Discrete_intervals_list@@AAE_NPAVDiscrete_interval@@@Z
?empty@Discrete_intervals_list@@QAEXXZ
?append@Discrete_intervals_list@@QAE_N_K00@Z
?minimum@Discrete_intervals_list@@QBE_KXZ
?is_disabled@Query_cache@@QAE_NXZ
?warn_count@Warning_info@@ABEKXZ
?error_count@Warning_info@@ABEKXZ
??0ErrConvString@@QAE@PAVString@@@Z
??0ErrConvString@@QAE@PBDIPBUcharset_info_st@@@Z
??1ErrConvString@@QAE@XZ
?ptr@ErrConvString@@QAEPADXZ
?error_count@Diagnostics_area@@QBEKXZ
?warn_count@Diagnostics_area@@QBEKXZ
?open_slow_log@MYSQL_QUERY_LOG@@QAE_NPBD@Z
?open_query_log@MYSQL_QUERY_LOG@@QAE_NPBD@Z
?get_mysql_slow_log@Log_to_file_event_handler@@QAEPAVMYSQL_QUERY_LOG@@XZ
?get_mysql_log@Log_to_file_event_handler@@QAEPAVMYSQL_QUERY_LOG@@XZ
?lock_exclusive@LOGGER@@QAEXXZ
?unlock@LOGGER@@QAEXXZ
?get_slow_log_file_handler@LOGGER@@QBEPAVMYSQL_QUERY_LOG@@XZ
?get_log_file_handler@LOGGER@@QBEPAVMYSQL_QUERY_LOG@@XZ
?sidno_to_sid@Sid_map@@QBEABUUuid@@H@Z
?get_sorted_sidno@Sid_map@@QBEHH@Z
?get_max_sidno@Sid_map@@QBEHXZ
?to_string@Gtid_set@@QBEPADXZ
?add_interval_memory@Gtid_set@@QAEXHPAUInterval@1@@Z
?get_max_sidno@Owned_gtids@@QBEHXZ
?to_string@Owned_gtids@@QBEHPAD@Z
?get_max_string_length@Owned_gtids@@QBEIXZ
?thread_owns_anything@Owned_gtids@@QBE_NK@Z
?get_hash@Owned_gtids@@ABEPAUst_hash@@H@Z
??0Gtid_iterator@Owned_gtids@@QAE@PBV1@@Z
?next@Gtid_iterator@Owned_gtids@@QAEXXZ
?get_node@Gtid_iterator@Owned_gtids@@QBEPAUNode@2@XZ
?get_owned_gtids@Gtid_state@@QBEPBVOwned_gtids@@XZ
?is_valid@Gtid_specification@@SA_NPBD@Z
?show_system_thread@@YAPBDW4enum_thread_type@@@Z
?is_acquired@Global_read_lock@@QBE_NXZ
?read_first_successful_insert_id_in_prev_stmt@THD@@QAE_KXZ
?force_one_auto_inc_interval@THD@@QAEX_K@Z
?get_user_connect@THD@@QAEPBUuser_conn@@XZ
?set_time@THD@@QAEXPBUtimeval@@@Z
?reset_current_stmt_binlog_format_row@THD@@QAEXXZ
?get_gtid_next_list@THD@@QAEPAVGtid_set@@XZ
?get_gtid_next_list_const@THD@@QBEPBVGtid_set@@XZ
??1sys_var@@UAE@XZ
?cleanup@sys_var@@UAEXXZ
?cast_pluginvar@sys_var@@UAEPAVsys_var_pluginvar@@XZ
?update_default@sys_var@@UAEX_J@Z
?scope@sys_var@@QBEHXZ
?is_readonly@sys_var@@QBE_NXZ
?session_var_ptr@sys_var@@IAEPAEPAVTHD@@@Z
?global_var_ptr@sys_var@@IAEPAEXZ
?get_log_lock@MYSQL_BIN_LOG@@QAEPAUst_mysql_mutex@@XZ
?fix_delay_key_write@@YA_NPAVsys_var@@PAVTHD@@W4enum_var_type@@@Z
?expand_sql_mode@@YA_K_K@Z
?sql_mode_string_representation@@YA_NPAVTHD@@_KPAUst_mysql_lex_string@@@Z
??1PolyLock@@UAE@XZ
??0PolyLock@@QAE@XZ
??0PolyLock_mutex@@QAE@PAUst_mysql_mutex@@@Z
?rdlock@PolyLock_mutex@@UAEXXZ
?wrlock@PolyLock_mutex@@UAEXXZ
?unlock@PolyLock_mutex@@UAEXXZ
??1PolyLock_mutex@@UAE@XZ
??0PolyLock_rwlock@@QAE@PAUst_mysql_rwlock@@@Z
?rdlock@PolyLock_rwlock@@UAEXXZ
?wrlock@PolyLock_rwlock@@UAEXXZ
?unlock@PolyLock_rwlock@@UAEXXZ
??1PolyLock_rwlock@@UAE@XZ
??0CMD_LINE@@QAE@W4get_opt_arg_type@@H@Z
??0Sys_var_typelib@@QAE@PBD0HHUCMD_LINE@@W4enum_mysql_show_type@@QAPBD_KPAVPolyLock@@W4binlog_status_enum@sys_var@@P6A_NPAV5@PAVTHD@@PAVset_var@@@ZP6A_N78W4enum_var_type@@@Z0H@Z
?do_check@Sys_var_typelib@@UAE_NPAVTHD@@PAVset_var@@@Z
?check_update_type@Sys_var_typelib@@UAE_NW4Item_result@@@Z
??1Sys_var_typelib@@UAE@XZ
??0Sys_var_enum@@QAE@PBD0HHIUCMD_LINE@@QAPBDIPAVPolyLock@@W4binlog_status_enum@sys_var@@P6A_NPAV4@PAVTHD@@PAVset_var@@@ZP6A_N56W4enum_var_type@@@Z0@Z
?session_update@Sys_var_enum@@UAE_NPAVTHD@@PAVset_var@@@Z
?global_update@Sys_var_enum@@UAE_NPAVTHD@@PAVset_var@@@Z
?session_save_default@Sys_var_enum@@UAEXPAVTHD@@PAVset_var@@@Z
?global_save_default@Sys_var_enum@@UAEXPAVTHD@@PAVset_var@@@Z
?session_value_ptr@Sys_var_enum@@UAEPAEPAVTHD@@PAUst_mysql_lex_string@@@Z
?global_value_ptr@Sys_var_enum@@UAEPAEPAVTHD@@PAUst_mysql_lex_string@@@Z
??1Sys_var_enum@@UAE@XZ
??0Sys_var_mybool@@QAE@PBD0HHIUCMD_LINE@@DPAVPolyLock@@W4binlog_status_enum@sys_var@@P6A_NPAV4@PAVTHD@@PAVset_var@@@ZP6A_N45W4enum_var_type@@@Z0H@Z
?session_update@Sys_var_mybool@@UAE_NPAVTHD@@PAVset_var@@@Z
?global_update@Sys_var_mybool@@UAE_NPAVTHD@@PAVset_var@@@Z
?session_save_default@Sys_var_mybool@@UAEXPAVTHD@@PAVset_var@@@Z
?global_save_default@Sys_var_mybool@@UAEXPAVTHD@@PAVset_var@@@Z
??1Sys_var_mybool@@UAE@XZ
??0Sys_var_charptr@@QAE@PBD0HHIUCMD_LINE@@W4charset_enum@@0PAVPolyLock@@W4binlog_status_enum@sys_var@@P6A_NPAV5@PAVTHD@@PAVset_var@@@ZP6A_N56W4enum_var_type@@@Z0H@Z
?cleanup@Sys_var_charptr@@UAEXXZ
?do_check@Sys_var_charptr@@UAE_NPAVTHD@@PAVset_var@@@Z
?session_update@Sys_var_charptr@@UAE_NPAVTHD@@PAVset_var@@@Z
?global_update@Sys_var_charptr@@UAE_NPAVTHD@@PAVset_var@@@Z
?session_save_default@Sys_var_charptr@@UAEXPAVTHD@@PAVset_var@@@Z
?global_save_default@Sys_var_charptr@@UAEXPAVTHD@@PAVset_var@@@Z
?check_update_type@Sys_var_charptr@@UAE_NW4Item_result@@@Z
??1Sys_var_charptr@@UAE@XZ
??0Sys_var_proxy_user@@QAE@PBD0W4charset_enum@@@Z
?do_check@Sys_var_proxy_user@@UAE_NPAVTHD@@PAVset_var@@@Z
?session_update@Sys_var_proxy_user@@UAE_NPAVTHD@@PAVset_var@@@Z
?global_update@Sys_var_proxy_user@@UAE_NPAVTHD@@PAVset_var@@@Z
?session_save_default@Sys_var_proxy_user@@UAEXPAVTHD@@PAVset_var@@@Z
?global_save_default@Sys_var_proxy_user@@UAEXPAVTHD@@PAVset_var@@@Z
?check_update_type@Sys_var_proxy_user@@UAE_NW4Item_result@@@Z
?session_value_ptr@Sys_var_proxy_user@@MAEPAEPAVTHD@@PAUst_mysql_lex_string@@@Z
??1Sys_var_proxy_user@@UAE@XZ
??0Sys_var_external_user@@QAE@PBD0W4charset_enum@@@Z
?session_value_ptr@Sys_var_external_user@@MAEPAEPAVTHD@@PAUst_mysql_lex_string@@@Z
??1Sys_var_external_user@@UAE@XZ
??0Sys_var_lexstring@@QAE@PBD0HHIUCMD_LINE@@W4charset_enum@@0PAVPolyLock@@W4binlog_status_enum@sys_var@@P6A_NPAV5@PAVTHD@@PAVset_var@@@ZP6A_N56W4enum_var_type@@@Z0@Z
?global_update@Sys_var_lexstring@@UAE_NPAVTHD@@PAVset_var@@@Z
??1Sys_var_lexstring@@UAE@XZ
??0Sys_var_dbug@@QAE@PBD0HUCMD_LINE@@0PAVPolyLock@@W4binlog_status_enum@sys_var@@P6A_NPAV4@PAVTHD@@PAVset_var@@@ZP6A_N45W4enum_var_type@@@Z0H@Z
?do_check@Sys_var_dbug@@UAE_NPAVTHD@@PAVset_var@@@Z
?session_update@Sys_var_dbug@@UAE_NPAVTHD@@PAVset_var@@@Z
?global_update@Sys_var_dbug@@UAE_NPAVTHD@@PAVset_var@@@Z
?session_save_default@Sys_var_dbug@@UAEXPAVTHD@@PAVset_var@@@Z
?global_save_default@Sys_var_dbug@@UAEXPAVTHD@@PAVset_var@@@Z
?session_value_ptr@Sys_var_dbug@@UAEPAEPAVTHD@@PAUst_mysql_lex_string@@@Z
?global_value_ptr@Sys_var_dbug@@UAEPAEPAVTHD@@PAUst_mysql_lex_string@@@Z
?check_update_type@Sys_var_dbug@@UAE_NW4Item_result@@@Z
??1Sys_var_dbug@@UAE@XZ
??0?$Sys_var_integer@_K$07$03$0A@@@QAE@PBD0HHIUCMD_LINE@@_K22IPAVPolyLock@@W4binlog_status_enum@sys_var@@P6A_NPAV4@PAVTHD@@PAVset_var@@@ZP6A_N56W4enum_var_type@@@Z0H@Z
?do_check@?$Sys_var_integer@_K$07$03$0A@@@UAE_NPAVTHD@@PAVset_var@@@Z
?session_update@?$Sys_var_integer@_K$07$03$0A@@@UAE_NPAVTHD@@PAVset_var@@@Z
?global_update@?$Sys_var_integer@_K$07$03$0A@@@UAE_NPAVTHD@@PAVset_var@@@Z
?check_update_type@?$Sys_var_integer@_K$07$03$0A@@@UAE_NW4Item_result@@@Z
?session_save_default@?$Sys_var_integer@_K$07$03$0A@@@UAEXPAVTHD@@PAVset_var@@@Z
?global_save_default@?$Sys_var_integer@_K$07$03$0A@@@UAEXPAVTHD@@PAVset_var@@@Z
?max_var_ptr@?$Sys_var_integer@_K$07$03$0A@@@AAEPA_KXZ
??1?$Sys_var_integer@_K$07$03$0A@@@UAE@XZ
??0Sys_var_keycache@@QAE@PBD0HHIUCMD_LINE@@_K222PAVPolyLock@@W4binlog_status_enum@sys_var@@P6A_NPAV4@PAVTHD@@PAVset_var@@@ZP6A_N6PAUst_key_cache@@H2@Z0@Z
?global_update@Sys_var_keycache@@UAE_NPAVTHD@@PAVset_var@@@Z
?global_value_ptr@Sys_var_keycache@@UAEPAEPAVTHD@@PAUst_mysql_lex_string@@@Z
??1Sys_var_keycache@@UAE@XZ
??0Sys_var_double@@QAE@PBD0HHIUCMD_LINE@@NNNPAVPolyLock@@W4binlog_status_enum@sys_var@@P6A_NPAV4@PAVTHD@@PAVset_var@@@ZP6A_N45W4enum_var_type@@@Z0H@Z
?do_check@Sys_var_double@@UAE_NPAVTHD@@PAVset_var@@@Z
?session_update@Sys_var_double@@UAE_NPAVTHD@@PAVset_var@@@Z
?global_update@Sys_var_double@@UAE_NPAVTHD@@PAVset_var@@@Z
?check_update_type@Sys_var_double@@UAE_NW4Item_result@@@Z
?session_save_default@Sys_var_double@@UAEXPAVTHD@@PAVset_var@@@Z
?global_save_default@Sys_var_double@@UAEXPAVTHD@@PAVset_var@@@Z
??1Sys_var_double@@UAE@XZ
??0Sys_var_test_flag@@QAE@PBD0I@Z
?global_value_ptr@Sys_var_test_flag@@UAEPAEPAVTHD@@PAUst_mysql_lex_string@@@Z
??1Sys_var_test_flag@@UAE@XZ
??0?$Sys_var_integer@I$03$01$0A@@@QAE@PBD0HHIUCMD_LINE@@IIIIPAVPolyLock@@W4binlog_status_enum@sys_var@@P6A_NPAV4@PAVTHD@@PAVset_var@@@ZP6A_N45W4enum_var_type@@@Z0H@Z
?do_check@?$Sys_var_integer@I$03$01$0A@@@UAE_NPAVTHD@@PAVset_var@@@Z
?session_update@?$Sys_var_integer@I$03$01$0A@@@UAE_NPAVTHD@@PAVset_var@@@Z
?global_update@?$Sys_var_integer@I$03$01$0A@@@UAE_NPAVTHD@@PAVset_var@@@Z
?check_update_type@?$Sys_var_integer@I$03$01$0A@@@UAE_NW4Item_result@@@Z
?session_save_default@?$Sys_var_integer@I$03$01$0A@@@UAEXPAVTHD@@PAVset_var@@@Z
?global_save_default@?$Sys_var_integer@I$03$01$0A@@@UAEXPAVTHD@@PAVset_var@@@Z
?max_var_ptr@?$Sys_var_integer@I$03$01$0A@@@AAEPAIXZ
??1?$Sys_var_integer@I$03$01$0A@@@UAE@XZ
??0Sys_var_max_user_conn@@QAE@PBD0HHIUCMD_LINE@@IIIIPAVPolyLock@@W4binlog_status_enum@sys_var@@P6A_NPAV4@PAVTHD@@PAVset_var@@@ZP6A_N45W4enum_var_type@@@Z0@Z
?session_value_ptr@Sys_var_max_user_conn@@UAEPAEPAVTHD@@PAUst_mysql_lex_string@@@Z
??1Sys_var_max_user_conn@@UAE@XZ
??0Sys_var_flagset@@QAE@PBD0HHIUCMD_LINE@@QAPBD_KPAVPolyLock@@W4binlog_status_enum@sys_var@@P6A_NPAV4@PAVTHD@@PAVset_var@@@ZP6A_N67W4enum_var_type@@@Z0@Z
?do_check@Sys_var_flagset@@UAE_NPAVTHD@@PAVset_var@@@Z
?session_update@Sys_var_flagset@@UAE_NPAVTHD@@PAVset_var@@@Z
?global_update@Sys_var_flagset@@UAE_NPAVTHD@@PAVset_var@@@Z
?session_save_default@Sys_var_flagset@@UAEXPAVTHD@@PAVset_var@@@Z
?global_save_default@Sys_var_flagset@@UAEXPAVTHD@@PAVset_var@@@Z
?session_value_ptr@Sys_var_flagset@@UAEPAEPAVTHD@@PAUst_mysql_lex_string@@@Z
?global_value_ptr@Sys_var_flagset@@UAEPAEPAVTHD@@PAUst_mysql_lex_string@@@Z
??1Sys_var_flagset@@UAE@XZ
??0Sys_var_set@@QAE@PBD0HHIUCMD_LINE@@QAPBD_KPAVPolyLock@@W4binlog_status_enum@sys_var@@P6A_NPAV4@PAVTHD@@PAVset_var@@@ZP6A_N67W4enum_var_type@@@Z0@Z
?do_check@Sys_var_set@@UAE_NPAVTHD@@PAVset_var@@@Z
?session_update@Sys_var_set@@UAE_NPAVTHD@@PAVset_var@@@Z
?global_update@Sys_var_set@@UAE_NPAVTHD@@PAVset_var@@@Z
?session_save_default@Sys_var_set@@UAEXPAVTHD@@PAVset_var@@@Z
?global_save_default@Sys_var_set@@UAEXPAVTHD@@PAVset_var@@@Z
?session_value_ptr@Sys_var_set@@UAEPAEPAVTHD@@PAUst_mysql_lex_string@@@Z
?global_value_ptr@Sys_var_set@@UAEPAEPAVTHD@@PAUst_mysql_lex_string@@@Z
??1Sys_var_set@@UAE@XZ
??0Sys_var_plugin@@QAE@PBD0HHIUCMD_LINE@@HPAPADPAVPolyLock@@W4binlog_status_enum@sys_var@@P6A_NPAV4@PAVTHD@@PAVset_var@@@ZP6A_N56W4enum_var_type@@@Z0H@Z
?do_check@Sys_var_plugin@@UAE_NPAVTHD@@PAVset_var@@@Z
?do_update@Sys_var_plugin@@QAEXPAPAPAUst_plugin_int@@PAPAU2@@Z
?session_update@Sys_var_plugin@@UAE_NPAVTHD@@PAVset_var@@@Z
?global_update@Sys_var_plugin@@UAE_NPAVTHD@@PAVset_var@@@Z
?session_save_default@Sys_var_plugin@@UAEXPAVTHD@@PAVset_var@@@Z
?global_save_default@Sys_var_plugin@@UAEXPAVTHD@@PAVset_var@@@Z
?check_update_type@Sys_var_plugin@@UAE_NW4Item_result@@@Z
?session_value_ptr@Sys_var_plugin@@UAEPAEPAVTHD@@PAUst_mysql_lex_string@@@Z
?global_value_ptr@Sys_var_plugin@@UAEPAEPAVTHD@@PAUst_mysql_lex_string@@@Z
??1Sys_var_plugin@@UAE@XZ
??0Sys_var_debug_sync@@QAE@PBD0HUCMD_LINE@@0PAVPolyLock@@W4binlog_status_enum@sys_var@@P6A_NPAV4@PAVTHD@@PAVset_var@@@ZP6A_N45W4enum_var_type@@@Z0H@Z
?do_check@Sys_var_debug_sync@@UAE_NPAVTHD@@PAVset_var@@@Z
?session_update@Sys_var_debug_sync@@UAE_NPAVTHD@@PAVset_var@@@Z
?global_update@Sys_var_debug_sync@@UAE_NPAVTHD@@PAVset_var@@@Z
?session_save_default@Sys_var_debug_sync@@UAEXPAVTHD@@PAVset_var@@@Z
?global_save_default@Sys_var_debug_sync@@UAEXPAVTHD@@PAVset_var@@@Z
?session_value_ptr@Sys_var_debug_sync@@UAEPAEPAVTHD@@PAUst_mysql_lex_string@@@Z
?global_value_ptr@Sys_var_debug_sync@@UAEPAEPAVTHD@@PAUst_mysql_lex_string@@@Z
?check_update_type@Sys_var_debug_sync@@UAE_NW4Item_result@@@Z
??1Sys_var_debug_sync@@UAE@XZ
?set@Sys_var_bit@@AAEXPAE_K@Z
??0Sys_var_bit@@QAE@PBD0HHIUCMD_LINE@@_KDPAVPolyLock@@W4binlog_status_enum@sys_var@@P6A_NPAV4@PAVTHD@@PAVset_var@@@ZP6A_N56W4enum_var_type@@@Z0@Z
?session_update@Sys_var_bit@@UAE_NPAVTHD@@PAVset_var@@@Z
?global_update@Sys_var_bit@@UAE_NPAVTHD@@PAVset_var@@@Z
?session_save_default@Sys_var_bit@@UAEXPAVTHD@@PAVset_var@@@Z
?global_save_default@Sys_var_bit@@UAEXPAVTHD@@PAVset_var@@@Z
?session_value_ptr@Sys_var_bit@@UAEPAEPAVTHD@@PAUst_mysql_lex_string@@@Z
?global_value_ptr@Sys_var_bit@@UAEPAEPAVTHD@@PAUst_mysql_lex_string@@@Z
??1Sys_var_bit@@UAE@XZ
??0Sys_var_session_special@@QAE@PBD0HUCMD_LINE@@_K22PAVPolyLock@@W4binlog_status_enum@sys_var@@P6A_NPAV4@PAVTHD@@PAVset_var@@@ZP6A_N67@ZP6A_K6@Z0@Z
?session_update@Sys_var_session_special@@UAE_NPAVTHD@@PAVset_var@@@Z
?global_update@Sys_var_session_special@@UAE_NPAVTHD@@PAVset_var@@@Z
?session_save_default@Sys_var_session_special@@UAEXPAVTHD@@PAVset_var@@@Z
?global_save_default@Sys_var_session_special@@UAEXPAVTHD@@PAVset_var@@@Z
?session_value_ptr@Sys_var_session_special@@UAEPAEPAVTHD@@PAUst_mysql_lex_string@@@Z
?global_value_ptr@Sys_var_session_special@@UAEPAEPAVTHD@@PAUst_mysql_lex_string@@@Z
??1Sys_var_session_special@@UAE@XZ
??0Sys_var_session_special_double@@QAE@PBD0HUCMD_LINE@@_K22PAVPolyLock@@W4binlog_status_enum@sys_var@@P6A_NPAV4@PAVTHD@@PAVset_var@@@ZP6A_N67@ZP6AN6@Z0@Z
?session_update@Sys_var_session_special_double@@UAE_NPAVTHD@@PAVset_var@@@Z
?global_update@Sys_var_session_special_double@@UAE_NPAVTHD@@PAVset_var@@@Z
?session_save_default@Sys_var_session_special_double@@UAEXPAVTHD@@PAVset_var@@@Z
?global_save_default@Sys_var_session_special_double@@UAEXPAVTHD@@PAVset_var@@@Z
?session_value_ptr@Sys_var_session_special_double@@UAEPAEPAVTHD@@PAUst_mysql_lex_string@@@Z
?global_value_ptr@Sys_var_session_special_double@@UAEPAEPAVTHD@@PAUst_mysql_lex_string@@@Z
??1Sys_var_session_special_double@@UAE@XZ
??0Sys_var_have@@QAE@PBD0HHIUCMD_LINE@@PAVPolyLock@@W4binlog_status_enum@sys_var@@P6A_NPAV4@PAVTHD@@PAVset_var@@@ZP6A_N45W4enum_var_type@@@Z0H@Z
?do_check@Sys_var_have@@UAE_NPAVTHD@@PAVset_var@@@Z
?session_update@Sys_var_have@@UAE_NPAVTHD@@PAVset_var@@@Z
?global_update@Sys_var_have@@UAE_NPAVTHD@@PAVset_var@@@Z
?session_save_default@Sys_var_have@@UAEXPAVTHD@@PAVset_var@@@Z
?global_save_default@Sys_var_have@@UAEXPAVTHD@@PAVset_var@@@Z
?session_value_ptr@Sys_var_have@@UAEPAEPAVTHD@@PAUst_mysql_lex_string@@@Z
?global_value_ptr@Sys_var_have@@UAEPAEPAVTHD@@PAUst_mysql_lex_string@@@Z
?check_update_type@Sys_var_have@@UAE_NW4Item_result@@@Z
??1Sys_var_have@@UAE@XZ
??0Sys_var_struct@@QAE@PBD0HHIUCMD_LINE@@HPAXPAVPolyLock@@W4binlog_status_enum@sys_var@@P6A_NPAV4@PAVTHD@@PAVset_var@@@ZP6A_N56W4enum_var_type@@@Z0H@Z
?do_check@Sys_var_struct@@UAE_NPAVTHD@@PAVset_var@@@Z
?session_update@Sys_var_struct@@UAE_NPAVTHD@@PAVset_var@@@Z
?global_update@Sys_var_struct@@UAE_NPAVTHD@@PAVset_var@@@Z
?session_save_default@Sys_var_struct@@UAEXPAVTHD@@PAVset_var@@@Z
?global_save_default@Sys_var_struct@@UAEXPAVTHD@@PAVset_var@@@Z
?check_update_type@Sys_var_struct@@UAE_NW4Item_result@@@Z
?session_value_ptr@Sys_var_struct@@UAEPAEPAVTHD@@PAUst_mysql_lex_string@@@Z
?global_value_ptr@Sys_var_struct@@UAEPAEPAVTHD@@PAUst_mysql_lex_string@@@Z
??1Sys_var_struct@@UAE@XZ
??0Sys_var_tz@@QAE@PBD0HHIUCMD_LINE@@PAPAVTime_zone@@PAVPolyLock@@W4binlog_status_enum@sys_var@@P6A_NPAV5@PAVTHD@@PAVset_var@@@ZP6A_N56W4enum_var_type@@@Z0H@Z
?do_check@Sys_var_tz@@UAE_NPAVTHD@@PAVset_var@@@Z
?session_update@Sys_var_tz@@UAE_NPAVTHD@@PAVset_var@@@Z
?global_update@Sys_var_tz@@UAE_NPAVTHD@@PAVset_var@@@Z
?session_save_default@Sys_var_tz@@UAEXPAVTHD@@PAVset_var@@@Z
?global_save_default@Sys_var_tz@@UAEXPAVTHD@@PAVset_var@@@Z
?session_value_ptr@Sys_var_tz@@UAEPAEPAVTHD@@PAUst_mysql_lex_string@@@Z
?global_value_ptr@Sys_var_tz@@UAEPAEPAVTHD@@PAUst_mysql_lex_string@@@Z
?check_update_type@Sys_var_tz@@UAE_NW4Item_result@@@Z
??1Sys_var_tz@@UAE@XZ
??0Sys_var_tx_isolation@@QAE@PBD0HHIUCMD_LINE@@QAPBDIPAVPolyLock@@W4binlog_status_enum@sys_var@@P6A_NPAV4@PAVTHD@@PAVset_var@@@Z@Z
?session_update@Sys_var_tx_isolation@@UAE_NPAVTHD@@PAVset_var@@@Z
??1Sys_var_tx_isolation@@UAE@XZ
??0Sys_var_tx_read_only@@QAE@PBD0HHIUCMD_LINE@@DPAVPolyLock@@W4binlog_status_enum@sys_var@@P6A_NPAV4@PAVTHD@@PAVset_var@@@Z@Z
?session_update@Sys_var_tx_read_only@@UAE_NPAVTHD@@PAVset_var@@@Z
??1Sys_var_tx_read_only@@UAE@XZ
??0Sys_var_enum_binlog_checksum@@QAE@PBD0HHIUCMD_LINE@@QAPBDIPAVPolyLock@@W4binlog_status_enum@sys_var@@@Z
?global_update@Sys_var_enum_binlog_checksum@@UAE_NPAVTHD@@PAVset_var@@@Z
??1Sys_var_enum_binlog_checksum@@UAE@XZ
??0Sys_var_gtid_specification@@QAE@PBD0HHIUCMD_LINE@@0PAVPolyLock@@W4binlog_status_enum@sys_var@@P6A_NPAV4@PAVTHD@@PAVset_var@@@ZP6A_N45W4enum_var_type@@@Z0H@Z
?session_update@Sys_var_gtid_specification@@UAE_NPAVTHD@@PAVset_var@@@Z
?global_update@Sys_var_gtid_specification@@UAE_NPAVTHD@@PAVset_var@@@Z
?session_save_default@Sys_var_gtid_specification@@UAEXPAVTHD@@PAVset_var@@@Z
?global_save_default@Sys_var_gtid_specification@@UAEXPAVTHD@@PAVset_var@@@Z
?do_check@Sys_var_gtid_specification@@UAE_NPAVTHD@@PAVset_var@@@Z
?check_update_type@Sys_var_gtid_specification@@UAE_NW4Item_result@@@Z
?session_value_ptr@Sys_var_gtid_specification@@UAEPAEPAVTHD@@PAUst_mysql_lex_string@@@Z
?global_value_ptr@Sys_var_gtid_specification@@UAEPAEPAVTHD@@PAUst_mysql_lex_string@@@Z
??1Sys_var_gtid_specification@@UAE@XZ
??0Sys_var_charptr_func@@QAE@PBD0W4flag_enum@sys_var@@@Z
?session_update@Sys_var_charptr_func@@UAE_NPAVTHD@@PAVset_var@@@Z
?global_update@Sys_var_charptr_func@@UAE_NPAVTHD@@PAVset_var@@@Z
?session_save_default@Sys_var_charptr_func@@UAEXPAVTHD@@PAVset_var@@@Z
?global_save_default@Sys_var_charptr_func@@UAEXPAVTHD@@PAVset_var@@@Z
?do_check@Sys_var_charptr_func@@UAE_NPAVTHD@@PAVset_var@@@Z
?check_update_type@Sys_var_charptr_func@@UAE_NW4Item_result@@@Z
?session_value_ptr@Sys_var_charptr_func@@UAEPAEPAVTHD@@PAUst_mysql_lex_string@@@Z
?global_value_ptr@Sys_var_charptr_func@@UAEPAEPAVTHD@@PAUst_mysql_lex_string@@@Z
??1Sys_var_charptr_func@@UAE@XZ
??0Sys_var_gtid_set_func@@QAE@PBD0W4flag_enum@sys_var@@@Z
?get_string_from_gtid_set@Sys_var_gtid_set_func@@SAPAEPAVTHD@@P6A?AW4enum_return_status@@0PAVGtid_set@@@Z@Z
??1Sys_var_gtid_set_func@@UAE@XZ
??0Sys_var_gtid_executed@@QAE@PBD0@Z
?global_value_ptr@Sys_var_gtid_executed@@UAEPAEPAVTHD@@PAUst_mysql_lex_string@@@Z
?get_groups_from_trx_cache@Sys_var_gtid_executed@@CA?AW4enum_return_status@@PAVTHD@@PAVGtid_set@@@Z
?session_value_ptr@Sys_var_gtid_executed@@UAEPAEPAVTHD@@PAUst_mysql_lex_string@@@Z
??1Sys_var_gtid_executed@@UAE@XZ
??0Sys_var_gtid_purged@@QAE@PBD0HHIUCMD_LINE@@0PAVPolyLock@@W4binlog_status_enum@sys_var@@P6A_NPAV4@PAVTHD@@PAVset_var@@@ZP6A_N45W4enum_var_type@@@Z0H@Z
?session_update@Sys_var_gtid_purged@@UAE_NPAVTHD@@PAVset_var@@@Z
?session_save_default@Sys_var_gtid_purged@@UAEXPAVTHD@@PAVset_var@@@Z
?global_update@Sys_var_gtid_purged@@UAE_NPAVTHD@@PAVset_var@@@Z
?global_save_default@Sys_var_gtid_purged@@UAEXPAVTHD@@PAVset_var@@@Z
?do_check@Sys_var_gtid_purged@@UAE_NPAVTHD@@PAVset_var@@@Z
?check_update_type@Sys_var_gtid_purged@@UAE_NW4Item_result@@@Z
?global_value_ptr@Sys_var_gtid_purged@@UAEPAEPAVTHD@@PAUst_mysql_lex_string@@@Z
?session_value_ptr@Sys_var_gtid_purged@@UAEPAEPAVTHD@@PAUst_mysql_lex_string@@@Z
??1Sys_var_gtid_purged@@UAE@XZ
??0Sys_var_gtid_owned@@QAE@PBD0@Z
?session_value_ptr@Sys_var_gtid_owned@@UAEPAEPAVTHD@@PAUst_mysql_lex_string@@@Z
?global_value_ptr@Sys_var_gtid_owned@@UAEPAEPAVTHD@@PAUst_mysql_lex_string@@@Z
??1Sys_var_gtid_owned@@UAE@XZ
?is_mts_recovery@Relay_log_info@@QBE_NXZ
??0?$Sys_var_integer@J$04$0BF@$00@@QAE@PBD0HHIUCMD_LINE@@JJJIPAVPolyLock@@W4binlog_status_enum@sys_var@@P6A_NPAV4@PAVTHD@@PAVset_var@@@ZP6A_N45W4enum_var_type@@@Z0H@Z
?do_check@?$Sys_var_integer@J$04$0BF@$00@@UAE_NPAVTHD@@PAVset_var@@@Z
?session_update@?$Sys_var_integer@J$04$0BF@$00@@UAE_NPAVTHD@@PAVset_var@@@Z
?global_update@?$Sys_var_integer@J$04$0BF@$00@@UAE_NPAVTHD@@PAVset_var@@@Z
?check_update_type@?$Sys_var_integer@J$04$0BF@$00@@UAE_NW4Item_result@@@Z
?session_save_default@?$Sys_var_integer@J$04$0BF@$00@@UAEXPAVTHD@@PAVset_var@@@Z
?global_save_default@?$Sys_var_integer@J$04$0BF@$00@@UAEXPAVTHD@@PAVset_var@@@Z
?max_var_ptr@?$Sys_var_integer@J$04$0BF@$00@@AAEPAJXZ
??1?$Sys_var_integer@J$04$0BF@$00@@UAE@XZ
??0?$Sys_var_integer@K$05$02$0A@@@QAE@PBD0HHIUCMD_LINE@@KKKIPAVPolyLock@@W4binlog_status_enum@sys_var@@P6A_NPAV4@PAVTHD@@PAVset_var@@@ZP6A_N45W4enum_var_type@@@Z0H@Z
?do_check@?$Sys_var_integer@K$05$02$0A@@@UAE_NPAVTHD@@PAVset_var@@@Z
?session_update@?$Sys_var_integer@K$05$02$0A@@@UAE_NPAVTHD@@PAVset_var@@@Z
?global_update@?$Sys_var_integer@K$05$02$0A@@@UAE_NPAVTHD@@PAVset_var@@@Z
?check_update_type@?$Sys_var_integer@K$05$02$0A@@@UAE_NW4Item_result@@@Z
?session_save_default@?$Sys_var_integer@K$05$02$0A@@@UAEXPAVTHD@@PAVset_var@@@Z
?global_save_default@?$Sys_var_integer@K$05$02$0A@@@UAEXPAVTHD@@PAVset_var@@@Z
?max_var_ptr@?$Sys_var_integer@K$05$02$0A@@@AAEPAKXZ
??1?$Sys_var_integer@K$05$02$0A@@@UAE@XZ
??0?$Sys_var_integer@H$03$01$0A@@@QAE@PBD0HHIUCMD_LINE@@HHHIPAVPolyLock@@W4binlog_status_enum@sys_var@@P6A_NPAV4@PAVTHD@@PAVset_var@@@ZP6A_N45W4enum_var_type@@@Z0H@Z
?do_check@?$Sys_var_integer@H$03$01$0A@@@UAE_NPAVTHD@@PAVset_var@@@Z
?session_update@?$Sys_var_integer@H$03$01$0A@@@UAE_NPAVTHD@@PAVset_var@@@Z
?global_update@?$Sys_var_integer@H$03$01$0A@@@UAE_NPAVTHD@@PAVset_var@@@Z
?check_update_type@?$Sys_var_integer@H$03$01$0A@@@UAE_NW4Item_result@@@Z
?session_save_default@?$Sys_var_integer@H$03$01$0A@@@UAEXPAVTHD@@PAVset_var@@@Z
?global_save_default@?$Sys_var_integer@H$03$01$0A@@@UAEXPAVTHD@@PAVset_var@@@Z
?max_var_ptr@?$Sys_var_integer@H$03$01$0A@@@AAEPAHXZ
??1?$Sys_var_integer@H$03$01$0A@@@UAE@XZ
??0?$Sys_var_integer@_K$07$0BA@$0A@@@QAE@PBD0HHIUCMD_LINE@@_K22IPAVPolyLock@@W4binlog_status_enum@sys_var@@P6A_NPAV4@PAVTHD@@PAVset_var@@@ZP6A_N56W4enum_var_type@@@Z0H@Z
?do_check@?$Sys_var_integer@_K$07$0BA@$0A@@@UAE_NPAVTHD@@PAVset_var@@@Z
?session_update@?$Sys_var_integer@_K$07$0BA@$0A@@@UAE_NPAVTHD@@PAVset_var@@@Z
?global_update@?$Sys_var_integer@_K$07$0BA@$0A@@@UAE_NPAVTHD@@PAVset_var@@@Z
?check_update_type@?$Sys_var_integer@_K$07$0BA@$0A@@@UAE_NW4Item_result@@@Z
?session_save_default@?$Sys_var_integer@_K$07$0BA@$0A@@@UAEXPAVTHD@@PAVset_var@@@Z
?global_save_default@?$Sys_var_integer@_K$07$0BA@$0A@@@UAEXPAVTHD@@PAVset_var@@@Z
?max_var_ptr@?$Sys_var_integer@_K$07$0BA@$0A@@@AAEPA_KXZ
??1?$Sys_var_integer@_K$07$0BA@$0A@@@UAE@XZ
?sql_mode_deprecation_warnings@@YAX_K@Z
?buf@?3??show_system_thread@@YAPBDW4enum_thread_type@@@Z@4PADA DATA
?hexchar_to_int@@YAHD@Z
?find_set@@YA_KPAUst_typelib@@PBDIPBUcharset_info_st@@PAPADPAIPA_N@Z
?find_type@@YAIPBUst_typelib@@PBDI_N@Z
?find_type2@@YAIPBUst_typelib@@PBDIPBUcharset_info_st@@@Z
?unhex_type2@@YAXPAUst_typelib@@@Z
?check_word@@YAIPAUst_typelib@@PBD1PAPBD@Z
?find_string_in_array@@YAHQAUst_mysql_lex_string@@0QAUcharset_info_st@@@Z
?flagset_to_string@@YAPADPAVTHD@@PAUst_mysql_lex_string@@_KQAPBD@Z
?set_to_string@@YAPADPAVTHD@@PAUst_mysql_lex_string@@_KQAPBD@Z
?strconvert@@YAIPAUcharset_info_st@@PBD0PADIPAI@Z
?view_type@@3Ust_mysql_lex_string@@B DATA
??0base_list@@QAE@ABV0@@Z
?set_type@MDL_request@@QAEXW4enum_mdl_type@@@Z
??1?$SQL_I_List@UTABLE_LIST@@@@QAE@XZ
??1st_ha_create_information@@QAE@XZ
?ok@File_parser@@QAEDXZ
??1?$List@Ust_mysql_lex_string@@@@QAE@XZ
??0?$List@UTABLE_LIST@@@@QAE@XZ
??0?$List@UTABLE_LIST@@@@QAE@ABV0@@Z
?push_back@?$List@UTABLE_LIST@@@@QAE_NPAUTABLE_LIST@@@Z
??1?$List@UTABLE_LIST@@@@QAE@XZ
??1?$List@VString@@@@QAE@XZ
?is_started@Opt_trace_context@@QBE_NXZ
?reset@sql_digest_storage@@QAEXPAEI@Z
?reset@sql_digest_storage@@QAEXXZ
?reset@sql_digest_state@@QAEXPAEI@Z
??1?$List@VKey_part_spec@@@@QAE@XZ
?copy@Name_string@@QAEXPBDI@Z
?eq@Name_string@@QBE_NPBD@Z
?eq@Name_string@@QBE_NV1@@Z
?set_autogenerated@Item_name_string@@QAEX_N@Z
?is_autogenerated@Item_name_string@@QBE_NXZ
?resolve_in_table_list_only@Name_resolution_context@@QAEXPAUTABLE_LIST@@@Z
??1Name_resolution_context@@QAE@XZ
??1?$List@VItem_field@@@@QAE@XZ
??1?$List@VAlter_drop@@@@QAE@XZ
??1?$List@VAlter_column@@@@QAE@XZ
??1?$List@VKey@@@@QAE@XZ
??1?$List@VCreate_field@@@@QAE@XZ
??1?$List@D@@QAE@XZ
??1Alter_info@@QAE@XZ
??3st_select_lex_node@@SAXPAXI@Z
??1st_select_lex_node@@UAE@XZ
?set_lock_for_tables@st_select_lex_node@@UAEXW4thr_lock_type@@@Z
?mysql_make_view@@YA_NPAVTHD@@PAUTABLE_SHARE@@PAUTABLE_LIST@@_N@Z
?next_unit@st_select_lex_unit@@QAEPAV1@XZ
?is_union@st_select_lex_unit@@QAE_NXZ
??1st_select_lex_unit@@UAE@XZ
?push_back@?$SQL_I_List@Ust_order@@@@QAEXPAV1@@Z
??1?$SQL_I_List@Ust_order@@@@QAE@XZ
??1?$List@VItem_func_match@@@@QAE@XZ
??1?$List@VItem_outer_ref@@@@QAE@XZ
??1?$List@Ust_udf_func@@@@QAE@XZ
?first_inner_unit@st_select_lex@@QAEPAVst_select_lex_unit@@XZ
?next_select_in_list@st_select_lex@@QAEPAV1@XZ
??1st_select_lex@@UAE@XZ
??1?$SQL_I_List@VSroutine_hash_entry@@@@QAE@XZ
??1Query_tables_list@@QAE@XZ
?set_stmt_unsafe_flags@Query_tables_list@@QAEXI@Z
?get_stmt_unsafe_flags@Query_tables_list@@QBEIXZ
??1?$List@Ust_lex_user@@@@QAE@XZ
??1?$List@VLEX_COLUMN@@@@QAE@XZ
??1?$List@V?$List@VItem@@@@@@QAE@XZ
??1?$List@Vset_var_base@@@@QAE@XZ
??1?$List@VItem_func_set_user_var@@@@QAE@XZ
??1?$List@VItem_param@@@@QAE@XZ
??1?$List@UName_resolution_context@@@@QAE@XZ
??1LEX@@UAE@XZ
??2st_lex_local@@SAPAXIPAUst_mem_root@@@Z
??3st_lex_local@@SAXPAXI@Z
??3st_lex_local@@SAXPAXPAUst_mem_root@@@Z
??0st_lex_local@@QAE@XZ
??1st_lex_local@@UAE@XZ
?calloc@Query_arena@@QAEPAXI@Z
?memdup@Query_arena@@QAEPAXPBXI@Z
?my_ok@@YAXPAVTHD@@_K1PBD@Z
?create_view_precheck@@YA_NPAVTHD@@PAUTABLE_LIST@@1W4enum_view_create_mode@@@Z
?mysql_create_view@@YA_NPAVTHD@@PAUTABLE_LIST@@W4enum_view_create_mode@@@Z
?mysql_drop_view@@YA_NPAVTHD@@PAUTABLE_LIST@@W4enum_drop_mode@@@Z
?check_key_in_view@@YA_NPAVTHD@@PAUTABLE_LIST@@@Z
?insert_view_fields@@YA_NPAVTHD@@PAV?$List@VItem@@@@PAUTABLE_LIST@@@Z
?view_checksum@@YAHPAVTHD@@PAUTABLE_LIST@@@Z
?check_duplicate_names@@YA_NAAV?$List@VItem@@@@_N@Z
?mysql_rename_view@@YA_NPAVTHD@@PBD1PAUTABLE_LIST@@@Z
?find_table_in_global_list@@YAPAUTABLE_LIST@@PAU1@PBD1@Z
??0Opt_trace_struct@@IAE@PAVOpt_trace_context@@_NPBDW4feature_value@1@@Z
??1Opt_trace_struct@@IAE@XZ
?add_utf8@Opt_trace_struct@@QAEAAV1@PBD0I@Z
?add_utf8@Opt_trace_struct@@QAEAAV1@PBD0@Z
?add@Opt_trace_struct@@QAEAAV1@PBD_N@Z
?add@Opt_trace_struct@@QAEAAV1@PBDI@Z
??0Opt_trace_object@@QAE@PAVOpt_trace_context@@PBDW4feature_value@1@@Z
??0Opt_trace_object@@QAE@PAVOpt_trace_context@@W4feature_value@1@@Z
??1Opt_trace_object@@QAE@XZ
?rewind@?$List_iterator_fast@VItem@@@@QAEXXZ
??0?$List_iterator_fast@Ust_mysql_lex_string@@@@QAE@AAV?$List@Ust_mysql_lex_string@@@@@Z
??E?$List_iterator_fast@Ust_mysql_lex_string@@@@QAEPAUst_mysql_lex_string@@H@Z
?rewind@?$List_iterator_fast@UTABLE_LIST@@@@QAEXXZ
?head@?$List@VIndex_hint@@@@QAEPAVIndex_hint@@XZ
??_USql_alloc@@SAPAXI@Z
??_VSql_alloc@@SAXPAXI@Z
?concat@base_list@@QAEXPAV1@@Z
?head_ref@base_list@@QAEPAPAXXZ
?is_empty@base_list@@QBE_NXZ
?ref@base_list_iterator@@QAEPAPAXXZ
??0?$SQL_I_List@UTABLE_LIST@@@@QAE@XZ
?empty@?$SQL_I_List@UTABLE_LIST@@@@QAEXXZ
?link_in_list@?$SQL_I_List@UTABLE_LIST@@@@QAEXPAUTABLE_LIST@@PAPAU2@@Z
?has_transactions@handler@@QAE_NXZ
?placeholder@TABLE_LIST@@QAE_NXZ
?head@?$List@VItem@@@@QAEPAVItem@@XZ
?head_ref@?$List@VItem@@@@QAEPAPAVItem@@XZ
?concat@?$List@VItem@@@@QAEXPAV1@@Z
?inc_current_row_for_warning@Warning_info@@AAEXXZ
?current_statement_warn_count@Warning_info@@ABEKXZ
?current_statement_warn_count@Diagnostics_area@@QBEKXZ
?inc_current_row_for_warning@Diagnostics_area@@QAEXXZ
?get_warning_info@Diagnostics_area@@AAEPAVWarning_info@@XZ
?front@?$I_P_List@VWarning_info@@U?$I_P_List_adapter@VWarning_info@@$0FA@$0FE@@@VI_P_List_counter@@V?$I_P_List_fast_push_back@VWarning_info@@@@@@QAEPAVWarning_info@@XZ
?has_insert_default_function@Field@@QBE_NXZ
??2Field@@SAPAXI@Z
??2Field@@SAPAXIPAUst_mem_root@@@Z
??3Field@@SAXPAXI@Z
??1Field@@UAE@XZ
?store_packed@Field@@UAE?AW4type_conversion_status@@_J@Z
?val_time_temporal@Field@@UAE_JXZ
?val_date_temporal@Field@@UAE_JXZ
?str_needs_quotes@Field@@UAE_NXZ
?numeric_context_result_type@Field@@UBE?AW4Item_result@@XZ
?cmp_type@Field@@UBE?AW4Item_result@@XZ
?cast_to_int_type@Field@@UBE?AW4Item_result@@XZ
?eq@Field@@UAE_NPAV1@@Z
?pack_length@Field@@UBEIXZ
?pack_length_in_rec@Field@@UBEIXZ
?pack_length_from_metadata@Field@@UAEII@Z
?row_pack_length@Field@@UBEIXZ
?save_field_metadata@Field@@UAEHPAE@Z
?data_length@Field@@UAEIXZ
?sort_length@Field@@UBEIXZ
?max_data_length@Field@@UBEIXZ
?reset@Field@@UAE?AW4type_conversion_status@@XZ
?reset_fields@Field@@UAEXXZ
?store_timestamp@Field@@UAEXPBUtimeval@@@Z
?set_default@Field@@UAEXXZ
?binary@Field@@UBE_NXZ
?zero_pack@Field@@UBE_NXZ
?key_type@Field@@UBE?AW4ha_base_keytype@@XZ
?key_length@Field@@UBEIXZ
?real_type@Field@@UBE?AW4enum_field_types@@XZ
?binlog_type@Field@@UBE?AW4enum_field_types@@XZ
?cmp_max@Field@@UAEHPBE0I@Z
?cmp_binary@Field@@UAEHPBE0I@Z
?cmp_offset@Field@@UAEHI@Z
?cmp_binary_offset@Field@@UAEHI@Z
?key_cmp@Field@@UAEHPBE0@Z
?key_cmp@Field@@UAEHPBEI@Z
?decimals@Field@@UBEIXZ
?can_be_compared_as_longlong@Field@@UBE_NXZ
?free@Field@@UAEXXZ
?move_field_offset@Field@@UAEXJ@Z
?get_image@Field@@UAEXPAEIPBUcharset_info_st@@@Z
?set_image@Field@@UAEXPBEIPBUcharset_info_st@@@Z
?get_key_image@Field@@UAEIPAEIW4imagetype@1@@Z
?set_key_image@Field@@UAEXPBEI@Z
?packed_col_length@Field@@UAEIPBEI@Z
?max_packed_col_length@Field@@UAEII@Z
?charset@Field@@UBEPBUcharset_info_st@@XZ
?charset_for_protocol@Field@@UBEPBUcharset_info_st@@XZ
?sort_charset@Field@@UBEPBUcharset_info_st@@XZ
?has_charset@Field@@UBE_NXZ
?match_collation_to_optimize_range@Field@@UBE_NXZ
?derivation@Field@@UBE?AW4Derivation@@XZ
?repertoire@Field@@UBEIXZ
?set_derivation@Field@@UAEXW4Derivation@@@Z
?char_length@Field@@UAEIXZ
?get_geometry_type@Field@@UAE?AW4geometry_type@1@XZ
?validate_stored_val@Field@@UAE?AW4type_conversion_status@@PAVTHD@@@Z
?is_updatable@Field@@UBE_NXZ
?do_save_field_metadata@Field@@EAEHPAE@Z
??0Field@@QAE@ABV0@@Z
?result_type@Field_str@@UBE?AW4Item_result@@XZ
?numeric_context_result_type@Field_str@@UBE?AW4Item_result@@XZ
?decimals@Field_str@@UBEIXZ
?repertoire@Field_str@@UBEIXZ
?charset@Field_str@@UBEPBUcharset_info_st@@XZ
?derivation@Field_str@@UBE?AW4Derivation@@XZ
?set_derivation@Field_str@@UAEXW4Derivation@@@Z
?binary@Field_str@@UBE_NXZ
?max_display_length@Field_str@@UAEIXZ
?str_needs_quotes@Field_str@@UAE_NXZ
??1Field_str@@UAE@XZ
??0Field_str@@QAE@ABV0@@Z
??0Field_longstr@@QAE@PAEI0EW4utype@Field@@PBDPBUcharset_info_st@@@Z
?is_updatable@Field_longstr@@UBE_NXZ
??1Field_longstr@@UAE@XZ
??0Field_longstr@@QAE@ABV0@@Z
??0Field_string@@QAE@I_NPBDPBUcharset_info_st@@@Z
?type@Field_string@@UBE?AW4enum_field_types@@XZ
?match_collation_to_optimize_range@Field_string@@UBE_NXZ
?key_type@Field_string@@UBE?AW4ha_base_keytype@@XZ
?zero_pack@Field_string@@UBE_NXZ
?reset@Field_string@@UAE?AW4type_conversion_status@@XZ
?store@Field_string@@UAE?AW4type_conversion_status@@N@Z
?pack_length_from_metadata@Field_string@@UAEII@Z
?row_pack_length@Field_string@@UBEIXZ
?real_type@Field_string@@UBE?AW4enum_field_types@@XZ
?has_charset@Field_string@@UBE_NXZ
?clone@Field_string@@UBEPAV1@PAUst_mem_root@@@Z
?clone@Field_string@@UBEPAV1@XZ
??1Field_string@@UAE@XZ
??0Field_string@@QAE@ABV0@@Z
??0Copy_field@@QAE@XZ
??1Copy_field@@QAE@XZ
??0Statistics@COPY_INFO@@QAE@XZ
??0COPY_INFO@@QAE@W4operation_type@0@PAV?$List@VItem@@@@1@Z
?add_function_default_columns@COPY_INFO@@QAE_NPAUTABLE@@PAUst_bitmap@@@Z
?function_defaults_apply@COPY_INFO@@QBE_NPBUTABLE@@@Z
??1COPY_INFO@@UAE@XZ
?has_triggers@Table_triggers_list@@QAE_NW4trg_event_type@@W4trg_action_time_type@@@Z
?has_update_triggers@Table_triggers_list@@QAE_NXZ
??0?$Bounds_checked_array@PAVItem@@@@QAE@XZ
?has_ft_funcs@st_select_lex@@QBE_NXZ
?is_stmt_prepare@Query_arena@@QBE_NXZ
?mark_modified_non_trans_table@THD_TRANS@@QAEXXZ
?is_strict_mode@THD@@QBE_NXZ
?change_item_tree@THD@@QAEXPAPAVItem@@PAV2@@Z
??1select_result@@UAE@XZ
?prepare@select_result@@UAEHAAV?$List@VItem@@@@PAVst_select_lex_unit@@@Z
?prepare2@select_result@@UAEHXZ
?field_count@select_result@@UBEIAAV?$List@VItem@@@@@Z
?initialize_tables@select_result@@UAE_NPAVJOIN@@@Z
?abort_result_set@select_result@@UAEXXZ
??0select_result_interceptor@@QAE@XZ
?field_count@select_result_interceptor@@UBEIAAV?$List@VItem@@@@@Z
?send_result_set_metadata@select_result_interceptor@@UAE_NAAV?$List@VItem@@@@I@Z
??1select_result_interceptor@@UAE@XZ
?cleanup@TMP_TABLE_PARAM@@QAEXXZ
??0?$List@UTABLE@@@@QAE@XZ
?push_back@?$List@UTABLE@@@@QAE_NPAUTABLE@@@Z
??1?$List@UTABLE@@@@QAE@XZ
??0multi_update@@QAE@PAUTABLE_LIST@@0PAV?$List@VItem@@@@1W4enum_duplicates@@_N@Z
??1multi_update@@UAE@XZ
?prepare@multi_update@@UAEHAAV?$List@VItem@@@@PAVst_select_lex_unit@@@Z
?send_data@multi_update@@UAE_NAAV?$List@VItem@@@@@Z
?initialize_tables@multi_update@@UAE_NPAVJOIN@@@Z
?send_error@multi_update@@UAEXIPBD@Z
?do_updates@multi_update@@QAEHXZ
?send_eof@multi_update@@UAE_NXZ
?abort_result_set@multi_update@@UAEXXZ
?mysql_prepare_update@@YA_NPAVTHD@@PAUTABLE_LIST@@PAPAVItem@@IPAUst_order@@@Z
?mysql_update@@YAHPAVTHD@@PAUTABLE_LIST@@AAV?$List@VItem@@@@2PAVItem@@IPAUst_order@@_KW4enum_duplicates@@_NPA_K8@Z
?mysql_multi_update@@YA_NPAVTHD@@PAUTABLE_LIST@@PAV?$List@VItem@@@@2PAVItem@@_KW4enum_duplicates@@_NPAVst_select_lex_unit@@PAVst_select_lex@@PAPAVmulti_update@@@Z
?records_are_comparable@@YA_NPBUTABLE@@@Z
?compare_records@@YA_NPBUTABLE@@@Z
?setup_fields_with_no_wrap@@YA_NPAVTHD@@V?$Bounds_checked_array@PAVItem@@@@AAV?$List@VItem@@@@W4enum_mark_columns@@PAV3@_N@Z
?mysql_multi_update_prepare@@YAHPAVTHD@@@Z
?set_quick@SQL_SELECT@@QAEXPAVQUICK_SELECT_I@@@Z
?check_quick@SQL_SELECT@@QAE_NPAVTHD@@_N_K@Z
?skip_record@SQL_SELECT@@QAE_NPAVTHD@@PA_N@Z
??0Filesort@@QAE@PAUst_order@@_KPAVSQL_SELECT@@@Z
??1Filesort@@QAE@XZ
?add_utf8_table@Opt_trace_struct@@QAEAAV1@PBUTABLE@@@Z
??0?$List_iterator@VItem@@@@QAE@AAV?$List@VItem@@@@@Z
??E?$List_iterator@VItem@@@@QAEPAVItem@@H@Z
?ref@?$List_iterator@VItem@@@@QAEPAPAVItem@@XZ
??0?$List_iterator_fast@UTABLE@@@@QAE@AAV?$List@UTABLE@@@@@Z
??E?$List_iterator_fast@UTABLE@@@@QAEPAUTABLE@@H@Z
?rewind@?$List_iterator_fast@UTABLE@@@@QAEXXZ
?mysql_union@@YA_NPAVTHD@@PAULEX@@PAVselect_result@@PAVst_select_lex_unit@@K@Z
?val_uint@Item@@QAE_KXZ
?reset@?$Bounds_checked_array@PAVItem@@@@QAEXXZ
?is_null@?$Bounds_checked_array@PAVItem@@@@QBE_NXZ
?assigned@Item_subselect@@QBE_NXZ
?assigned@Item_subselect@@QAEX_N@Z
?prepare@st_select_lex_unit@@QAE_NPAVTHD@@PAVselect_result@@K@Z
?optimize@st_select_lex_unit@@QAE_NXZ
?exec@st_select_lex_unit@@QAE_NXZ
?explain@st_select_lex_unit@@QAE_NXZ
?cleanup@st_select_lex_unit@@QAE_NXZ
?cleanup_level@st_select_lex_unit@@QAE_NXZ
?reinit_exec_mechanism@st_select_lex_unit@@QAEXXZ
?init_prepare_fake_select_lex@st_select_lex_unit@@QAE_NPAVTHD@@_N@Z
?change_result@st_select_lex_unit@@QAE_NPAVselect_result_interceptor@@0@Z
?get_unit_column_types@st_select_lex_unit@@QAEPAV?$List@VItem@@@@XZ
?get_field_list@st_select_lex_unit@@QAEPAV?$List@VItem@@@@XZ
??0?$List@VItem_func_match@@@@QAE@XZ
?cleanup@st_select_lex@@QAE_NXZ
?cleanup_level@st_select_lex@@QAE_NXZ
?cleanup_all_joins@st_select_lex@@QAEX_N@Z
?is_query_tables_locked@Query_tables_list@@QAE_NXZ
?get_examined_row_count@THD@@QBE_KXZ
??0TMP_TABLE_PARAM@@QAE@XZ
??1TMP_TABLE_PARAM@@QAE@XZ
??0select_union@@QAE@XZ
?prepare@select_union@@UAEHAAV?$List@VItem@@@@PAVst_select_lex_unit@@@Z
?send_data@select_union@@UAE_NAAV?$List@VItem@@@@@Z
?send_eof@select_union@@UAE_NXZ
?flush@select_union@@QAE_NXZ
?cleanup@select_union@@UAEXXZ
?create_result_table@select_union@@QAE_NPAVTHD@@PAV?$List@VItem@@@@_N_KPBD22@Z
??1select_union@@UAE@XZ
??0Explain_format_flags@@QAE@XZ
??0?$Bounds_checked_array@PAVItem_null_result@@@@QAE@XZ
??0st_rollup@@QAE@XZ
??0?$List@VCached_item@@@@QAE@XZ
??1?$List@VCached_item@@@@QAE@XZ
??0?$Mem_root_array@VKey_use@@$00@@QAE@PAUst_mem_root@@@Z
??1?$Mem_root_array@VKey_use@@$00@@QAE@XZ
?clear@?$Mem_root_array@VKey_use@@$00@@QAEXXZ
?chop@?$Mem_root_array@VKey_use@@$00@@QAEXI@Z
?empty@?$Mem_root_array@VKey_use@@$00@@QBE_NXZ
?size@?$Mem_root_array@VKey_use@@$00@@QBEIXZ
??0ORDER_with_src@JOIN@@QAE@XZ
?clean@ORDER_with_src@JOIN@@QAEXXZ
??0?$Mem_root_array@PAVItem_exists_subselect@@$00@@QAE@PAUst_mem_root@@@Z
??1?$Mem_root_array@PAVItem_exists_subselect@@$00@@QAE@XZ
?clear@?$Mem_root_array@PAVItem_exists_subselect@@$00@@QAEXXZ
?chop@?$Mem_root_array@PAVItem_exists_subselect@@$00@@QAEXI@Z
?empty@?$Mem_root_array@PAVItem_exists_subselect@@$00@@QBE_NXZ
?size@?$Mem_root_array@PAVItem_exists_subselect@@$00@@QBEIXZ
??0?$List@VSemijoin_mat_exec@@@@QAE@XZ
??1?$List@VSemijoin_mat_exec@@@@QAE@XZ
??0JOIN@@QAE@PAVTHD@@AAV?$List@VItem@@@@_KPAVselect_result@@@Z
?init@JOIN@@QAEXPAVTHD@@AAV?$List@VItem@@@@_KPAVselect_result@@@Z
??1JOIN@@QAE@XZ
??_9Item@@$BBFE@AE
??_9Item@@$BBKI@AE
?udf_init@@YAXXZ
?udf_free@@YAXXZ
?find_udf@@YAPAUst_udf_func@@PBDI_N@Z
?free_udf@@YAXPAUst_udf_func@@@Z
?mysql_create_function@@YAHPAVTHD@@PAUst_udf_func@@@Z
?mysql_drop_function@@YAHPAVTHD@@PBUst_mysql_lex_string@@@Z
get_hash_key
?chop@String@@QAEXXZ
??0base_list_iterator@@QAE@XZ
??0st_ha_create_information@@QAE@XZ
?is_temporary_table@@YA_NPAUTABLE_LIST@@@Z
?execute@Sql_cmd_truncate_table@@UAE_NPAVTHD@@@Z
?lock_table@Sql_cmd_truncate_table@@IAE_NPAVTHD@@PAUTABLE_LIST@@PA_N@Z
?handler_truncate@Sql_cmd_truncate_table@@IAE?AW4truncate_result@1@PAVTHD@@PAUTABLE_LIST@@_N@Z
?truncate_table@Sql_cmd_truncate_table@@IAE_NPAVTHD@@PAUTABLE_LIST@@@Z
??0?$List@Ust_foreign_key_info@@@@QAE@XZ
??1?$List@Ust_foreign_key_info@@@@QAE@XZ
??0?$List_iterator_fast@Ust_foreign_key_info@@@@QAE@XZ
?init@?$List_iterator_fast@Ust_foreign_key_info@@@@QAEXAAV?$List@Ust_foreign_key_info@@@@@Z
??E?$List_iterator_fast@Ust_foreign_key_info@@@@QAEPAUst_foreign_key_info@@H@Z
?sql_modes_parameters@@3UFile_option@@A DATA
?trg_action_time_type_names@@3QBUst_mysql_lex_string@@B DATA
?trg_event_type_names@@3QBUst_mysql_lex_string@@B DATA
?TRG_EXT@@3QBDB DATA
?TRN_EXT@@3QBDB DATA
??1list_node@@QAE@XZ
?remove@base_list@@QAEXPAPAUlist_node@@@Z
?remove@base_list_iterator@@QAEXXZ
??0Discrete_interval@@QAE@XZ
??0Discrete_intervals_list@@QAE@XZ
??1Discrete_intervals_list@@QAE@XZ
?set_charset@String@@QAEXPBUcharset_info_st@@@Z
?mdl_key_init@MDL_key@@QAEXW4enum_mdl_namespace@1@PBD1@Z
??0MDL_key@@QAE@W4enum_mdl_namespace@0@PBD1@Z
??0?$List@Ust_mysql_lex_string@@@@QAE@XZ
?push_back@?$List@Ust_mysql_lex_string@@@@QAE_NPAUst_mysql_lex_string@@PAUst_mem_root@@@Z
??0?$List@_K@@QAE@XZ
?push_back@?$List@_K@@QAE_NPA_KPAUst_mem_root@@@Z
??1?$List@_K@@QAE@XZ
??0Table_triggers_list@@QAE@PAUTABLE@@@Z
??1Table_triggers_list@@QAE@XZ
?create_trigger@Table_triggers_list@@QAE_NPAVTHD@@PAUTABLE_LIST@@PAVString@@@Z
?drop_trigger@Table_triggers_list@@QAE_NPAVTHD@@PAUTABLE_LIST@@PAVString@@@Z
?process_triggers@Table_triggers_list@@QAE_NPAVTHD@@W4trg_event_type@@W4trg_action_time_type@@_N@Z
?get_trigger_info@Table_triggers_list@@QAE_NPAVTHD@@W4trg_event_type@@W4trg_action_time_type@@PAUst_mysql_lex_string@@3PA_K3333@Z
?get_trigger_info@Table_triggers_list@@QAEXPAVTHD@@HPAUst_mysql_lex_string@@PA_K1111@Z
?find_trigger_by_name@Table_triggers_list@@QAEHPBUst_mysql_lex_string@@@Z
?check_n_load@Table_triggers_list@@SA_NPAVTHD@@PBD1PAUTABLE@@_N@Z
?drop_all_triggers@Table_triggers_list@@SA_NPAVTHD@@PAD1@Z
?change_table_name@Table_triggers_list@@SA_NPAVTHD@@PBD1111@Z
?set_table@Table_triggers_list@@QAEXPAUTABLE@@@Z
?mark_fields_used@Table_triggers_list@@QAEXW4trg_event_type@@@Z
?set_parse_error_message@Table_triggers_list@@QAEXPAD@Z
?add_tables_and_routines_for_triggers@Table_triggers_list@@QAE_NPAVTHD@@PAVQuery_tables_list@@PAUTABLE_LIST@@@Z
?is_fields_updated_in_trigger@Table_triggers_list@@QAE_NPAUst_bitmap@@W4trg_event_type@@W4trg_action_time_type@@@Z
?prepare_record1_accessors@Table_triggers_list@@AAE_NXZ
?change_table_name_in_trignames@Table_triggers_list@@AAEPAUst_mysql_lex_string@@PBD0PAU2@1@Z
?change_table_name_in_triggers@Table_triggers_list@@AAE_NPAVTHD@@PBD1PAUst_mysql_lex_string@@2@Z
?check_for_broken_triggers@Table_triggers_list@@AAE_NXZ
?add_table_for_trigger@@YA_NPAVTHD@@PBVsp_name@@_NPAPAUTABLE_LIST@@@Z
?build_trn_path@@YAXPAVTHD@@PBVsp_name@@PAUst_mysql_lex_string@@@Z
?check_trn_exists@@YA_NPBUst_mysql_lex_string@@@Z
?load_table_name_for_trigger@@YA_NPAVTHD@@PBVsp_name@@PBUst_mysql_lex_string@@PAU3@@Z
?mysql_create_or_drop_trigger@@YA_NPAVTHD@@PAUTABLE_LIST@@_N@Z
??0?$SQL_I_List@VSroutine_hash_entry@@@@QAE@XZ
?empty@?$SQL_I_List@VSroutine_hash_entry@@@@QAEXXZ
??0Query_tables_list@@QAE@XZ
??0Sub_statement_state@@QAE@XZ
??1Sub_statement_state@@QAE@XZ
?reset_db@THD@@QAEXPADI@Z
??0Stored_program_creation_ctx@@IAE@PAVTHD@@@Z
?get_creation_ctx@sp_head@@QAEPAVStored_program_creation_ctx@@XZ
?name@sp_head@@QBEPADPAI@Z
?propagate_attributes@sp_head@@QAEXPAVQuery_tables_list@@@Z
?open_n_lock_single_table@@YAPAUTABLE@@PAVTHD@@PAUTABLE_LIST@@W4thr_lock_type@@I@Z
??$alloc_type@Ust_mysql_lex_string@@@@YAPAUst_mysql_lex_string@@PAUst_mem_root@@@Z
??$alloc_type@_K@@YAPA_KPAUst_mem_root@@@Z
?alloc_lex_string@@YAPAUst_mysql_lex_string@@PAUst_mem_root@@@Z
?create@Trigger_creation_ctx@@SAPAV1@PAVTHD@@PBD1PBUst_mysql_lex_string@@22@Z
?clone@Trigger_creation_ctx@@UAEPAVStored_program_creation_ctx@@PAUst_mem_root@@@Z
?create_backup_ctx@Trigger_creation_ctx@@MBEPAVObject_creation_ctx@@PAVTHD@@@Z
??0Trigger_creation_ctx@@AAE@PAVTHD@@@Z
??0Trigger_creation_ctx@@AAE@PBUcharset_info_st@@00@Z
??1Trigger_creation_ctx@@UAE@XZ
??0Handle_old_incorrect_sql_modes_hook@@QAE@PAD@Z
?process_unknown_string@Handle_old_incorrect_sql_modes_hook@@UAE_NAAPBDPAEPAUst_mem_root@@PBD@Z
??1Handle_old_incorrect_sql_modes_hook@@UAE@XZ
??0Handle_old_incorrect_trigger_table_hook@@QAE@PADPAUst_mysql_lex_string@@@Z
?process_unknown_string@Handle_old_incorrect_trigger_table_hook@@UAE_NAAPBDPAEPAUst_mem_root@@PBD@Z
??1Handle_old_incorrect_trigger_table_hook@@UAE@XZ
??0Deprecated_trigger_syntax_handler@@QAE@XZ
?handle_condition@Deprecated_trigger_syntax_handler@@UAE_NPAVTHD@@IPBDW4enum_warning_level@Sql_condition@@1PAPAV4@@Z
?get_trigger_name@Deprecated_trigger_syntax_handler@@QAEPAUst_mysql_lex_string@@XZ
?get_error_message@Deprecated_trigger_syntax_handler@@QAEPADXZ
??1Deprecated_trigger_syntax_handler@@UAE@XZ
?rewind@?$List_iterator_fast@Ust_mysql_lex_string@@@@QAEXXZ
??0?$List_iterator@_K@@QAE@AAV?$List@_K@@@Z
??E?$List_iterator@_K@@QAEPA_KH@Z
?remove@?$List_iterator@_K@@QAEXXZ
??0?$List_iterator@Ust_mysql_lex_string@@@@QAE@AAV?$List@Ust_mysql_lex_string@@@@@Z
??E?$List_iterator@Ust_mysql_lex_string@@@@QAEPAUst_mysql_lex_string@@H@Z
?remove@?$List_iterator@Ust_mysql_lex_string@@@@QAEXXZ
??0?$List_iterator_fast@_K@@QAE@AAV?$List@_K@@@Z
??E?$List_iterator_fast@_K@@QAEPA_KH@Z
??_USql_alloc@@SAPAXIPAUst_mem_root@@@Z
??_VSql_alloc@@SAXPAXPAUst_mem_root@@@Z
??0String@@QAE@ABV0@@Z
?ha_index_or_rnd_end@handler@@QAEHXZ
?max_key_parts@handler@@QBEIXZ
?max_key_length@handler@@QBEIXZ
??4Filesort_buffer@@QAEAAV0@ABV0@@Z
??4Table_id@@QAEXABV0@@Z
??4Filesort_info@@QAEAAV0@ABV0@@Z
??4TABLE_SHARE@@QAEAAU0@ABU0@@Z
?set_created@TABLE@@QAEXXZ
?set_deleted@TABLE@@QAEXXZ
??4TABLE@@QAEAAU0@ABU0@@Z
??3Field@@SAXPAXPAUst_mem_root@@@Z
?is_real_null@Field@@QBE_NJ@Z
?maybe_null@Field@@QBE_NXZ
?new_key_field@Field@@QAEPAV1@PAUst_mem_root@@PAUTABLE@@PAE@Z
?move_field@Field@@QAEXPAE0E@Z
?move_field@Field@@QAEXPAE@Z
?handle_int32@Field@@KAXPAEPBE_N2@Z
?handle_int64@Field@@KAXPAEPBE_N2@Z
?pack_int32@Field@@IAEPAEPAEPBE_N@Z
?unpack_int32@Field@@IAEPBEPAEPBE_N@Z
?pack_int64@Field@@IAEPAEPAEPBE_N@Z
?unpack_int64@Field@@IAEPBEPAEPBE_N@Z
?result_type@Field_num@@UBE?AW4Item_result@@XZ
?derivation@Field_num@@UBE?AW4Derivation@@XZ
?repertoire@Field_num@@UBEIXZ
?charset@Field_num@@UBEPBUcharset_info_st@@XZ
?decimals@Field_num@@UBEIXZ
?row_pack_length@Field_num@@UBEIXZ
?pack_length_from_metadata@Field_num@@UAEII@Z
??1Field_num@@UAE@XZ
??0Field_num@@QAE@ABV0@@Z
??0Field_real@@QAE@PAEI0EW4utype@Field@@PBDE_N3@Z
?max_display_length@Field_real@@UAEIXZ
??1Field_real@@UAE@XZ
??0Field_real@@QAE@ABV0@@Z
??0Field_long@@QAE@I_NPBD0@Z
?result_type@Field_long@@UBE?AW4Item_result@@XZ
?type@Field_long@@UBE?AW4enum_field_types@@XZ
?key_type@Field_long@@UBE?AW4ha_base_keytype@@XZ
?reset@Field_long@@UAE?AW4type_conversion_status@@XZ
?pack_length@Field_long@@UBEIXZ
?max_display_length@Field_long@@UAEIXZ
?clone@Field_long@@UBEPAV1@PAUst_mem_root@@@Z
?clone@Field_long@@UBEPAV1@XZ
?pack@Field_long@@UAEPAEPAEPBEI_N@Z
?unpack@Field_long@@UAEPBEPAEPBEI_N@Z
??1Field_long@@UAE@XZ
??0Field_long@@QAE@ABV0@@Z
??0Field_longlong@@QAE@I_NPBD0@Z
?result_type@Field_longlong@@UBE?AW4Item_result@@XZ
?type@Field_longlong@@UBE?AW4enum_field_types@@XZ
?key_type@Field_longlong@@UBE?AW4ha_base_keytype@@XZ
?reset@Field_longlong@@UAE?AW4type_conversion_status@@XZ
?pack_length@Field_longlong@@UBEIXZ
?can_be_compared_as_longlong@Field_longlong@@UBE_NXZ
?max_display_length@Field_longlong@@UAEIXZ
?clone@Field_longlong@@UBEPAV1@PAUst_mem_root@@@Z
?clone@Field_longlong@@UBEPAV1@XZ
?pack@Field_longlong@@UAEPAEPAEPBEI_N@Z
?unpack@Field_longlong@@UAEPBEPAEPBEI_N@Z
??1Field_longlong@@UAE@XZ
??0Field_longlong@@QAE@ABV0@@Z
??0Field_double@@QAE@I_NPBDED@Z
?type@Field_double@@UBE?AW4enum_field_types@@XZ
?key_type@Field_double@@UBE?AW4ha_base_keytype@@XZ
?reset@Field_double@@UAE?AW4type_conversion_status@@XZ
?pack_length@Field_double@@UBEIXZ
?row_pack_length@Field_double@@UBEIXZ
?clone@Field_double@@UBEPAV1@PAUst_mem_root@@@Z
?clone@Field_double@@UBEPAV1@XZ
??1Field_double@@UAE@XZ
??0Field_double@@QAE@ABV0@@Z
??0Field_string@@QAE@PAEI0EW4utype@Field@@PBDPBUcharset_info_st@@@Z
??0Field_varstring@@QAE@I_NPBDPAUTABLE_SHARE@@PBUcharset_info_st@@@Z
?type@Field_varstring@@UBE?AW4enum_field_types@@XZ
?match_collation_to_optimize_range@Field_varstring@@UBE_NXZ
?row_pack_length@Field_varstring@@UBEIXZ
?zero_pack@Field_varstring@@UBE_NXZ
?reset@Field_varstring@@UAE?AW4type_conversion_status@@XZ
?pack_length@Field_varstring@@UBEIXZ
?key_length@Field_varstring@@UBEIXZ
?sort_length@Field_varstring@@UBEIXZ
?store@Field_varstring@@UAE?AW4type_conversion_status@@N@Z
?cmp@Field_varstring@@UAEHPBE0@Z
?real_type@Field_varstring@@UBE?AW4enum_field_types@@XZ
?has_charset@Field_varstring@@UBE_NXZ
?clone@Field_varstring@@UBEPAV1@PAUst_mem_root@@@Z
?clone@Field_varstring@@UBEPAV1@XZ
??1Field_varstring@@UAE@XZ
??0Field_varstring@@QAE@ABV0@@Z
??0Field_blob@@QAE@I_NPBDPBUcharset_info_st@@@Z
?type@Field_blob@@UBE?AW4enum_field_types@@XZ
?match_collation_to_optimize_range@Field_blob@@UBE_NXZ
?key_type@Field_blob@@UBE?AW4ha_base_keytype@@XZ
?cmp@Field_blob@@UAEHPBE0@Z
?key_length@Field_blob@@UBEIXZ
?pack_length@Field_blob@@UBEIXZ
?pack_length_no_ptr@Field_blob@@QBEIXZ
?row_pack_length@Field_blob@@UBEIXZ
?max_data_length@Field_blob@@UBEIXZ
?reset@Field_blob@@UAE?AW4type_conversion_status@@XZ
?reset_fields@Field_blob@@UAEXXZ
?clone@Field_blob@@UBEPAV1@PAUst_mem_root@@@Z
?clone@Field_blob@@UBEPAV1@XZ
?free@Field_blob@@UAEXXZ
?has_charset@Field_blob@@UBE_NXZ
??1Field_blob@@UAE@XZ
??0Field_blob@@QAE@ABV0@@Z
?set_bit_ptr@Field_bit@@QAEXPAEE@Z
?get_arg@Item_sum@@QAEPAVItem@@I@Z
?get_arg_count@Item_sum@@QBEIXZ
?get_sp_result_field@Item_func_sp@@QAEPAVField@@XZ
?get_item@Item_copy@@QAEPAVItem@@XZ
?free_tmp_table@@YAXPAVTHD@@PAUTABLE@@@Z
?create_tmp_table@@YAPAUTABLE@@PAVTHD@@PAVTMP_TABLE_PARAM@@AAV?$List@VItem@@@@PAUst_order@@_N4_K5PBD@Z
?create_virtual_tmp_table@@YAPAUTABLE@@PAVTHD@@AAV?$List@VCreate_field@@@@@Z
?create_myisam_from_heap@@YA_NPAVTHD@@PAUTABLE@@PAUst_columndef@@PAPAU3@H_NPA_N@Z
?create_duplicate_weedout_tmp_table@@YAPAUTABLE@@PAVTHD@@IPAVSJ_TMP_TABLE@@@Z
?instantiate_tmp_table@@YA_NPAUTABLE@@PAUst_key@@PAUst_columndef@@PAPAU3@_KDPAVOpt_trace_context@@@Z
?create_tmp_field@@YAPAVField@@PAVTHD@@PAUTABLE@@PAVItem@@W4Type@4@PAPAPAV4@PAPAV1@5_N666@Z
?create_tmp_field_from_field@@YAPAVField@@PAVTHD@@PAV1@PBDPAUTABLE@@PAVItem_field@@@Z
?add_alnum@Opt_trace_struct@@QAEAAV1@PBD0@Z
?add@Opt_trace_struct@@QAEAAV1@PBDK@Z
?add@Opt_trace_struct@@QAEAAV1@PBD_K@Z
??$min@_K@std@@YAAB_KAB_K0@Z
??0?$List_iterator_fast@VCreate_field@@@@QAE@AAV?$List@VCreate_field@@@@@Z
??E?$List_iterator_fast@VCreate_field@@@@QAEPAVCreate_field@@H@Z
?open_tmp_table@@YA_NPAUTABLE@@@Z
?create_myisam_tmp_table@@YA_NPAUTABLE@@PAUst_key@@PAUst_columndef@@PAPAU3@_KD@Z
?trace_tmp_table@@YAXPAVOpt_trace_context@@PBUTABLE@@@Z
??$_Debug_lt@_K_K@std@@YA_NAB_K0PB_WI@Z
?known_date_time_formats@@3PAUst_known_date_time_format@@A DATA
?interval_type_to_name@@3PAUst_mysql_lex_string@@A DATA
?check_result@@YAHIH@Z
?my_decimal2lldiv_t@@YAHIPBVmy_decimal@@PAU_lldiv_t@@@Z
??0ErrConvString@@QAE@_J@Z
?convert_period_to_month@@YAKK@Z
?convert_month_to_period@@YAKK@Z
?mix_date_and_time@@YAXPAUst_mysql_time@@PBU1@@Z
?get_date_from_daynr@@YAXJPAI00@Z
?TIME_to_timestamp@@YAJPAVTHD@@PBUst_mysql_time@@PAD@Z
?datetime_with_no_zero_in_date_to_timeval@@YA_NPAVTHD@@PBUst_mysql_time@@PAUtimeval@@PAH@Z
?datetime_to_timeval@@YA_NPAVTHD@@PBUst_mysql_time@@PAUtimeval@@PAH@Z
?str_to_datetime_with_warn@@YA_NPAVString@@PAUst_mysql_time@@I@Z
?my_decimal_to_datetime_with_warn@@YA_NPBVmy_decimal@@PAUst_mysql_time@@I@Z
?my_double_to_datetime_with_warn@@YA_NNPAUst_mysql_time@@I@Z
?my_longlong_to_datetime_with_warn@@YA_N_JPAUst_mysql_time@@I@Z
?my_decimal_to_time_with_warn@@YA_NPBVmy_decimal@@PAUst_mysql_time@@@Z
?my_double_to_time_with_warn@@YA_NNPAUst_mysql_time@@@Z
?my_longlong_to_time_with_warn@@YA_N_JPAUst_mysql_time@@@Z
?str_to_time_with_warn@@YA_NPAVString@@PAUst_mysql_time@@@Z
?time_to_datetime@@YAXPAVTHD@@PBUst_mysql_time@@PAU2@@Z
?make_truncated_value_warning@@YAXPAVTHD@@W4enum_warning_level@Sql_condition@@VErrConvString@@W4enum_mysql_timestamp_type@@PBD@Z
?make_truncated_value_warning@@YAXVErrConvString@@W4enum_mysql_timestamp_type@@@Z
?date_time_format_make@@YAPAUst_date_time_format@@W4enum_mysql_timestamp_type@@PBDI@Z
?date_time_format_copy@@YAPAUst_date_time_format@@PAVTHD@@PAU1@@Z
?get_date_time_format_str@@YAPBDPAUst_known_date_time_format@@W4enum_mysql_timestamp_type@@@Z
?make_date@@YAXPBUst_date_time_format@@PBUst_mysql_time@@PAVString@@@Z
?make_time@@YAXPBUst_date_time_format@@PBUst_mysql_time@@PAVString@@I@Z
?make_datetime@@YAXPBUst_date_time_format@@PBUst_mysql_time@@PAVString@@I@Z
?my_TIME_to_str@@YA_NPBUst_mysql_time@@PAVString@@I@Z
?date_add_interval@@YA_NPAUst_mysql_time@@W4interval_type@@UINTERVAL@@@Z
?calc_time_diff@@YA_NPBUst_mysql_time@@0HPA_JPAJ@Z
?my_time_compare@@YAHPAUst_mysql_time@@0@Z
?localtime_to_TIME@@YAXPAUst_mysql_time@@PAUtm@@@Z
?calc_time_from_sec@@YAXPAUst_mysql_time@@_JJ@Z
?calc_week@@YAIPAUst_mysql_time@@IPAI@Z
?calc_weekday@@YAHJ_N@Z
?parse_date_time_format@@YA_NW4enum_mysql_timestamp_type@@PBDIPAUst_date_time_format@@@Z
?str_to_time@@YA_NPBUcharset_info_st@@PBDIPAUst_mysql_time@@IPAUst_mysql_time_status@@@Z
?time_add_nanoseconds_with_round@@YA_NPAUst_mysql_time@@IPAH@Z
?str_to_datetime@@YA_NPBUcharset_info_st@@PBDIPAUst_mysql_time@@IPAUst_mysql_time_status@@@Z
?datetime_add_nanoseconds_with_round@@YA_NPAUst_mysql_time@@IPAH@Z
?my_time_fraction_remainder@@YAJJI@Z
?my_time_trunc@@YAXPAUst_mysql_time@@I@Z
?my_timeval_trunc@@YAXPAUtimeval@@I@Z
?my_time_round@@YA_NPAUst_mysql_time@@I@Z
?my_datetime_round@@YA_NPAUst_mysql_time@@IPAH@Z
?my_timeval_round@@YA_NPAUtimeval@@I@Z
?TIME_to_longlong_packed@@YA_JPBUst_mysql_time@@W4enum_field_types@@@Z
?TIME_from_longlong_packed@@YAXPAUst_mysql_time@@W4enum_field_types@@_J@Z
?my_decimal_from_datetime_packed@@YAPAVmy_decimal@@PAV1@W4enum_field_types@@_J@Z
?longlong_from_datetime_packed@@YA_JW4enum_field_types@@_J@Z
?double_from_datetime_packed@@YANW4enum_field_types@@_J@Z
?time_zone@THD@@QAEPAVTime_zone@@XZ
?lock_descriptions@@3PAPBDA DATA
?print@?$Bitmap@$0EA@@@QBEPADPAD@Z
??0Cost_estimate@@QAE@XZ
??0st_position@@QAE@XZ
??1st_position@@QAE@XZ
?print_where@@YAXPAVItem@@PBDW4enum_query_type@@@Z
?TEST_join@@YAXPAVJOIN@@@Z
?print_plan@@YAXPAVJOIN@@INNNPBD@Z
?mysql_print_status@@YAXXZ
?print_keyuse_array@@YAXPAVOpt_trace_context@@PBV?$Mem_root_array@VKey_use@@$00@@@Z
?add@Opt_trace_struct@@QAEAAV1@PBDPAVItem@@@Z
??0Opt_trace_array@@QAE@PAVOpt_trace_context@@PBDW4feature_value@1@@Z
??1Opt_trace_array@@QAE@XZ
?at@?$Mem_root_array@VKey_use@@$00@@QBEABVKey_use@@I@Z
?mysql_alter_tablespace@@YAHPAVTHD@@PAVst_alter_tablespace@@@Z
?symdir_warning_emitted@@3_NA DATA
?primary_key_name@@3PBDB DATA
?LOCK_gdl@@3Ust_mysql_mutex@@A DATA
?swap@base_list@@QAEXAAV1@@Z
?after@base_list@@IAEXPAXPAUlist_node@@@Z
?replace@base_list_iterator@@QAEPAXPAX@Z
?after@base_list_iterator@@QAEXPAX@Z
??0I_P_List_counter@@IAE@XZ
?inc@I_P_List_counter@@IAEXXZ
??0Alter_inplace_info@@QAE@PAUst_ha_create_information@@PAVAlter_info@@PAUst_key@@IPAVpartition_info@@_N@Z
??1Alter_inplace_info@@QAE@XZ
?restore_auto_increment@handler@@QAEX_K@Z
?max_keys@handler@@QBEIXZ
?max_key_part_length@handler@@QBEIXZ
?ha_inplace_alter_table@handler@@QAE_NPAUTABLE@@PAVAlter_inplace_info@@@Z
?ha_notify_table_changed@handler@@QAEXXZ
?table_case_name@@YAPBDPAUst_ha_create_information@@PBD@Z
?column_bitmaps_set_no_signal@TABLE@@QAEXPAUst_bitmap@@0@Z
?reset_current_row_for_warning@Warning_info@@AAEXXZ
??0ErrConvString@@QAE@PBDI@Z
?is_set@Diagnostics_area@@QBE_NXZ
?has_sql_condition@Diagnostics_area@@QBE_NPBDK@Z
?reset_current_row_for_warning@Diagnostics_area@@QAEXXZ
?is_timestamp_type@@YA_NW4enum_field_types@@@Z
??0?$List@VString@@@@QAE@XZ
??0Create_field@@QAE@XZ
?filename_to_tablename@@YAIPBDPADI_N@Z
?tablename_to_filename@@YAIPBDPADI@Z
?check_n_cut_mysql50_prefix@@YAIPBDPADI@Z
?check_mysql50_prefix@@YA_NPBD@Z
?build_table_filename@@YAIPADIPBD11IPA_N@Z
?build_table_shadow_filename@@YAIPADIPAUst_lock_param_type@@@Z
?build_tmptable_filename@@YAIPAVTHD@@PADI@Z
?mysql_create_table@@YA_NPAVTHD@@PAUTABLE_LIST@@PAUst_ha_create_information@@PAVAlter_info@@@Z
?mysql_create_table_no_lock@@YA_NPAVTHD@@PBD1PAUst_ha_create_information@@PAVAlter_info@@IPA_N@Z
?mysql_discard_or_import_tablespace@@YAHPAVTHD@@PAUTABLE_LIST@@_N@Z
?mysql_prepare_alter_table@@YA_NPAVTHD@@PAUTABLE@@PAUst_ha_create_information@@PAVAlter_info@@PAVAlter_table_ctx@@@Z
?mysql_trans_prepare_alter_copy_data@@YA_NPAVTHD@@@Z
?mysql_trans_commit_alter_copy_data@@YA_NPAVTHD@@@Z
?mysql_alter_table@@YA_NPAVTHD@@PAD1PAUst_ha_create_information@@PAUTABLE_LIST@@PAVAlter_info@@IPAUst_order@@_N@Z
?mysql_compare_tables@@YA_NPAUTABLE@@PAVAlter_info@@PAUst_ha_create_information@@PA_N@Z
?mysql_recreate_table@@YA_NPAVTHD@@PAUTABLE_LIST@@_N@Z
?mysql_create_like_table@@YA_NPAVTHD@@PAUTABLE_LIST@@1PAUst_ha_create_information@@@Z
?mysql_rename_table@@YA_NPAUhandlerton@@PBD111I@Z
?mysql_checksum_table@@YA_NPAVTHD@@PAUTABLE_LIST@@PAUst_ha_check_opt@@@Z
?mysql_rm_table@@YA_NPAVTHD@@PAUTABLE_LIST@@DD@Z
?mysql_rm_table_no_locks@@YAHPAVTHD@@PAUTABLE_LIST@@_N222@Z
?quick_rm_table@@YA_NPAVTHD@@PAUhandlerton@@PBD2I@Z
?fill_field_definition@@YA_NPAVTHD@@PAVsp_head@@W4enum_field_types@@PAVCreate_field@@@Z
?prepare_create_field@@YAHPAVCreate_field@@PAI_J@Z
?get_sql_field_charset@@YAPBUcharset_info_st@@PAVCreate_field@@PAUst_ha_create_information@@@Z
?mysql_write_frm@@YA_NPAUst_lock_param_type@@I@Z
?write_bin_log@@YAHPAVTHD@@_NPBDK1@Z
?write_ddl_log_entry@@YA_NPAUst_ddl_log_entry@@PAPAUst_ddl_log_memory_entry@@@Z
?write_execute_ddl_log_entry@@YA_NI_NPAPAUst_ddl_log_memory_entry@@@Z
?deactivate_ddl_log_entry@@YA_NI@Z
?release_ddl_log_memory_entry@@YAXPAUst_ddl_log_memory_entry@@@Z
?sync_ddl_log@@YA_NXZ
?release_ddl_log@@YAXXZ
?execute_ddl_log_recovery@@YAXXZ
?execute_ddl_log_entry@@YA_NPAVTHD@@I@Z
?validate_comment_length@@YA_NPAVTHD@@PBDPAIII1@Z
?promote_first_timestamp_column@@YAXPAV?$List@VCreate_field@@@@@Z
?explain_filename@@YAIPAVTHD@@PBDPADIW4enum_explain_filename_mode@@@Z
?store@Protocol@@QAE_N_K@Z
?remove_last_row@Protocol@@QAEXXZ
??0Key_part_spec@@QAE@PBDII@Z
??0?$List@VKey_part_spec@@@@QAE@XZ
??0?$List@VKey_part_spec@@@@QAE@ABV0@@Z
?push_back@?$List@VKey_part_spec@@@@QAE_NPAVKey_part_spec@@@Z
??0Key@@QAE@W4Keytype@0@PBDIPAUst_key_create_information@@_NAAV?$List@VKey_part_spec@@@@@Z
??1Key@@UAE@XZ
?clone@Key@@UBEPAV1@PAUst_mem_root@@@Z
??0Item_num@@QAE@XZ
?check_partition_func_processor@Item_num@@UAE_NPAE@Z
??1Item_num@@UAE@XZ
??0Item_int@@QAE@PAV0@@Z
??0Item_int@@QAE@ABVName_string@@_JI@Z
?type@Item_int@@UBE?AW4Type@Item@@XZ
?result_type@Item_int@@UBE?AW4Item_result@@XZ
?field_type@Item_int@@UBE?AW4enum_field_types@@XZ
?val_int@Item_int@@UAE_JXZ
?val_real@Item_int@@UAENXZ
?get_date@Item_int@@UAE_NPAUst_mysql_time@@I@Z
?get_time@Item_int@@UAE_NPAUst_mysql_time@@@Z
?basic_const_item@Item_int@@UBE_NXZ
?clone_item@Item_int@@UAEPAVItem@@XZ
?neg@Item_int@@UAEPAVItem_num@@XZ
?decimal_precision@Item_int@@UBEIXZ
?check_partition_func_processor@Item_int@@UAE_NPAE@Z
??1Item_int@@UAE@XZ
??0Item_temporal_func@@QAE@XZ
?result_type@Item_temporal_func@@UBE?AW4Item_result@@XZ
?charset_for_protocol@Item_temporal_func@@UBEPAUcharset_info_st@@XZ
?tmp_table_field@Item_temporal_func@@UAEPAVField@@PAUTABLE@@@Z
?time_precision@Item_temporal_func@@UAEIXZ
?datetime_precision@Item_temporal_func@@UAEIXZ
??1Item_temporal_func@@UAE@XZ
??0Item_datetime_func@@QAE@XZ
?field_type@Item_datetime_func@@UBE?AW4enum_field_types@@XZ
?val_real@Item_datetime_func@@UAENXZ
?val_str@Item_datetime_func@@UAEPAVString@@PAV2@@Z
?val_int@Item_datetime_func@@UAE_JXZ
?val_decimal@Item_datetime_func@@UAEPAVmy_decimal@@PAV2@@Z
?save_in_field@Item_datetime_func@@UAE?AW4type_conversion_status@@PAVField@@_N@Z
?get_time@Item_datetime_func@@UAE_NPAUst_mysql_time@@@Z
??1Item_datetime_func@@UAE@XZ
?reset_string@MYSQL_TIME_cache@@AAEXXZ
?reset@MYSQL_TIME_cache@@AAEXXZ
?get_TIME@MYSQL_TIME_cache@@ABEXPAUst_mysql_time@@@Z
??0MYSQL_TIME_cache@@QAE@XZ
?val_packed@MYSQL_TIME_cache@@QBE_JXZ
?get_time@MYSQL_TIME_cache@@QBE_NPAUst_mysql_time@@@Z
??0Item_func_now@@QAE@E@Z
?val_date_temporal@Item_func_now@@UAE_JXZ
?get_date@Item_func_now@@UAE_NPAUst_mysql_time@@I@Z
?val_str@Item_func_now@@UAEPAVString@@PAV2@@Z
??1Item_func_now@@UAE@XZ
??0Item_func_now_local@@QAE@E@Z
?func_name@Item_func_now_local@@UBEPBDXZ
?functype@Item_func_now_local@@UBE?AW4Functype@Item_func@@XZ
??1Item_func_now_local@@UAE@XZ
??0?$List@VAlter_drop@@@@QAE@XZ
?head@?$List@VAlter_drop@@@@QAEPAVAlter_drop@@XZ
??0?$List@VAlter_column@@@@QAE@XZ
?head@?$List@VAlter_column@@@@QAEPAVAlter_column@@XZ
??0?$List@VKey@@@@QAE@XZ
?push_back@?$List@VKey@@@@QAE_NPAVKey@@@Z
??0?$List@VCreate_field@@@@QAE@XZ
?push_back@?$List@VCreate_field@@@@QAE_NPAVCreate_field@@@Z
?push_front@?$List@VCreate_field@@@@QAE_NPAVCreate_field@@@Z
??0?$List@D@@QAE@XZ
??0Alter_info@@QAE@XZ
?is_database_changed@Alter_table_ctx@@QBE_NXZ
?is_table_renamed@Alter_table_ctx@@QBE_NXZ
?get_new_filename@Alter_table_ctx@@QBEPBDXZ
?get_new_path@Alter_table_ctx@@QBEPBDXZ
?get_tmp_path@Alter_table_ctx@@QBEPBDXZ
?set_fk_error_if_delete_row@Alter_table_ctx@@QAEXPAUst_foreign_key_info@@@Z
?set_stmt_unsafe@Query_tables_list@@QAEXW4enum_binlog_stmt_unsafe@1@@Z
?mark_created_temp_table@THD_TRANS@@QAEXXZ
?mark_dropped_temp_table@THD_TRANS@@QAEXXZ
??0Drop_table_error_handler@@QAE@XZ
??1Drop_table_error_handler@@UAE@XZ
?is_empty@?$base_ilist@UItem_change_record@@@@QBE_NXZ
?killed_errno@THD@@QBEHXZ
?send_kill_message@THD@@QBEXXZ
??0Alter_table_prelocking_strategy@@QAE@XZ
??1Alter_table_prelocking_strategy@@UAE@XZ
?open_tables@@YA_NPAVTHD@@PAPAUTABLE_LIST@@PAII@Z
??0?$List@Vpartition_element@@@@QAE@XZ
??1?$List@Vpartition_element@@@@QAE@XZ
??0partition_info@@QAE@XZ
?is_sub_partitioned@partition_info@@QAE_NXZ
?get_current_mem_root@sp_head@@QBEPAUst_mem_root@@XZ
??0st_global_ddl_log@@QAE@XZ
?check_duplicates_in_interval@@YA_NPBD0PAUst_typelib@@PBUcharset_info_st@@PAI@Z
?replace@?$List_iterator@VCreate_field@@@@QAEPAVCreate_field@@PAV2@@Z
?remove@?$List_iterator@VCreate_field@@@@QAEXXZ
?after@?$List_iterator@VCreate_field@@@@QAEXPAVCreate_field@@@Z
??0?$List_iterator@VKey@@@@QAE@AAV?$List@VKey@@@@@Z
??E?$List_iterator@VKey@@@@QAEPAVKey@@H@Z
?rewind@?$List_iterator@VKey@@@@QAEXXZ
??0?$List_iterator@VKey_part_spec@@@@QAE@AAV?$List@VKey_part_spec@@@@@Z
??E?$List_iterator@VKey_part_spec@@@@QAEPAVKey_part_spec@@H@Z
?rewind@?$List_iterator@VKey_part_spec@@@@QAEXXZ
??0?$List_iterator@Vpartition_element@@@@QAE@AAV?$List@Vpartition_element@@@@@Z
??E?$List_iterator@Vpartition_element@@@@QAEPAVpartition_element@@H@Z
??0?$List_iterator_fast@VKey@@@@QAE@AAV?$List@VKey@@@@@Z
??E?$List_iterator_fast@VKey@@@@QAEPAVKey@@H@Z
??0?$List_iterator_fast@VCreate_field@@@@QAE@XZ
?init@?$List_iterator_fast@VCreate_field@@@@QAEXAAV?$List@VCreate_field@@@@@Z
??0?$List_iterator@VAlter_drop@@@@QAE@AAV?$List@VAlter_drop@@@@@Z
??E?$List_iterator@VAlter_drop@@@@QAEPAVAlter_drop@@H@Z
?rewind@?$List_iterator@VAlter_drop@@@@QAEXXZ
?remove@?$List_iterator@VAlter_drop@@@@QAEXXZ
??0?$List_iterator@VAlter_column@@@@QAE@AAV?$List@VAlter_column@@@@@Z
??E?$List_iterator@VAlter_column@@@@QAEPAVAlter_column@@H@Z
?rewind@?$List_iterator@VAlter_column@@@@QAEXXZ
?remove@?$List_iterator@VAlter_column@@@@QAEXXZ
?head@?$List@Ust_foreign_key_info@@@@QAEPAUst_foreign_key_info@@XZ
??0?$List_iterator@Ust_foreign_key_info@@@@QAE@AAV?$List@Ust_foreign_key_info@@@@@Z
??E?$List_iterator@Ust_foreign_key_info@@@@QAEPAUst_foreign_key_info@@H@Z
?rewind@?$List_iterator@Ust_foreign_key_info@@@@QAEXXZ
?remove@?$List_iterator@Ust_foreign_key_info@@@@QAEXXZ
??0?$List_iterator_fast@VAlter_drop@@@@QAE@AAV?$List@VAlter_drop@@@@@Z
??E?$List_iterator_fast@VAlter_drop@@@@QAEPAVAlter_drop@@H@Z
??0?$I_P_List_no_push_back@VMDL_request@@@@IAE@PAPAVMDL_request@@@Z
?set_last@?$I_P_List_no_push_back@VMDL_request@@@@IAEXPAPAVMDL_request@@@Z
??0?$I_P_List@VMDL_request@@U?$I_P_List_adapter@VMDL_request@@$07$0M@@@VI_P_List_counter@@V?$I_P_List_no_push_back@VMDL_request@@@@@@QAE@XZ
?push_front@?$I_P_List@VMDL_request@@U?$I_P_List_adapter@VMDL_request@@$07$0M@@@VI_P_List_counter@@V?$I_P_List_no_push_back@VMDL_request@@@@@@QAEXPAVMDL_request@@@Z
?next_ptr@?$I_P_List_adapter@VMDL_request@@$07$0M@@@SAPAPAVMDL_request@@PAV2@@Z
?prev_ptr@?$I_P_List_adapter@VMDL_request@@$07$0M@@@SAPAPAPAVMDL_request@@PAV2@@Z
?global_ddl_log@@3Ust_global_ddl_log@@A DATA
?sortcmp@@YAHPBVString@@0PBUcharset_info_st@@@Z
?copy_if_not_alloced@@YAPAVString@@PAV1@0I@Z
?well_formed_copy_nchars@@YAIPBUcharset_info_st@@PADI0PBDIIPAPBD33@Z
?my_copy_with_hex_escaping@@YAIPBUcharset_info_st@@PADIPBDI@Z
?convert_to_printable@@YAIPADIPBDIPBUcharset_info_st@@I@Z
?set_ascii@String@@QAE_NPBDI@Z
?set_int@String@@QAE_N_J_NPBUcharset_info_st@@@Z
?set_real@String@@QAE_NNIPBUcharset_info_st@@@Z
?real_alloc@String@@QAE_NI@Z
?realloc@String@@QAE_NI_N@Z
?shrink@String@@QAEXI@Z
?is_alloced@String@@QBE_NXZ
?copy@String@@QAE_NXZ
?copy@String@@QAE_NABV1@@Z
?copy@String@@QAE_NPBDIPBUcharset_info_st@@@Z
?needs_conversion@String@@SA_NIPBUcharset_info_st@@0PAI@Z
?needs_conversion_on_storage@String@@SA_NIPBUcharset_info_st@@0@Z
?copy_aligned@String@@QAE_NPBDIIPBUcharset_info_st@@@Z
?set_or_copy_aligned@String@@QAE_NPBDIPBUcharset_info_st@@@Z
?copy@String@@QAE_NPBDIPBUcharset_info_st@@1PAI@Z
?append@String@@QAE_NABV1@@Z
?append@String@@QAE_NPBD@Z
?append@String@@QAE_NPBDI@Z
?append@String@@QAE_NPBDIPBUcharset_info_st@@@Z
?append_ulonglong@String@@QAE_N_K@Z
?append@String@@QAE_NPAUst_io_cache@@I@Z
?append_with_prefill@String@@QAE_NPBDIID@Z
?append_parenthesized@String@@QAE_NJH@Z
?strstr@String@@QAEHABV1@I@Z
?strrstr@String@@QAEHABV1@I@Z
?replace@String@@QAE_NIIPBDI@Z
?replace@String@@QAE_NIIABV1@@Z
?fill@String@@QAE_NID@Z
?strip_sp@String@@QAEXXZ
?stringcmp@@YAHPBVString@@0@Z
?numchars@String@@QBEIXZ
?charpos@String@@QAEHHI@Z
?reserve@String@@QAEHII@Z
?qs_append@String@@QAEXPBDI@Z
?qs_append@String@@QAEXN@Z
?qs_append@String@@QAEXPAN@Z
?qs_append@String@@QAEXH@Z
?qs_append@String@@QAEXI@Z
?print@String@@QAEXPAV1@@Z
?swap@String@@QAEXAAV1@@Z
?uses_buffer_owned_by@String@@QBE_NPBV1@@Z
?validate_string@@YA_NPBUcharset_info_st@@PBDIPAIPA_N@Z
sqlstate_map DATA
mysql_errno_to_sqlstate
?Diag_condition_item_names@@3QBUst_mysql_lex_string@@B DATA
?get_sqlstate@Sql_condition@@QBEPBDXZ
?get_sql_errno@Sql_condition@@QBEIXZ
??1Sql_condition@@AAE@XZ
?unmark_sql_conditions_from_removal@Warning_info@@AAEXXZ
?id@Warning_info@@AAEX_K@Z
?set_warning_info_id@Diagnostics_area@@QAEX_K@Z
?clear_warning_info@Diagnostics_area@@QAEX_K@Z
?reserve_space@Diagnostics_area@@QAEXPAVTHD@@I@Z
?push_warning@Diagnostics_area@@QAEPAVSql_condition@@PAVTHD@@PBV2@@Z
?unmark_sql_conditions_from_removal@Diagnostics_area@@QAEXXZ
??0Set_signal_information@@QAE@ABV0@@Z
?clear@Set_signal_information@@QAEXXZ
?raised_condition@sp_rcontext@@QBEPBVSql_condition_info@1@XZ
?back@?$Dynamic_array@PAVHandler_call_frame@sp_rcontext@@@@QBEPBQAVHandler_call_frame@sp_rcontext@@XZ
?elements@?$Dynamic_array@PAVHandler_call_frame@sp_rcontext@@@@QBEHXZ
?assign_defaults@Sql_cmd_common_signal@@KAXPAVSql_condition@@_NW4enum_warning_level@2@H@Z
?eval_defaults@Sql_cmd_common_signal@@IAEXPAVTHD@@PAVSql_condition@@@Z
?eval_signal_informations@Sql_cmd_common_signal@@IAEHPAVTHD@@PAVSql_condition@@@Z
?raise_condition@Sql_cmd_common_signal@@IAE_NPAVTHD@@PAVSql_condition@@@Z
?execute@Sql_cmd_signal@@UAE_NPAVTHD@@@Z
?execute@Sql_cmd_resignal@@UAE_NPAVTHD@@@Z
?hton_fill_schema_table@@YAHPAVTHD@@PAUTABLE_LIST@@PAVItem@@@Z
?schema_fields_info@@3PAUst_field_info@@A DATA
?schema_tables@@3PAUst_schema_table@@A DATA
?tables_fields_info@@3PAUst_field_info@@A DATA
?columns_fields_info@@3PAUst_field_info@@A DATA
?charsets_fields_info@@3PAUst_field_info@@A DATA
?collation_fields_info@@3PAUst_field_info@@A DATA
?engines_fields_info@@3PAUst_field_info@@A DATA
?fill_schema_charsets@@YAHPAVTHD@@PAUTABLE_LIST@@PAVItem@@@Z
?events_fields_info@@3PAUst_field_info@@A DATA
?fill_plugins@@YAHPAVTHD@@PAUTABLE_LIST@@PAVItem@@@Z
?coll_charset_app_fields_info@@3PAUst_field_info@@A DATA
?proc_fields_info@@3PAUst_field_info@@A DATA
?fill_schema_engines@@YAHPAVTHD@@PAUTABLE_LIST@@PAVItem@@@Z
?stat_fields_info@@3PAUst_field_info@@A DATA
?fill_schema_collation@@YAHPAVTHD@@PAUTABLE_LIST@@PAVItem@@@Z
?view_fields_info@@3PAUst_field_info@@A DATA
?fill_schema_coll_charset_app@@YAHPAVTHD@@PAUTABLE_LIST@@PAVItem@@@Z
?user_privileges_fields_info@@3PAUst_field_info@@A DATA
?schema_privileges_fields_info@@3PAUst_field_info@@A DATA
?table_privileges_fields_info@@3PAUst_field_info@@A DATA
?column_privileges_fields_info@@3PAUst_field_info@@A DATA
?table_constraints_fields_info@@3PAUst_field_info@@A DATA
?key_column_usage_fields_info@@3PAUst_field_info@@A DATA
?table_names_fields_info@@3PAUst_field_info@@A DATA
?open_tables_fields_info@@3PAUst_field_info@@A DATA
?triggers_fields_info@@3PAUst_field_info@@A DATA
?partitions_fields_info@@3PAUst_field_info@@A DATA
?fill_open_tables@@YAHPAVTHD@@PAUTABLE_LIST@@PAVItem@@@Z
?variables_fields_info@@3PAUst_field_info@@A DATA
?processlist_fields_info@@3PAUst_field_info@@A DATA
?plugin_fields_info@@3PAUst_field_info@@A DATA
?fill_variables@@YAHPAVTHD@@PAUTABLE_LIST@@PAVItem@@@Z
?files_fields_info@@3PAUst_field_info@@A DATA
?fill_status@@YAHPAVTHD@@PAUTABLE_LIST@@PAVItem@@@Z
?fill_schema_proc@@YAHPAVTHD@@PAUTABLE_LIST@@PAVItem@@@Z
?opt_ignore_db_dirs@@3PADA DATA
?referential_constraints_fields_info@@3PAUst_field_info@@A DATA
?parameters_fields_info@@3PAUst_field_info@@A DATA
?tablespaces_fields_info@@3PAUst_field_info@@A DATA
?create_schema_table@@YAPAUTABLE@@PAVTHD@@PAUTABLE_LIST@@@Z
?get_all_tables@@YAHPAVTHD@@PAUTABLE_LIST@@PAVItem@@@Z
?fill_schema_processlist@@YAHPAVTHD@@PAUTABLE_LIST@@PAVItem@@@Z
?make_old_format@@YAHPAVTHD@@PAUst_schema_table@@@Z
?make_schemata_old_format@@YAHPAVTHD@@PAUst_schema_table@@@Z
?make_table_names_old_format@@YAHPAVTHD@@PAUst_schema_table@@@Z
?fill_schema_schemata@@YAHPAVTHD@@PAUTABLE_LIST@@PAVItem@@@Z
?make_columns_old_format@@YAHPAVTHD@@PAUst_schema_table@@@Z
?make_character_sets_old_format@@YAHPAVTHD@@PAUst_schema_table@@@Z
?make_proc_old_format@@YAHPAVTHD@@PAUst_schema_table@@@Z
??0Simple_cstring@@QAE@XZ
?set@String@@QAE_N_JPBUcharset_info_st@@@Z
?set@String@@QAE_N_KPBUcharset_info_st@@@Z
?reserve@String@@QAEHI@Z
?dec@I_P_List_counter@@IAEXXZ
?elements@I_P_List_counter@@QBEIXZ
?is_empty@?$I_P_List@VMDL_ticket@@U?$I_P_List_adapter@VMDL_ticket@@$03$07@@VI_P_List_null_counter@@V?$I_P_List_no_push_back@VMDL_ticket@@@@@@QBE_NXZ
?has_locks@MDL_context@@QBE_NXZ
?push_back@?$List@Ust_mysql_lex_string@@@@QAE_NPAUst_mysql_lex_string@@@Z
?get_db_name@TABLE_LIST@@QBEPADXZ
?get_table_name@TABLE_LIST@@QBEPADXZ
?get_sqlstate@Diagnostics_area@@QBEPBDXZ
?push_warning_info@Diagnostics_area@@QAEXPAVWarning_info@@@Z
?pop_warning_info@Diagnostics_area@@QAEXXZ
?push_warning@Diagnostics_area@@QAEPAVSql_condition@@PAVTHD@@IPBDW4enum_warning_level@2@1@Z
?set_last@?$I_P_List_fast_push_back@VWarning_info@@@@IAEXPAPAVWarning_info@@@Z
?push_front@?$I_P_List@VWarning_info@@U?$I_P_List_adapter@VWarning_info@@$0FA@$0FE@@@VI_P_List_counter@@V?$I_P_List_fast_push_back@VWarning_info@@@@@@QAEXPAVWarning_info@@@Z
?remove@?$I_P_List@VWarning_info@@U?$I_P_List_adapter@VWarning_info@@$0FA@$0FE@@@VI_P_List_counter@@V?$I_P_List_fast_push_back@VWarning_info@@@@@@QAEXPAVWarning_info@@@Z
?has_update_default_function@Field@@QBE_NXZ
??0Name_string@@QAE@XZ
?copy@Name_string@@QAEXPBD@Z
?quick_fix_field@Item@@QAEXXZ
??0Item_ident_for_show@@QAE@PAVField@@PBD1@Z
?type@Item_ident_for_show@@UBE?AW4Type@Item@@XZ
?val_real@Item_ident_for_show@@UAENXZ
?val_int@Item_ident_for_show@@UAE_JXZ
?val_str@Item_ident_for_show@@UAEPAVString@@PAV2@@Z
?val_decimal@Item_ident_for_show@@UAEPAVmy_decimal@@PAV2@@Z
?get_date@Item_ident_for_show@@UAE_NPAUst_mysql_time@@I@Z
?get_time@Item_ident_for_show@@UAE_NPAUst_mysql_time@@@Z
?charset_for_protocol@Item_ident_for_show@@UBEPAUcharset_info_st@@XZ
??1Item_ident_for_show@@UAE@XZ
??0Item_int@@QAE@_JI@Z
??0Item_temporal@@QAE@W4enum_field_types@@_J@Z
??0Item_temporal@@QAE@W4enum_field_types@@ABVName_string@@_JI@Z
?clone_item@Item_temporal@@UAEPAVItem@@XZ
?val_time_temporal@Item_temporal@@UAE_JXZ
?val_date_temporal@Item_temporal@@UAE_JXZ
?get_date@Item_temporal@@UAE_NPAUst_mysql_time@@I@Z
?get_time@Item_temporal@@UAE_NPAUst_mysql_time@@@Z
?field_type@Item_temporal@@UBE?AW4enum_field_types@@XZ
??1Item_temporal@@UAE@XZ
??0Item_float@@QAE@VName_string@@NII@Z
?type@Item_float@@UBE?AW4Type@Item@@XZ
?field_type@Item_float@@UBE?AW4enum_field_types@@XZ
?val_real@Item_float@@UAENXZ
?val_int@Item_float@@UAE_JXZ
?get_date@Item_float@@UAE_NPAUst_mysql_time@@I@Z
?get_time@Item_float@@UAE_NPAUst_mysql_time@@@Z
?basic_const_item@Item_float@@UBE_NXZ
?clone_item@Item_float@@UAEPAVItem@@XZ
?neg@Item_float@@UAEPAVItem_num@@XZ
??1Item_float@@UAE@XZ
??0Item_blob@@QAE@PBDI@Z
?type@Item_blob@@UBE?AW4Type@Item@@XZ
?field_type@Item_blob@@UBE?AW4enum_field_types@@XZ
??1Item_blob@@UAE@XZ
??0Item_return_int@@QAE@PBDIW4enum_field_types@@_J@Z
?field_type@Item_return_int@@UBE?AW4enum_field_types@@XZ
??1Item_return_int@@UAE@XZ
?arguments@Item_func@@QBEPAPAVItem@@XZ
?argument_count@Item_func@@QBEIXZ
??0Item_cond@@QAE@XZ
?argument_list@Item_cond@@QAEPAV?$List@VItem@@@@XZ
??0Item_cond_and@@QAE@XZ
??0Item_cond_or@@QAE@XZ
??0Item_cond_or@@QAE@PAVTHD@@PAV0@@Z
?functype@Item_cond_or@@UBE?AW4Functype@Item_func@@XZ
?func_name@Item_cond_or@@UBEPBDXZ
?copy_andor_structure@Item_cond_or@@UAEPAVItem@@PAVTHD@@_N@Z
??1Item_cond_or@@UAE@XZ
?query_charset@Statement@@QBEPBUcharset_info_st@@XZ
?fill_information_schema_tables@THD@@QAE_NXZ
??0Table_ident@@QAE@PAVTHD@@Ust_mysql_lex_string@@1_N@Z
?add_item_to_list@@YA_NPAVTHD@@PAVItem@@@Z
??0ACL_internal_schema_access@@QAE@XZ
??1ACL_internal_schema_access@@UAE@XZ
?show_type@sys_var@@QAE?AW4enum_mysql_show_type@@XZ
?find_files@@YA?AW4find_files_result@@PAVTHD@@PAV?$List@Ust_mysql_lex_string@@@@PBD22_NPAUst_mem_root@@@Z
?store_create_info@@YAHPAVTHD@@PAUTABLE_LIST@@PAVString@@PAUst_ha_create_information@@_N@Z
?view_store_create_info@@YAHPAVTHD@@PAUTABLE_LIST@@PAVString@@@Z
?copy_event_to_schema_table@@YAHPAVTHD@@PAUTABLE@@1@Z
?get_quote_char_for_identifier@@YAHPAVTHD@@PBDI@Z
?append_identifier@@YAXPAVTHD@@PAVString@@PBDIPBUcharset_info_st@@3@Z
?mysqld_list_fields@@YAXPAVTHD@@PAUTABLE_LIST@@PBD@Z
?mysqld_show_create@@YA_NPAVTHD@@PAUTABLE_LIST@@@Z
?mysqld_show_create_db@@YA_NPAVTHD@@PADPAUst_ha_create_information@@@Z
?mysqld_list_processes@@YAXPAVTHD@@PBD_N@Z
?mysqld_show_privileges@@YA_NPAVTHD@@@Z
?calc_sum_of_all_status@@YAXPAUsystem_status_var@@@Z
?append_definer@@YAXPAVTHD@@PAVString@@PBUst_mysql_lex_string@@2@Z
?add_status_vars@@YAHPAUst_mysql_show_var@@@Z
?remove_status_vars@@YAXPAUst_mysql_show_var@@@Z
?init_status_vars@@YAXXZ
?free_status_vars@@YAXXZ
?get_status_var@@YA_NPAVTHD@@PAUst_mysql_show_var@@PBDQAD@Z
?reset_status_vars@@YAXXZ
?show_create_trigger@@YA_NPAVTHD@@PBVsp_name@@@Z
?view_store_options@@YAXPAVTHD@@PAUTABLE_LIST@@PAVString@@@Z
?init_fill_schema_files_row@@YAXPAUTABLE@@@Z
?schema_table_store_record@@YA_NPAVTHD@@PAUTABLE@@@Z
?initialize_information_schema_acl@@YAXXZ
?find_schema_table@@YAPAUst_schema_table@@PAVTHD@@PBD@Z
?get_schema_table@@YAPAUst_schema_table@@W4enum_schema_tables@@@Z
?make_schema_select@@YAHPAVTHD@@PAVst_select_lex@@W4enum_schema_tables@@@Z
?mysql_schema_table@@YAHPAVTHD@@PAULEX@@PAUTABLE_LIST@@@Z
?get_schema_tables_result@@YA_NPAVJOIN@@W4enum_schema_table_state@@@Z
?get_schema_table_idx@@YA?AW4enum_schema_tables@@PAUst_schema_table@@@Z
?ignore_db_dirs_init@@YA_NXZ
?ignore_db_dirs_free@@YAXXZ
?ignore_db_dirs_reset@@YAXXZ
?ignore_db_dirs_process_additions@@YA_NXZ
?push_ignored_db_dir@@YA_NPAD@Z
?get_cs_converted_part_value_from_string@@YAHPAVTHD@@PAVItem@@PAVString@@2PBUcharset_info_st@@_N@Z
?context_var_count@sp_pcontext@@QBEIXZ
?elements@?$Dynamic_array@PAVsp_variable@@@@QBEHXZ
?get_root_parsing_context@sp_head@@QBEPAVsp_pcontext@@XZ
??0Show_create_error_handler@@QAE@PAVTHD@@PAUTABLE_LIST@@@Z
?get_view_access_denied_message@Show_create_error_handler@@QAEPADXZ
?handle_condition@Show_create_error_handler@@UAE_NPAVTHD@@IPBDW4enum_warning_level@Sql_condition@@1PAPAV4@@Z
??1Show_create_error_handler@@UAE@XZ
??2thread_info@@SAPAXI@Z
??3thread_info@@SAXPAXI@Z
??0thread_info@@QAE@XZ
??Rthread_info_compare@@QAE_NPBVthread_info@@0@Z
??0?$Mem_root_array@PAVthread_info@@$00@@QAE@PAUst_mem_root@@@Z
??1?$Mem_root_array@PAVthread_info@@$00@@QAE@XZ
?at@?$Mem_root_array@PAVthread_info@@$00@@QAEAAPAVthread_info@@I@Z
?begin@?$Mem_root_array@PAVthread_info@@$00@@QAEPAPAVthread_info@@XZ
?end@?$Mem_root_array@PAVthread_info@@$00@@QAEPAPAVthread_info@@XZ
?clear@?$Mem_root_array@PAVthread_info@@$00@@QAEXXZ
?chop@?$Mem_root_array@PAVthread_info@@$00@@QAEXI@Z
?reserve@?$Mem_root_array@PAVthread_info@@$00@@QAE_NI@Z
?push_back@?$Mem_root_array@PAVthread_info@@$00@@QAE_NABQAVthread_info@@@Z
?element_size@?$Mem_root_array@PAVthread_info@@$00@@QBEIXZ
?empty@?$Mem_root_array@PAVthread_info@@$00@@QBE_NXZ
?size@?$Mem_root_array@PAVthread_info@@$00@@QBEIXZ
??$sort@PAPAVthread_info@@Vthread_info_compare@@@std@@YAXPAPAVthread_info@@0Vthread_info_compare@@@Z
?make_upper@@YAXPAD@Z
?get_lookup_value@@YA_NPAVTHD@@PAVItem_func@@PAUTABLE_LIST@@PAUst_lookup_field_values@@@Z
?calc_lookup_values_from_cond@@YA_NPAVTHD@@PAVItem@@PAUTABLE_LIST@@PAUst_lookup_field_values@@@Z
?uses_only_table_name_fields@@YA_NPAVItem@@PAUTABLE_LIST@@@Z
?get_lookup_field_values@@YA_NPAVTHD@@PAVItem@@PAUTABLE_LIST@@PAUst_lookup_field_values@@@Z
?make_db_list@@YAHPAVTHD@@PAV?$List@Ust_mysql_lex_string@@@@PAUst_lookup_field_values@@PA_NPAUst_mem_root@@@Z
?schema_tables_add@@YAHPAVTHD@@PAV?$List@Ust_mysql_lex_string@@@@PBD@Z
?get_table_open_method@@YAIPAUTABLE_LIST@@PAUst_schema_table@@W4enum_schema_tables@@@Z
?handle_condition@Trigger_error_handler@@UAE_NPAVTHD@@IPBDW4enum_warning_level@Sql_condition@@1PAPAV4@@Z
??0Trigger_error_handler@@QAE@XZ
??1Trigger_error_handler@@UAE@XZ
?store_schema_shemata@@YA_NPAVTHD@@PAUTABLE@@PAUst_mysql_lex_string@@PBUcharset_info_st@@@Z
?store_column_type@@YAXPAVTHD@@PAUTABLE@@PAVField@@PAUcharset_info_st@@I@Z
?store_schema_params@@YA_NPAVTHD@@PAUTABLE@@1PBD_N2@Z
?store_schema_proc@@YA_NPAVTHD@@PAUTABLE@@1PBD_N2@Z
?store_constraints@@YA_NPAVTHD@@PAUTABLE@@PAUst_mysql_lex_string@@2PBDI3I@Z
??0?$List_iterator_fast@Ust_foreign_key_info@@@@QAE@AAV?$List@Ust_foreign_key_info@@@@@Z
?store_key_column_usage@@YAXPAUTABLE@@PAUst_mysql_lex_string@@1PBDI2I_J@Z
??0?$List_iterator@D@@QAE@AAV?$List@D@@@Z
??E?$List_iterator@D@@QAEPADH@Z
??0?$List_iterator@Up_elem_val@@@@QAE@AAV?$List@Up_elem_val@@@@@Z
??E?$List_iterator@Up_elem_val@@@@QAEPAUp_elem_val@@H@Z
?initialize_schema_table@@YAHPAUst_plugin_int@@@Z
?finalize_schema_table@@YAHPAUst_plugin_int@@@Z
??0IS_internal_schema_access@@QAE@XZ
??1IS_internal_schema_access@@UAE@XZ
?check@IS_internal_schema_access@@UBE?AW4ACL_internal_access_result@@KPAK@Z
?lookup@IS_internal_schema_access@@UBEPBVACL_internal_table_access@@PBD@Z
?next_ptr@?$I_P_List_adapter@VWarning_info@@$0FA@$0FE@@@SAPAPAVWarning_info@@PAV2@@Z
?prev_ptr@?$I_P_List_adapter@VWarning_info@@$0FA@$0FE@@@SAPAPAPAVWarning_info@@PAV2@@Z
??$_Debug_range@PAPAVthread_info@@@std@@YAXPAPAVthread_info@@0PB_WI@Z
??$_Debug_pointer@Vthread_info_compare@@@std@@YAXAAVthread_info_compare@@PB_WI@Z
??$_Unchecked@PAPAVthread_info@@@std@@YAPAPAVthread_info@@PAPAV1@@Z
??$_Sort@PAPAVthread_info@@HVthread_info_compare@@@std@@YAXPAPAVthread_info@@0HVthread_info_compare@@@Z
??$_Iter_cat@PAPAVthread_info@@@std@@YA?AUrandom_access_iterator_tag@0@ABQAPAVthread_info@@@Z
??$_Debug_range2@PAPAVthread_info@@@std@@YAXPAPAVthread_info@@0PB_WIUrandom_access_iterator_tag@0@@Z
??$_Unguarded_partition@PAPAVthread_info@@Vthread_info_compare@@@std@@YA?AU?$pair@PAPAVthread_info@@PAPAV1@@0@PAPAVthread_info@@0Vthread_info_compare@@@Z
??$?0PAPAVthread_info@@PAPAV0@@?$pair@PAPAVthread_info@@PAPAV1@@std@@QAE@$$QAU01@PAPAX@Z
??$make_heap@PAPAVthread_info@@Vthread_info_compare@@@std@@YAXPAPAVthread_info@@0Vthread_info_compare@@@Z
??$sort_heap@PAPAVthread_info@@Vthread_info_compare@@@std@@YAXPAPAVthread_info@@0Vthread_info_compare@@@Z
??$_Insertion_sort@PAPAVthread_info@@Vthread_info_compare@@@std@@YAXPAPAVthread_info@@0Vthread_info_compare@@@Z
??$_Debug_pointer@PAVthread_info@@@std@@YAXPAPAVthread_info@@PB_WI@Z
??$_Median@PAPAVthread_info@@Vthread_info_compare@@@std@@YAXPAPAVthread_info@@00Vthread_info_compare@@@Z
??$_Debug_lt_pred@Vthread_info_compare@@PAVthread_info@@PAV2@@std@@YA_NVthread_info_compare@@AAPAVthread_info@@1PB_WI@Z
??$iter_swap@PAPAVthread_info@@PAPAV1@@std@@YAXPAPAVthread_info@@0@Z
??$?0AAPAPAVthread_info@@AAPAPAV0@@?$pair@PAPAVthread_info@@PAPAV1@@std@@QAE@AAPAPAVthread_info@@0PAPAX@Z
??$forward@PAPAVthread_info@@@std@@YA$$QAPAPAVthread_info@@AAPAPAV1@@Z
??$_Dist_type@PAPAVthread_info@@@std@@YAPAHPAPAVthread_info@@@Z
??$_Val_type@PAPAVthread_info@@@std@@YAPAPAVthread_info@@PAPAV1@@Z
??$_Make_heap@PAPAVthread_info@@HPAV1@Vthread_info_compare@@@std@@YAXPAPAVthread_info@@0Vthread_info_compare@@PAH0@Z
??$_Debug_heap@PAPAVthread_info@@Vthread_info_compare@@@std@@YAXPAPAVthread_info@@0Vthread_info_compare@@@Z
??$_Sort_heap@PAPAVthread_info@@Vthread_info_compare@@@std@@YAXPAPAVthread_info@@0Vthread_info_compare@@@Z
??$_Insertion_sort1@PAPAVthread_info@@Vthread_info_compare@@PAV1@@std@@YAXPAPAVthread_info@@0Vthread_info_compare@@0@Z
??$_Med3@PAPAVthread_info@@Vthread_info_compare@@@std@@YAXPAPAVthread_info@@00Vthread_info_compare@@@Z
??$swap@PAVthread_info@@@std@@YAXAAPAVthread_info@@0@Z
??$forward@AAPAPAVthread_info@@@std@@YAAAPAPAVthread_info@@AAPAPAV1@@Z
??$_Move@AAPAVthread_info@@@std@@YA$$QAPAVthread_info@@AAPAV1@@Z
??$_Adjust_heap@PAPAVthread_info@@HPAV1@Vthread_info_compare@@@std@@YAXPAPAVthread_info@@HH$$QAPAV1@Vthread_info_compare@@@Z
??$_Pop_heap@PAPAVthread_info@@Vthread_info_compare@@@std@@YAXPAPAVthread_info@@0Vthread_info_compare@@@Z
??$_Move_backward@PAPAVthread_info@@PAPAV1@@std@@YAPAPAVthread_info@@PAPAV1@00@Z
??$_Push_heap@PAPAVthread_info@@HPAV1@Vthread_info_compare@@@std@@YAXPAPAVthread_info@@HH$$QAPAV1@Vthread_info_compare@@@Z
??$_Pop_heap_0@PAPAVthread_info@@PAV1@Vthread_info_compare@@@std@@YAXPAPAVthread_info@@0Vthread_info_compare@@0@Z
??$_Ptr_cat@PAVthread_info@@PAV1@@std@@YA?AU_Scalar_ptr_iterator_tag@0@PAPAVthread_info@@0@Z
??$_Move_backward@PAPAVthread_info@@PAPAV1@@std@@YAPAPAVthread_info@@PAPAV1@00U_Scalar_ptr_iterator_tag@0@@Z
??$_Pop_heap@PAPAVthread_info@@HPAV1@Vthread_info_compare@@@std@@YAXPAPAVthread_info@@00$$QAPAV1@Vthread_info_compare@@PAH@Z
?servers_init@@YA_N_N@Z
?servers_reload@@YA_NPAVTHD@@@Z
?servers_free@@YAX_N@Z
?create_server@@YA_NPAVTHD@@PAUst_lex_server_options@@@Z
?drop_server@@YA_NPAVTHD@@PAUst_lex_server_options@@_N@Z
?alter_server@@YA_NPAVTHD@@PAUst_lex_server_options@@@Z
?get_server_by_name@@YAPAUst_federated_server@@PAUst_mem_root@@PBDPAU1@@Z
??0Table_map_iterator@@QAE@_K@Z
?next_bit@Table_map_iterator@@QAEHXZ
?my_decimal_get_binary_size@@YAHII@Z
?total_cost@Cost_estimate@@QBENXZ
?reset@Cost_estimate@@QAEXXZ
?add_io@Cost_estimate@@QAEXN@Z
?join_cond_ref@TABLE_LIST@@QAEPAPAVItem@@XZ
??0?$List@VItem@@@@QAE@ABV0@@Z
?mark_as_null_row@@YAXPAUTABLE@@@Z
?is_temporal_type_with_date@@YA_NW4enum_field_types@@@Z
??0Field_varstring@@QAE@PAEII0EW4utype@Field@@PBDPAUTABLE_SHARE@@PBUcharset_info_st@@@Z
?set_repertoire_from_charset@DTCollation@@QAEXPBUcharset_info_st@@@Z
?set@DTCollation@@QAEXPBUcharset_info_st@@W4Derivation@@@Z
?is_temporal_with_date@Item@@QBE_NXZ
??0?$Bounds_checked_array@PAVItem@@@@QAE@PAPAVItem@@I@Z
??A?$Bounds_checked_array@PAVItem@@@@QAEAAPAVItem@@I@Z
?element_size@?$Bounds_checked_array@PAVItem@@@@QBEIXZ
?size@?$Bounds_checked_array@PAVItem@@@@QBEIXZ
?array@?$Bounds_checked_array@PAVItem@@@@QBEPAPAVItem@@XZ
??9?$Bounds_checked_array@PAVItem@@@@QBE_NABV0@@Z
?init@Item_null@@AAEXXZ
??0Item_null@@QAE@XZ
??0Item_null@@QAE@ABVName_string@@@Z
?type@Item_null@@UBE?AW4Type@Item@@XZ
?val_time_temporal@Item_null@@UAE_JXZ
?val_date_temporal@Item_null@@UAE_JXZ
?get_date@Item_null@@UAE_NPAUst_mysql_time@@I@Z
?get_time@Item_null@@UAE_NPAUst_mysql_time@@@Z
?result_type@Item_null@@UBE?AW4Item_result@@XZ
?field_type@Item_null@@UBE?AW4enum_field_types@@XZ
?basic_const_item@Item_null@@UBE_NXZ
?clone_item@Item_null@@UAEPAVItem@@XZ
?is_null@Item_null@@UAE_NXZ
?print@Item_null@@UAEXPAVString@@W4enum_query_type@@@Z
?check_partition_func_processor@Item_null@@UAE_NPAE@Z
??1Item_null@@UAE@XZ
??0Item_null_result@@QAE@W4enum_field_types@@W4Item_result@@@Z
?is_result_field@Item_null_result@@UAE_NXZ
?save_in_result_field@Item_null_result@@UAEX_N@Z
?check_partition_func_processor@Item_null_result@@UAE_NPAE@Z
?field_type@Item_null_result@@UBE?AW4enum_field_types@@XZ
?result_type@Item_null_result@@UBE?AW4Item_result@@XZ
??1Item_null_result@@UAE@XZ
??$min@N@std@@YAABNABN0@Z
?depended_from@Item_sum@@QAEPAVst_select_lex@@XZ
??0Item_func@@QAE@PAVItem@@@Z
?set_used_tables@Item_func@@QAEX_K@Z
??0Item_func_rollup_const@@QAE@PAVItem@@@Z
?val_real@Item_func_rollup_const@@UAENXZ
?val_int@Item_func_rollup_const@@UAE_JXZ
?val_str@Item_func_rollup_const@@UAEPAVString@@PAV2@@Z
?val_decimal@Item_func_rollup_const@@UAEPAVmy_decimal@@PAV2@@Z
?get_date@Item_func_rollup_const@@UAE_NPAUst_mysql_time@@I@Z
?get_time@Item_func_rollup_const@@UAE_NPAUst_mysql_time@@@Z
?func_name@Item_func_rollup_const@@UBEPBDXZ
?const_item@Item_func_rollup_const@@UBE_NXZ
?result_type@Item_func_rollup_const@@UBE?AW4Item_result@@XZ
?fix_length_and_dec@Item_func_rollup_const@@UAEXXZ
?field_type@Item_func_rollup_const@@UBE?AW4enum_field_types@@XZ
??1Item_func_rollup_const@@UAE@XZ
?is_evaluated@Item_subselect@@QBE_NXZ
?is_uncacheable@Item_subselect@@QBE_NXZ
?optimizer_switch_flag@THD@@QBE_N_K@Z
?is_agg_distinct@QUICK_GROUP_MIN_MAX_SELECT@@QAE_NXZ
??0SJ_TMP_TABLE@@QAE@XZ
??0Semijoin_mat_exec@@QAE@PAUTABLE_LIST@@_NIII@Z
??1Semijoin_mat_exec@@QAE@XZ
??0QEP_operation@@QAE@PAUst_join_table@@@Z
??1QEP_operation@@UAE@XZ
?init@QEP_operation@@UAEHXZ
?free@QEP_operation@@UAEXXZ
?set@Explain_format_flags@@QAEXW4Explain_sort_clause@@W4Explain_sort_property@@@Z
??0st_table_ref@@QAE@XZ
?has_guarded_conds@st_table_ref@@QBE_NXZ
??1st_table_ref@@QAE@XZ
?sj_is_materialize_strategy@@YA_NI@Z
?set_prefix_costs@st_position@@QAEXNN@Z
??0st_join_table@@QAE@XZ
?prefix_tables@st_join_table@@QBE_KXZ
?do_loosescan@st_join_table@@QBE_NXZ
?cleanup@st_join_table@@QAEXXZ
?is_using_loose_index_scan@st_join_table@@QAE_NXZ
?is_using_agg_loose_index_scan@st_join_table@@QAE_NXZ
?is_inner_table_of_outer_join@st_join_table@@QAE_NXZ
?is_single_inner_of_semi_join@st_join_table@@QAE_NXZ
?condition@st_join_table@@QBEPAVItem@@XZ
?set_condition@st_join_table@@QAEXPAVItem@@I@Z
?set_jt_and_sel_condition@st_join_table@@QAEPAVItem@@PAV2@I@Z
?get_sj_strategy@st_join_table@@QBEIXZ
?sjm_query_block_id@st_join_table@@QBEIXZ
?and_with_condition@st_join_table@@QAE_NPAVItem@@I@Z
?and_with_jt_and_sel_condition@st_join_table@@QAE_NPAVItem@@I@Z
?has_guarded_conds@st_join_table@@QBE_NXZ
?unified_condition@st_join_table@@QBEPAVItem@@XZ
??1st_join_table@@QAE@XZ
?count_field_types@@YAXPAVst_select_lex@@PAVTMP_TABLE_PARAM@@AAV?$List@VItem@@@@_N@Z
?find_shortest_key@@YAIPAUTABLE@@PBV?$Bitmap@$0EA@@@@Z
??0store_key@@QAE@PAVTHD@@PAVField@@PAE2I@Z
??1store_key@@UAE@XZ
?copy@store_key@@QAE?AW4store_key_result@1@XZ
??0store_key_field@@QAE@PAVTHD@@PAVField@@PAE2I1PBD@Z
?name@store_key_field@@UBEPBDXZ
?copy_inner@store_key_field@@MAE?AW4store_key_result@store_key@@XZ
??1store_key_field@@UAE@XZ
??0store_key_item@@QAE@PAVTHD@@PAVField@@PAE2IPAVItem@@@Z
?name@store_key_item@@UBEPBDXZ
?copy_inner@store_key_item@@MAE?AW4store_key_result@store_key@@XZ
??1store_key_item@@UAE@XZ
??0store_key_const_item@@QAE@PAVTHD@@PAVField@@PAE2IPAVItem@@@Z
?name@store_key_const_item@@UBEPBDXZ
?copy_inner@store_key_const_item@@MAE?AW4store_key_result@store_key@@XZ
??1store_key_const_item@@UAE@XZ
?error_if_full_join@@YA_NPAVJOIN@@@Z
?handle_select@@YA_NPAVTHD@@PAVselect_result@@K@Z
?mysql_select@@YA_NPAVTHD@@PAUTABLE_LIST@@IAAV?$List@VItem@@@@PAVItem@@PAV?$SQL_I_List@Ust_order@@@@43_KPAVselect_result@@PAVst_select_lex_unit@@PAVst_select_lex@@@Z
?free_underlaid_joins@@YAXPAVTHD@@PAVst_select_lex@@@Z
?calc_used_field_length@@YAXPAVTHD@@PAUst_join_table@@@Z
?get_index_for_order@@YAIPAUst_order@@PAUTABLE@@PAVSQL_SELECT@@_KPA_N4@Z
?simple_remove_const@@YAPAUst_order@@PAU1@PAVItem@@@Z
?const_expression_in_where@@YA_NPAVItem@@0PAVField@@PAPAV1@@Z
?test_if_subpart@@YA_NPAUst_order@@0@Z
?calc_group_buffer@@YAXPAVJOIN@@PAUst_order@@@Z
?test_if_skip_sort_order@@YA_NPAUst_join_table@@PAUst_order@@_K_NPBV?$Bitmap@$0EA@@@PBD@Z
?make_join_readinfo@@YA_NPAVJOIN@@_KI@Z
?create_ref_for_key@@YA_NPAVJOIN@@PAUst_join_table@@PAVKey_use@@_K@Z
?types_allow_materialization@@YA_NPAVItem@@0@Z
?and_conditions@@YA_NPAPAVItem@@PAV1@@Z
?actual_key_parts@@YAIPAUst_key@@@Z
?actual_key_flags@@YAIPAUst_key@@@Z
?test_if_order_by_key@@YAHPAUst_order@@PAUTABLE@@IPAI@Z
?add_select_number@Opt_trace_struct@@QAEAAV1@I@Z
?aux_buffer_incr@JOIN_CACHE@@MAEIXZ
?aux_buffer_min_size@JOIN_CACHE@@MBEIXZ
?rem_space@JOIN_CACHE@@MAEKXZ
?is_key_access@JOIN_CACHE@@UAE_NXZ
?put_record@JOIN_CACHE@@UAE?AW4enum_nested_loop_state@@XZ
?get_curr_rec@JOIN_CACHE@@UAEPAEXZ
?set_curr_rec_link@JOIN_CACHE@@UAEXPAE@Z
?get_curr_rec_link@JOIN_CACHE@@UAEPAEXZ
?end_send@JOIN_CACHE@@UAE?AW4enum_nested_loop_state@@XZ
?type@JOIN_CACHE@@UAE?AW4enum_op_type@QEP_operation@@XZ
??0JOIN_CACHE@@QAE@PAVJOIN@@PAUst_join_table@@PAV0@@Z
??1JOIN_CACHE@@UAE@XZ
?free@JOIN_CACHE@@UAEXXZ
??0JOIN_CACHE_BNL@@QAE@PAVJOIN@@PAUst_join_table@@PAVJOIN_CACHE@@@Z
??1JOIN_CACHE_BNL@@UAE@XZ
?init_mrr_buff@JOIN_CACHE_BKA@@MAEXXZ
??0JOIN_CACHE_BKA@@QAE@PAVJOIN@@PAUst_join_table@@IPAVJOIN_CACHE@@@Z
?is_key_access@JOIN_CACHE_BKA@@UAE_NXZ
??1JOIN_CACHE_BKA@@UAE@XZ
?rem_space@JOIN_CACHE_BKA_UNIQUE@@MAEKXZ
?init_mrr_buff@JOIN_CACHE_BKA_UNIQUE@@MAEXXZ
??0JOIN_CACHE_BKA_UNIQUE@@QAE@PAVJOIN@@PAUst_join_table@@IPAVJOIN_CACHE@@@Z
??1JOIN_CACHE_BKA_UNIQUE@@UAE@XZ
?delete_elements@?$List@VCached_item@@@@QAEXXZ
?begin@?$Mem_root_array@VKey_use@@$00@@QAEPAVKey_use@@XZ
??4ORDER_with_src@JOIN@@QAEAAV01@PAUnull@01@@Z
??0ORDER_with_src@JOIN@@QAE@PAUnull@01@@Z
??BORDER_with_src@JOIN@@QAEPAUst_order@@XZ
?push_back@?$List@VSemijoin_mat_exec@@@@QAE_NPAVSemijoin_mat_exec@@@Z
?plan_is_const@JOIN@@QBE_NXZ
?reset@JOIN@@QAEXXZ
?prepare_result@JOIN@@QAE_NPAPAV?$List@VItem@@@@@Z
?explain@JOIN@@QAE_NXZ
?destroy@JOIN@@QAE_NXZ
?alloc_func_list@JOIN@@QAE_NXZ
?make_sum_func_list@JOIN@@QAE_NAAV?$List@VItem@@@@0_N1@Z
?ref_ptr_array_slice@JOIN@@QAE?AV?$Bounds_checked_array@PAVItem@@@@I@Z
?copy_ref_ptr_array@JOIN@@QAEXV?$Bounds_checked_array@PAVItem@@@@0@Z
?set_items_ref_array@JOIN@@QAEXV?$Bounds_checked_array@PAVItem@@@@@Z
?init_items_ref_array@JOIN@@QAEXXZ
?rollup_process_const_fields@JOIN@@QAE_NXZ
?rollup_make_fields@JOIN@@QAE_NAAV?$List@VItem@@@@0PAPAPAVItem_sum@@@Z
?join_free@JOIN@@QAEXXZ
?cleanup@JOIN@@QAEX_N@Z
?clear@JOIN@@QAEXXZ
?change_result@JOIN@@QAE_NPAVselect_result@@@Z
?get_best_combination@JOIN@@QAE_NXZ
?add_sorting_to_table@JOIN@@QAE_NPAUst_join_table@@PAVORDER_with_src@1@@Z
?cleanup_item_list@JOIN@@ABEXAAV?$List@VItem@@@@@Z
?set_semijoin_info@JOIN@@AAEXXZ
?set_access_methods@JOIN@@AAE_NXZ
?setup_materialized_table@JOIN@@AAE_NPAUst_join_table@@IPBUst_position@@PAU3@@Z
?add_having_as_tmp_table_cond@JOIN@@AAE_NI@Z
?make_tmp_tables_info@JOIN@@AAE_NXZ
??0?$List_iterator@UTABLE@@@@QAE@AAV?$List@UTABLE@@@@@Z
??E?$List_iterator@UTABLE@@@@QAEPAUTABLE@@H@Z
??0?$List_iterator@VSemijoin_mat_exec@@@@QAE@AAV?$List@VSemijoin_mat_exec@@@@@Z
??E?$List_iterator@VSemijoin_mat_exec@@@@QAEPAVSemijoin_mat_exec@@H@Z
?replace@?$List_iterator@VItem@@@@QAEPAVItem@@PAV2@@Z
?rewind@?$List_iterator@VItem@@@@QAEXXZ
?is_subkey@@YA_NPAVKEY_PART_INFO@@00@Z
?is_ref_or_null_optimized@@YA_NPBUst_join_table@@I@Z
??0Plan_change_watchdog@@QAE@PBUst_join_table@@_N@Z
??1Plan_change_watchdog@@QAE@XZ
??$_Debug_lt@NN@std@@YA_NABN0PB_WI@Z
?last_bit@?1??next_bit@Table_map_iterator@@QAEHXZ@4QBDB DATA
??0String@@QAE@I@Z
?append_int@@YA_NPAVString@@_NPBDIJH@Z
?append_str@@YA_NPAVString@@_NPBDPAD@Z
??0?$List_iterator@VLEX_COLUMN@@@@QAE@AAV?$List@VLEX_COLUMN@@@@@Z
??E?$List_iterator@VLEX_COLUMN@@@@QAEPAVLEX_COLUMN@@H@Z
??0?$List_iterator@Ust_lex_user@@@@QAE@AAV?$List@Ust_lex_user@@@@@Z
??E?$List_iterator@Ust_lex_user@@@@QAEPAUst_lex_user@@H@Z
??0?$List_iterator_fast@Vset_var_base@@@@QAE@AAV?$List@Vset_var_base@@@@@Z
??E?$List_iterator_fast@Vset_var_base@@@@QAEPAVset_var_base@@H@Z
?mysql_rewrite_query@@YAXPAVTHD@@@Z
?pop@base_list@@QAEPAXXZ
?push_front@?$List@VItem@@@@QAE_NPAVItem@@@Z
?pop@?$List@VItem@@@@QAEPAVItem@@XZ
?originally_dependent@Item_in_subselect@@QBE_NXZ
?is_top_level_item@Item_in_subselect@@QAE_NXZ
?empty@?$SQL_I_List@Ust_order@@@@QAEXXZ
?is_part_of_union@st_select_lex@@QAE_NXZ
?non_agg_field_used@st_select_lex@@QBE_NXZ
?agg_func_used@st_select_lex@@QBE_NXZ
?mark_broken@LEX@@QAEX_N@Z
?is_metadata_used@LEX@@QBE_NXZ
?setup_order@@YAHPAVTHD@@V?$Bounds_checked_array@PAVItem@@@@PAUTABLE_LIST@@AAV?$List@VItem@@@@3PAUst_order@@@Z
?fix_inner_refs@@YA_NPAVTHD@@AAV?$List@VItem@@@@PAVst_select_lex@@V?$Bounds_checked_array@PAVItem@@@@PAUst_order@@@Z
?subquery_allows_materialization@@YA_NPAVItem_in_subselect@@PAVTHD@@PAVst_select_lex@@PBV3@@Z
??0?$Bounds_checked_array@PAVItem_null_result@@@@QAE@PAPAVItem_null_result@@I@Z
??A?$Bounds_checked_array@PAVItem_null_result@@@@QAEAAPAVItem_null_result@@I@Z
??0ORDER_with_src@JOIN@@QAE@PAUst_order@@W4Explain_sort_clause@@@Z
?reserve@?$Mem_root_array@PAVItem_exists_subselect@@$00@@QAE_NI@Z
?push_back@?$Mem_root_array@PAVItem_exists_subselect@@$00@@QAE_NABQAVItem_exists_subselect@@@Z
?element_size@?$Mem_root_array@PAVItem_exists_subselect@@$00@@QBEIXZ
?prepare@JOIN@@QAEHPAUTABLE_LIST@@IPAVItem@@IPAUst_order@@21PAVst_select_lex@@PAVst_select_lex_unit@@@Z
?rollup_init@JOIN@@QAE_NXZ
??0Prepare_error_tracker@JOIN@@QAE@PAVTHD@@@Z
??1Prepare_error_tracker@JOIN@@QAE@XZ
?add_alnum@Opt_trace_struct@@QAEAAV1@PBD@Z
??0?$List_iterator@VItem_outer_ref@@@@QAE@AAV?$List@VItem_outer_ref@@@@@Z
??E?$List_iterator@VItem_outer_ref@@@@QAEPAVItem_outer_ref@@H@Z
??_9Item@@$BBFM@AE
??_9Item@@$BBGM@AE
??0?$List_iterator@VItem_field@@@@QAE@AAV?$List@VItem_field@@@@@Z
??E?$List_iterator@VItem_field@@@@QAEPAVItem_field@@H@Z
?mysql_rename_tables@@YA_NPAVTHD@@PAUTABLE_LIST@@_N@Z
?do_rename@@YA_NPAVTHD@@PAUTABLE_LIST@@PAD22_N@Z
?reload_acl_and_cache@@YA_NPAVTHD@@KPAUTABLE_LIST@@PAH@Z
?flush_tables_with_read_lock@@YA_NPAVTHD@@PAUTABLE_LIST@@@Z
?flush_tables_for_export@@YA_NPAVTHD@@PAUTABLE_LIST@@@Z
?is_upgradable_or_exclusive@MDL_ticket@@QBE_NXZ
??0Lock_tables_prelocking_strategy@@QAE@XZ
??1Lock_tables_prelocking_strategy@@UAE@XZ
?query_profile_statistics_info@@3PAUst_field_info@@A DATA
?fix_buffer_pointer@my_decimal@@QAEXXZ
?sign@my_decimal@@QBE_NXZ
?sign@my_decimal@@QAEX_N@Z
?max_my_decimal@@YAXPAVmy_decimal@@HH@Z
?max_internal_decimal@@YAXPAVmy_decimal@@@Z
?check_result_and_overflow@@YAHIHPAVmy_decimal@@@Z
?double2my_decimal@@YAHINPAVmy_decimal@@@Z
?fill_query_profile_statistics_info@@YAHPAVTHD@@PAUTABLE_LIST@@PAVItem@@@Z
?make_profile_table_for_show@@YAHPAVTHD@@PAUst_schema_table@@@Z
?set_label@PROF_MEASUREMENT@@AAEXPBD00I@Z
??0PROF_MEASUREMENT@@AAE@PAVQUERY_PROFILE@@PBD@Z
??0PROF_MEASUREMENT@@AAE@PAVQUERY_PROFILE@@PBD11I@Z
??1PROF_MEASUREMENT@@AAE@XZ
?collect@PROF_MEASUREMENT@@AAEXXZ
??0?$Queue@VPROF_MEASUREMENT@@@@QAE@XZ
?push_back@?$Queue@VPROF_MEASUREMENT@@@@QAEXPAVPROF_MEASUREMENT@@@Z
?pop@?$Queue@VPROF_MEASUREMENT@@@@QAEPAVPROF_MEASUREMENT@@XZ
?is_empty@?$Queue@VPROF_MEASUREMENT@@@@QAE_NXZ
?new_iterator@?$Queue@VPROF_MEASUREMENT@@@@QAEPAXXZ
?iterator_next@?$Queue@VPROF_MEASUREMENT@@@@QAEPAXPAX@Z
?iterator_value@?$Queue@VPROF_MEASUREMENT@@@@QAEPAVPROF_MEASUREMENT@@PAX@Z
??0QUERY_PROFILE@@AAE@PAVPROFILING@@PBD@Z
??1QUERY_PROFILE@@AAE@XZ
?set_query_source@QUERY_PROFILE@@AAEXPADI@Z
?new_status@QUERY_PROFILE@@AAEXPBD00I@Z
??0?$Queue@VQUERY_PROFILE@@@@QAE@XZ
?push_back@?$Queue@VQUERY_PROFILE@@@@QAEXPAVQUERY_PROFILE@@@Z
?pop@?$Queue@VQUERY_PROFILE@@@@QAEPAVQUERY_PROFILE@@XZ
?is_empty@?$Queue@VQUERY_PROFILE@@@@QAE_NXZ
?new_iterator@?$Queue@VQUERY_PROFILE@@@@QAEPAXXZ
?iterator_next@?$Queue@VQUERY_PROFILE@@@@QAEPAXPAX@Z
?iterator_value@?$Queue@VQUERY_PROFILE@@@@QAEPAVQUERY_PROFILE@@PAX@Z
?next_profile_id@PROFILING@@AAE_JXZ
??0PROFILING@@QAE@XZ
??1PROFILING@@QAE@XZ
?set_query_source@PROFILING@@QAEXPADI@Z
?start_new_query@PROFILING@@QAEXPBD@Z
?discard_current_query@PROFILING@@QAEXXZ
?finish_current_query@PROFILING@@QAEXXZ
?status_change@PROFILING@@QAEXPBD00I@Z
?show_profiles@PROFILING@@QAE_NXZ
?fill_statistics_info@PROFILING@@QAEHPAVTHD@@PAUTABLE_LIST@@PAVItem@@@Z
?store@Protocol@@QAE_NI@Z
?opt_clear@Warning_info@@AAEX_K@Z
?opt_clear_warning_info@Diagnostics_area@@QAEX_K@Z
??1Diagnostics_area@@QAE@XZ
??0Protocol@@QAE@PAVTHD@@@Z
??1Protocol@@UAE@XZ
?prepare_for_send@Protocol@@UAE_NI@Z
??0Protocol_binary@@QAE@PAVTHD@@@Z
?type@Protocol_binary@@UAE?AW4enum_protocol_type@Protocol@@XZ
??1Protocol_binary@@UAE@XZ
??0sql_digest_storage@@QAE@XZ
??0sql_digest_state@@QAE@XZ
?unclean@st_select_lex_unit@@QAEXXZ
?set_thd@st_select_lex_unit@@QAEXPAVTHD@@@Z
?set_query_inner@Statement@@QAEXABVCSET_STRING@@@Z
??0Statement@@QAE@XZ
?find_by_name@Statement_map@@QAEPAVStatement@@PAUst_mysql_lex_string@@@Z
?find@Statement_map@@QAEPAVStatement@@K@Z
??0?$ilink@UItem_change_record@@@@QAE@XZ
?unlink@?$ilink@UItem_change_record@@@@QAEXXZ
??1?$ilink@UItem_change_record@@@@UAE@XZ
??4?$ilink@UItem_change_record@@@@QAEAAV0@ABV0@@Z
?append@?$Dynamic_array@PAVReprepare_observer@@@@QAE_NABQAVReprepare_observer@@@Z
?pop@?$Dynamic_array@PAVReprepare_observer@@@@QAEAAPAVReprepare_observer@@XZ
?push_reprepare_observer@Open_tables_state@@QAEXPAVReprepare_observer@@@Z
?pop_reprepare_observer@Open_tables_state@@QAEPAVReprepare_observer@@XZ
?empty@?$base_ilist@UItem_change_record@@@@QAEXXZ
??0?$base_ilist@UItem_change_record@@@@QAE@XZ
?move_elements_to@?$base_ilist@UItem_change_record@@@@QAEXPAV1@@Z
??1?$base_ilist@UItem_change_record@@@@QAE@XZ
?move_elements_to@?$I_List@UItem_change_record@@@@QAEXPAV1@@Z
??0?$I_List@UItem_change_record@@@@QAE@XZ
??1?$I_List@UItem_change_record@@@@QAE@XZ
?set_stmt_da@THD@@QAEXPAVDiagnostics_area@@@Z
?set_thd@select_result@@QAEXPAVTHD@@@Z
??0select_send@@QAE@XZ
?check_simple_select@select_send@@UBE_NXZ
??1select_send@@UAE@XZ
?ptr@user_var_entry@@QBEPBDXZ
?report_error@Reprepare_observer@@QAE_NPAVTHD@@@Z
?is_invalidated@Reprepare_observer@@QBE_NXZ
?reset_reprepare_observer@Reprepare_observer@@QAEXXZ
?mysqld_stmt_prepare@@YAXPAVTHD@@PBDI@Z
?mysqld_stmt_execute@@YAXPAVTHD@@PADI@Z
?mysqld_stmt_close@@YAXPAVTHD@@PADI@Z
?mysql_sql_stmt_prepare@@YAXPAVTHD@@@Z
?mysql_sql_stmt_execute@@YAXPAVTHD@@@Z
?mysql_sql_stmt_close@@YAXPAVTHD@@@Z
?mysqld_stmt_fetch@@YAXPAVTHD@@PADI@Z
?mysqld_stmt_reset@@YAXPAVTHD@@PADI@Z
?mysql_stmt_get_longdata@@YAXPAVTHD@@PADK@Z
?reinit_stmt_before_use@@YAXPAVTHD@@PAULEX@@@Z
??1Server_runnable@@UAE@XZ
??0Server_runnable@@QAE@XZ
??0Ed_result_set@@QAE@PAV?$List@VEd_row@@@@IPAUst_mem_root@@@Z
??1Ed_result_set@@QAE@XZ
??3Ed_result_set@@SAXPAXI@Z
??0?$List@VEd_row@@@@QAE@XZ
?push_back@?$List@VEd_row@@@@QAE_NPAVEd_row@@PAUst_mem_root@@@Z
??0Ed_connection@@QAE@PAVTHD@@@Z
?execute_direct@Ed_connection@@QAE_NUst_mysql_lex_string@@@Z
?execute_direct@Ed_connection@@QAE_NPAVServer_runnable@@@Z
?store_result_set@Ed_connection@@QAEPAVEd_result_set@@XZ
?free_old_result@Ed_connection@@AAEXXZ
?add_result_set@Ed_connection@@AAEXPAVEd_result_set@@@Z
??0Ed_row@@QAE@PAUEd_column@@I@Z
??0select_analyse@@QAE@PAVselect_result@@PBUProc_analyse_params@@@Z
??1select_analyse@@UAE@XZ
?field_count@select_analyse@@UBEIAAV?$List@VItem@@@@@Z
?prepare@select_analyse@@UAEHAAV?$List@VItem@@@@PAVst_select_lex_unit@@@Z
??0Select_fetch_protocol_binary@@QAE@PAVTHD@@@Z
?send_result_set_metadata@Select_fetch_protocol_binary@@UAE_NAAV?$List@VItem@@@@I@Z
?send_data@Select_fetch_protocol_binary@@UAE_NAAV?$List@VItem@@@@@Z
?send_eof@Select_fetch_protocol_binary@@UAE_NXZ
??1Select_fetch_protocol_binary@@UAE@XZ
??0Prepared_statement@@QAE@PAVTHD@@@Z
??1Prepared_statement@@UAE@XZ
?setup_set_params@Prepared_statement@@QAEXXZ
?type@Prepared_statement@@UBE?AW4Type@Query_arena@@XZ
?cleanup_stmt@Prepared_statement@@UAEXXZ
?set_name@Prepared_statement@@QAE_NPAUst_mysql_lex_string@@@Z
?close_cursor@Prepared_statement@@QAEXXZ
?is_in_use@Prepared_statement@@QAE_NXZ
?is_sql_prepare@Prepared_statement@@QBE_NXZ
?set_sql_prepare@Prepared_statement@@QAEXXZ
?prepare@Prepared_statement@@QAE_NPBDI@Z
?execute_loop@Prepared_statement@@QAE_NPAVString@@_NPAE2@Z
?execute_server_runnable@Prepared_statement@@QAE_NPAVServer_runnable@@@Z
?deallocate@Prepared_statement@@QAEXXZ
?set_db@Prepared_statement@@AAE_NPBDI@Z
?set_parameters@Prepared_statement@@AAE_NPAVString@@PAE1@Z
?execute@Prepared_statement@@AAE_NPAVString@@_N@Z
?reprepare@Prepared_statement@@AAE_NXZ
?validate_metadata@Prepared_statement@@AAE_NPAV1@@Z
?swap_prepared_statement@Prepared_statement@@AAEXPAV1@@Z
??0Execute_sql_statement@@QAE@Ust_mysql_lex_string@@@Z
?execute_server_code@Execute_sql_statement@@UAE_NPAVTHD@@@Z
??1Execute_sql_statement@@UAE@XZ
??0Protocol_local@@QAE@PAVTHD@@PAVEd_connection@@@Z
??1Protocol_local@@UAE@XZ
?prepare_for_resend@Protocol_local@@MAEXXZ
?write@Protocol_local@@MAE_NXZ
?store_null@Protocol_local@@MAE_NXZ
?store_tiny@Protocol_local@@MAE_N_J@Z
?store_short@Protocol_local@@MAE_N_J@Z
?store_long@Protocol_local@@MAE_N_J@Z
?store_longlong@Protocol_local@@MAE_N_J_N@Z
?store_decimal@Protocol_local@@MAE_NPBVmy_decimal@@@Z
?store@Protocol_local@@MAE_NPBDIPBUcharset_info_st@@@Z
?store@Protocol_local@@MAE_NPBDIPBUcharset_info_st@@1@Z
?store@Protocol_local@@MAE_NPAUst_mysql_time@@I@Z
?store_date@Protocol_local@@MAE_NPAUst_mysql_time@@@Z
?store_time@Protocol_local@@MAE_NPAUst_mysql_time@@I@Z
?store@Protocol_local@@MAE_NMIPAVString@@@Z
?store@Protocol_local@@MAE_NNIPAVString@@@Z
?store@Protocol_local@@MAE_NPAVField@@@Z
?send_result_set_metadata@Protocol_local@@MAE_NPAV?$List@VItem@@@@I@Z
?send_out_parameters@Protocol_local@@MAE_NPAV?$List@VItem_param@@@@@Z
?type@Protocol_local@@MAE?AW4enum_protocol_type@Protocol@@XZ
?send_ok@Protocol_local@@MAE_NII_K0PBD@Z
?send_eof@Protocol_local@@MAE_NII@Z
?send_error@Protocol_local@@MAE_NIPBD0@Z
?store_string@Protocol_local@@AAE_NPBDIPBUcharset_info_st@@1@Z
?store_column@Protocol_local@@AAE_NPBXI@Z
?opt_add_row_to_rset@Protocol_local@@AAEXXZ
?is_param_null@@YA_NPBEK@Z
?is_param_long_data_type@@YA_NPAVItem_param@@@Z
??0?$List_iterator_fast@V?$List@VItem@@@@@@QAE@AAV?$List@V?$List@VItem@@@@@@@Z
??E?$List_iterator_fast@V?$List@VItem@@@@@@QAEPAV?$List@VItem@@@@H@Z
?rewind@?$List_iterator_fast@V?$List@VItem@@@@@@QAEXXZ
??0?$List_iterator@VItem_param@@@@QAE@AAV?$List@VItem_param@@@@@Z
??E?$List_iterator@VItem_param@@@@QAEPAVItem_param@@H@Z
?at@?$Mem_root_array@PAUst_order@@$00@@QAEAAPAUst_order@@I@Z
?size@?$Mem_root_array@PAUst_order@@$00@@QBEIXZ
??$swap@I@std@@YAXAAI0@Z
??$_Move@AAI@std@@YA$$QAIAAI@Z
?global_plugin_typelib_names@@3PAPBDA DATA
?LOCK_plugin_delete@@3Ust_mysql_mutex@@A DATA
?opt_plugin_load_list_ptr@@3PAV?$I_List@Vi_string@@@@A DATA
?opt_plugin_dir_ptr@@3PADA DATA
?opt_plugin_dir@@3PADA DATA
?plugin_type_names@@3QBUst_mysql_lex_string@@B DATA
?plugin_type_initialize@@3PAP6AHPAUst_plugin_int@@@ZA DATA
?plugin_type_deinitialize@@3PAP6AHPAUst_plugin_int@@@ZA DATA
?LOCK_plugin@@3Ust_mysql_mutex@@A DATA
?plugin_init@@YAHPAHPAPADH@Z
?plugin_shutdown@@YAXXZ
?memcached_shutdown@@YAXXZ
?add_plugin_options@@YAXPAV?$vector@Umy_option@@V?$allocator@Umy_option@@@std@@@std@@PAUst_mem_root@@@Z
?plugin_is_ready@@YA_NPBUst_mysql_lex_string@@H@Z
?plugin_lock@@YAPAPAUst_plugin_int@@PAVTHD@@PAPAPAU1@@Z
?plugin_lock_by_name@@YAPAPAUst_plugin_int@@PAVTHD@@PBUst_mysql_lex_string@@H@Z
?plugin_unlock@@YAXPAVTHD@@PAPAUst_plugin_int@@@Z
?plugin_unlock_list@@YAXPAVTHD@@PAPAPAUst_plugin_int@@I@Z
?mysql_install_plugin@@YA_NPAVTHD@@PBUst_mysql_lex_string@@1@Z
?mysql_uninstall_plugin@@YA_NPAVTHD@@PBUst_mysql_lex_string@@@Z
?plugin_thdvar_init@@YAXPAVTHD@@_N@Z
?plugin_thdvar_cleanup@@YAXPAVTHD@@@Z
?plugin_status@@YA?AW4SHOW_COMP_OPTION@@PBDIH@Z
?check_valid_path@@YA_NPBDI@Z
?plugin_foreach_with_mask@@YA_NPAVTHD@@P6AD0PAPAUst_plugin_int@@PAX@ZHI2@Z
?plugin_find_by_type@@YAPAUst_plugin_int@@PAUst_mysql_lex_string@@H@Z
?lock_plugin_data@@YAHXZ
?unlock_plugin_data@@YAHXZ
?c_ptr_quick@String@@QAEPADXZ
?empty@?$base_ilist@Vi_string@@@@QAEXXZ
??0?$base_ilist@Vi_string@@@@QAE@XZ
??1?$base_ilist@Vi_string@@@@QAE@XZ
??0?$I_List@Vi_string@@@@QAE@XZ
??1?$I_List@Vi_string@@@@QAE@XZ
?find_sys_var@@YAPAVsys_var@@PAVTHD@@PBDI@Z
??2sys_var_pluginvar@@SAPAXIPAUst_mem_root@@@Z
??3sys_var_pluginvar@@SAXPAXI@Z
??0sys_var_pluginvar@@QAE@PAUsys_var_chain@@PBDPAUst_mysql_sys_var@@@Z
?cast_pluginvar@sys_var_pluginvar@@UAEPAV1@XZ
?check_update_type@sys_var_pluginvar@@UAE_NW4Item_result@@@Z
?real_value_ptr@sys_var_pluginvar@@QAEPAEPAVTHD@@W4enum_var_type@@@Z
?plugin_var_typelib@sys_var_pluginvar@@QAEPAUst_typelib@@XZ
?do_value_ptr@sys_var_pluginvar@@QAEPAEPAVTHD@@W4enum_var_type@@PAUst_mysql_lex_string@@@Z
?session_value_ptr@sys_var_pluginvar@@UAEPAEPAVTHD@@PAUst_mysql_lex_string@@@Z
?global_value_ptr@sys_var_pluginvar@@UAEPAEPAVTHD@@PAUst_mysql_lex_string@@@Z
?do_check@sys_var_pluginvar@@UAE_NPAVTHD@@PAVset_var@@@Z
?session_save_default@sys_var_pluginvar@@UAEXPAVTHD@@PAVset_var@@@Z
?global_save_default@sys_var_pluginvar@@UAEXPAVTHD@@PAVset_var@@@Z
?session_update@sys_var_pluginvar@@UAE_NPAVTHD@@PAVset_var@@@Z
?global_update@sys_var_pluginvar@@UAE_NPAVTHD@@PAVset_var@@@Z
??1sys_var_pluginvar@@UAE@XZ
get_plugin_hash_key
get_bookmark_hash_key
??0?$base_ilist_iterator@Vi_string@@@@QAE@AAV?$base_ilist@Vi_string@@@@@Z
?next@?$base_ilist_iterator@Vi_string@@@@QAEPAVi_string@@XZ
??0?$I_List_iterator@Vi_string@@@@QAE@AAV?$I_List@Vi_string@@@@@Z
??E?$I_List_iterator@Vi_string@@@@QAEPAVi_string@@H@Z
get_one_plugin_option
?my_ulonglong2double@@YAN_K@Z
?no_semijoin@st_position@@QAEXXZ
??RJoin_tab_compare_default@@QAE_NPBUst_join_table@@0@Z
??RJoin_tab_compare_straight@@QAE_NPBUst_join_table@@0@Z
??0Join_tab_compare_embedded_first@@QAE@PBUTABLE_LIST@@@Z
??RJoin_tab_compare_embedded_first@@QAE_NPBUst_join_table@@0@Z
?choose_table_order@Optimize_table_order@@QAE_NXZ
?best_access_path@Optimize_table_order@@AAEXPAUst_join_table@@_KI_NNPAUst_position@@3@Z
?check_interleaving_with_nj@Optimize_table_order@@AAE_NPAUst_join_table@@@Z
?advance_sj_state@Optimize_table_order@@AAEX_KPBUst_join_table@@IPAN2PAUst_position@@@Z
?backout_nj_state@Optimize_table_order@@AAEX_KPBUst_join_table@@@Z
?optimize_straight_join@Optimize_table_order@@AAEX_K@Z
?greedy_search@Optimize_table_order@@AAE_N_K@Z
?best_extension_by_limited_search@Optimize_table_order@@AAE_N_KINNI@Z
?eq_ref_extension_by_limited_search@Optimize_table_order@@AAE_K_KINNI@Z
?consider_plan@Optimize_table_order@@AAEXINNPAVOpt_trace_object@@@Z
?fix_semijoin_strategies@Optimize_table_order@@AAE_NXZ
?semijoin_firstmatch_loosescan_access_paths@Optimize_table_order@@AAE_NII_K_N1PAN2@Z
?semijoin_mat_scan_access_paths@Optimize_table_order@@AAEXII_KPAUTABLE_LIST@@_NPAN3@Z
?semijoin_mat_lookup_access_paths@Optimize_table_order@@AAEXIPAUTABLE_LIST@@PAN1@Z
?semijoin_dupsweedout_access_paths@Optimize_table_order@@AAEXII_KPAN1@Z
?determine_search_depth@Optimize_table_order@@CAIII@Z
?get_partial_join_cost@@YAXPAVJOIN@@IPAN1@Z
?add_utf8@Opt_trace_struct@@QAEAAV1@PBDI@Z
?add@Opt_trace_struct@@QAEAAV1@PBDN@Z
??0Loose_scan_opt@@QAE@XZ
?init@Loose_scan_opt@@QAEXPAUst_join_table@@_K_N2@Z
?next_ref_key@Loose_scan_opt@@QAEXXZ
?add_keyuse@Loose_scan_opt@@QAEX_KPAVKey_use@@@Z
?have_a_case@Loose_scan_opt@@QAE_NXZ
?check_ref_access_part1@Loose_scan_opt@@QAEXPAUst_join_table@@IPAVKey_use@@K@Z
?check_range_access@Loose_scan_opt@@QAEXPAVJOIN@@IPAVQUICK_SELECT_I@@@Z
?save_to_position@Loose_scan_opt@@QAEXPAUst_join_table@@PAUst_position@@@Z
??$merge_sort@Ust_join_table@@VJoin_tab_compare_embedded_first@@@@YAXPAPAUst_join_table@@0VJoin_tab_compare_embedded_first@@@Z
??$merge_sort@Ust_join_table@@VJoin_tab_compare_straight@@@@YAXPAPAUst_join_table@@0VJoin_tab_compare_straight@@@Z
??$merge_sort@Ust_join_table@@VJoin_tab_compare_default@@@@YAXPAPAUst_join_table@@0VJoin_tab_compare_default@@@Z
??0?$StringBuffer@$0CA@@@QAE@XZ
??1?$StringBuffer@$0CA@@@QAE@XZ
??$insert_sort@Ust_join_table@@VJoin_tab_compare_embedded_first@@@@YAXPAPAUst_join_table@@0VJoin_tab_compare_embedded_first@@@Z
??0?$allocator@PAUst_join_table@@@std@@QAE@XZ
?deallocate@?$allocator@PAUst_join_table@@@std@@QAEXPAPAUst_join_table@@I@Z
?allocate@?$allocator@PAUst_join_table@@@std@@QAEPAPAUst_join_table@@I@Z
?construct@?$allocator@PAUst_join_table@@@std@@QAEXPAPAUst_join_table@@ABQAU3@@Z
?max_size@?$allocator@PAUst_join_table@@@std@@QBEIXZ
?max_size@?$allocator_traits@V?$allocator@PAUst_join_table@@@std@@@std@@SAIABV?$allocator@PAUst_join_table@@@2@@Z
??0?$_Wrap_alloc@V?$allocator@PAUst_join_table@@@std@@@std@@QAE@XZ
?allocate@?$_Wrap_alloc@V?$allocator@PAUst_join_table@@@std@@@std@@QAEPAPAUst_join_table@@I@Z
?deallocate@?$_Wrap_alloc@V?$allocator@PAUst_join_table@@@std@@@std@@QAEXPAPAUst_join_table@@I@Z
?max_size@?$_Wrap_alloc@V?$allocator@PAUst_join_table@@@std@@@std@@QBEIXZ
?deallocate@?$allocator@PAPAUst_join_table@@@std@@QAEXPAPAPAUst_join_table@@I@Z
?allocate@?$allocator@PAPAUst_join_table@@@std@@QAEPAPAPAUst_join_table@@I@Z
?allocate@?$_Wrap_alloc@V?$allocator@PAPAUst_join_table@@@std@@@std@@QAEPAPAPAUst_join_table@@I@Z
?deallocate@?$_Wrap_alloc@V?$allocator@PAPAUst_join_table@@@std@@@std@@QAEXPAPAPAUst_join_table@@I@Z
??0?$_Deque_val@U?$_Deque_simple_types@PAUst_join_table@@@std@@@std@@QAE@XZ
??1?$_Deque_val@U?$_Deque_simple_types@PAUst_join_table@@@std@@@std@@QAE@XZ
??0?$_Deque_alloc@$0A@U?$_Deque_base_types@PAUst_join_table@@V?$allocator@PAUst_join_table@@@std@@@std@@@std@@QAE@ABV?$allocator@PAUst_join_table@@@1@@Z
??1?$_Deque_alloc@$0A@U?$_Deque_base_types@PAUst_join_table@@V?$allocator@PAUst_join_table@@@std@@@std@@@std@@QAE@XZ
?_Alloc_proxy@?$_Deque_alloc@$0A@U?$_Deque_base_types@PAUst_join_table@@V?$allocator@PAUst_join_table@@@std@@@std@@@std@@QAEXXZ
?_Free_proxy@?$_Deque_alloc@$0A@U?$_Deque_base_types@PAUst_join_table@@V?$allocator@PAUst_join_table@@@std@@@std@@@std@@QAEXXZ
??0?$deque@PAUst_join_table@@V?$allocator@PAUst_join_table@@@std@@@std@@QAE@XZ
??1?$deque@PAUst_join_table@@V?$allocator@PAUst_join_table@@@std@@@std@@QAE@XZ
?begin@?$deque@PAUst_join_table@@V?$allocator@PAUst_join_table@@@std@@@std@@QAE?AV?$_Deque_iterator@V?$_Deque_val@U?$_Deque_simple_types@PAUst_join_table@@@std@@@std@@@2@XZ
?max_size@?$deque@PAUst_join_table@@V?$allocator@PAUst_join_table@@@std@@@std@@QBEIXZ
?empty@?$deque@PAUst_join_table@@V?$allocator@PAUst_join_table@@@std@@@std@@QBE_NXZ
?front@?$deque@PAUst_join_table@@V?$allocator@PAUst_join_table@@@std@@@std@@QAEAAPAUst_join_table@@XZ
?pop_front@?$deque@PAUst_join_table@@V?$allocator@PAUst_join_table@@@std@@@std@@QAEXXZ
?push_back@?$deque@PAUst_join_table@@V?$allocator@PAUst_join_table@@@std@@@std@@QAEXABQAUst_join_table@@@Z
?pop_back@?$deque@PAUst_join_table@@V?$allocator@PAUst_join_table@@@std@@@std@@QAEXXZ
?_Xlen@?$deque@PAUst_join_table@@V?$allocator@PAUst_join_table@@@std@@@std@@IBEXXZ
?_Tidy@?$deque@PAUst_join_table@@V?$allocator@PAUst_join_table@@@std@@@std@@IAEXXZ
?_Orphan_off@?$deque@PAUst_join_table@@V?$allocator@PAUst_join_table@@@std@@@std@@IBEXI@Z
??0?$queue@PAUst_join_table@@V?$deque@PAUst_join_table@@V?$allocator@PAUst_join_table@@@std@@@std@@@std@@QAE@XZ
?empty@?$queue@PAUst_join_table@@V?$deque@PAUst_join_table@@V?$allocator@PAUst_join_table@@@std@@@std@@@std@@QBE_NXZ
?front@?$queue@PAUst_join_table@@V?$deque@PAUst_join_table@@V?$allocator@PAUst_join_table@@@std@@@std@@@std@@QAEAAPAUst_join_table@@XZ
?push@?$queue@PAUst_join_table@@V?$deque@PAUst_join_table@@V?$allocator@PAUst_join_table@@@std@@@std@@@std@@QAEXABQAUst_join_table@@@Z
?pop@?$queue@PAUst_join_table@@V?$deque@PAUst_join_table@@V?$allocator@PAUst_join_table@@@std@@@std@@@std@@QAEXXZ
??1?$queue@PAUst_join_table@@V?$deque@PAUst_join_table@@V?$allocator@PAUst_join_table@@@std@@@std@@@std@@QAE@XZ
??$insert_sort@Ust_join_table@@VJoin_tab_compare_straight@@@@YAXPAPAUst_join_table@@0VJoin_tab_compare_straight@@@Z
??$insert_sort@Ust_join_table@@VJoin_tab_compare_default@@@@YAXPAPAUst_join_table@@0VJoin_tab_compare_default@@@Z
??0?$_Deque_const_iterator@V?$_Deque_val@U?$_Deque_simple_types@PAUst_join_table@@@std@@@std@@@std@@QAE@IPBU_Container_base12@1@@Z
??D?$_Deque_const_iterator@V?$_Deque_val@U?$_Deque_simple_types@PAUst_join_table@@@std@@@std@@@std@@QBEABQAUst_join_table@@XZ
?_Setcont@?$_Deque_const_iterator@V?$_Deque_val@U?$_Deque_simple_types@PAUst_join_table@@@std@@@std@@@std@@QAEXPBV?$_Deque_val@U?$_Deque_simple_types@PAUst_join_table@@@std@@@2@@Z
??1?$_Deque_const_iterator@V?$_Deque_val@U?$_Deque_simple_types@PAUst_join_table@@@std@@@std@@@std@@QAE@XZ
??0?$_Deque_iterator@V?$_Deque_val@U?$_Deque_simple_types@PAUst_join_table@@@std@@@std@@@std@@QAE@IPBU_Container_base12@1@@Z
??D?$_Deque_iterator@V?$_Deque_val@U?$_Deque_simple_types@PAUst_join_table@@@std@@@std@@@std@@QBEAAPAUst_join_table@@XZ
??1?$_Deque_iterator@V?$_Deque_val@U?$_Deque_simple_types@PAUst_join_table@@@std@@@std@@@std@@QAE@XZ
??$destroy@PAUst_join_table@@@?$_Wrap_alloc@V?$allocator@PAUst_join_table@@@std@@@std@@QAEXPAPAUst_join_table@@@Z
??$construct@PAUst_join_table@@ABQAU1@@?$_Wrap_alloc@V?$allocator@PAUst_join_table@@@std@@@std@@QAEXPAPAUst_join_table@@ABQAU2@@Z
??$?0U?$_Wrap_alloc@V?$allocator@PAUst_join_table@@@std@@@std@@@?$_Wrap_alloc@V?$allocator@PAPAUst_join_table@@@std@@@std@@QAE@ABU?$_Wrap_alloc@V?$allocator@PAUst_join_table@@@std@@@1@@Z
??$?0PAUst_join_table@@@?$allocator@PAPAUst_join_table@@@std@@QAE@ABV?$allocator@PAUst_join_table@@@1@@Z
??$destroy@PAPAUst_join_table@@@?$_Wrap_alloc@V?$allocator@PAUst_join_table@@@std@@@std@@QAEXPAPAPAUst_join_table@@@Z
??$_Uninitialized_copy@PAPAPAUst_join_table@@PAPAPAU1@U?$_Wrap_alloc@V?$allocator@PAPAUst_join_table@@@std@@@std@@@std@@YAPAPAPAUst_join_table@@PAPAPAU1@00AAU?$_Wrap_alloc@V?$allocator@PAPAUst_join_table@@@std@@@0@@Z
??$_Uninitialized_default_fill_n@PAPAPAUst_join_table@@IU?$_Wrap_alloc@V?$allocator@PAPAUst_join_table@@@std@@@std@@@std@@YAXPAPAPAUst_join_table@@IAAU?$_Wrap_alloc@V?$allocator@PAPAUst_join_table@@@std@@@0@@Z
??$_Destroy_range@U?$_Wrap_alloc@V?$allocator@PAPAUst_join_table@@@std@@@std@@@std@@YAXPAPAPAUst_join_table@@0AAU?$_Wrap_alloc@V?$allocator@PAPAUst_join_table@@@std@@@0@@Z
??$_Allocate@PAUst_join_table@@@std@@YAPAPAUst_join_table@@IPAPAU1@@Z
??$_Allocate@PAPAUst_join_table@@@std@@YAPAPAPAUst_join_table@@IPAPAPAU1@@Z
??$destroy@PAUst_join_table@@@?$allocator_traits@V?$allocator@PAUst_join_table@@@std@@@std@@SAXAAV?$allocator@PAUst_join_table@@@1@PAPAUst_join_table@@@Z
??$forward@ABQAUst_join_table@@@std@@YAABQAUst_join_table@@ABQAU1@@Z
??$construct@PAUst_join_table@@ABQAU1@@?$allocator_traits@V?$allocator@PAUst_join_table@@@std@@@std@@SAXAAV?$allocator@PAUst_join_table@@@1@PAPAUst_join_table@@ABQAU3@@Z
??$destroy@PAPAUst_join_table@@@?$allocator_traits@V?$allocator@PAUst_join_table@@@std@@@std@@SAXAAV?$allocator@PAUst_join_table@@@1@PAPAPAUst_join_table@@@Z
??$_Ptr_cat@PAPAUst_join_table@@PAPAU1@@std@@YA?AU_Scalar_ptr_iterator_tag@0@PAPAPAUst_join_table@@0@Z
??$_Uninit_copy@PAPAUst_join_table@@PAPAU1@@std@@YAPAPAPAUst_join_table@@PAPAPAU1@00AAU?$_Wrap_alloc@V?$allocator@PAPAUst_join_table@@@std@@@0@U_Scalar_ptr_iterator_tag@0@@Z
??$_Val_type@PAPAPAUst_join_table@@@std@@YAPAPAPAUst_join_table@@PAPAPAU1@@Z
??$_Uninit_def_fill_n@PAPAUst_join_table@@IPAPAU1@@std@@YAXPAPAPAUst_join_table@@IAAU?$_Wrap_alloc@V?$allocator@PAPAUst_join_table@@@std@@@0@0U_Scalar_ptr_iterator_tag@0@@Z
??$_Destroy_range@U?$_Wrap_alloc@V?$allocator@PAPAUst_join_table@@@std@@@std@@@std@@YAXPAPAPAUst_join_table@@0AAU?$_Wrap_alloc@V?$allocator@PAPAUst_join_table@@@std@@@0@U_Scalar_ptr_iterator_tag@0@@Z
??$destroy@PAUst_join_table@@@?$allocator@PAUst_join_table@@@std@@QAEXPAPAUst_join_table@@@Z
??$destroy@PAPAUst_join_table@@@?$allocator@PAUst_join_table@@@std@@QAEXPAPAPAUst_join_table@@@Z
??$_Debug_range@PAPAPAUst_join_table@@@std@@YAXPAPAPAUst_join_table@@0PB_WI@Z
??$_Debug_pointer@PAPAUst_join_table@@@std@@YAXPAPAPAUst_join_table@@PB_WI@Z
??$_Fill_n@PAPAPAUst_join_table@@IPAPAU1@@std@@YAPAPAPAUst_join_table@@PAPAPAU1@IABQAPAU1@@Z
??$_Iter_cat@PAPAPAUst_join_table@@@std@@YA?AUrandom_access_iterator_tag@0@ABQAPAPAUst_join_table@@@Z
??$_Debug_range2@PAPAPAUst_join_table@@@std@@YAXPAPAPAUst_join_table@@0PB_WIUrandom_access_iterator_tag@0@@Z
??2String@@SAPAXIPAUst_mem_root@@@Z
??3String@@SAXPAXPAUst_mem_root@@@Z
??0?$SQL_I_List@UTABLE_LIST@@@@QAE@ABV0@@Z
??0st_ha_create_information@@QAE@ABU0@@Z
?push_back@?$List@VString@@@@QAE_NPAVString@@@Z
?head@?$List@D@@QAEPADXZ
?execute@Sql_cmd_alter_table_exchange_partition@@UAE_NPAVTHD@@@Z
?exchange_partition@Sql_cmd_alter_table_exchange_partition@@AAE_NPAVTHD@@PAUTABLE_LIST@@PAVAlter_info@@@Z
?execute@Sql_cmd_alter_table_analyze_partition@@UAE_NPAVTHD@@@Z
?execute@Sql_cmd_alter_table_check_partition@@UAE_NPAVTHD@@@Z
?execute@Sql_cmd_alter_table_optimize_partition@@UAE_NPAVTHD@@@Z
?execute@Sql_cmd_alter_table_repair_partition@@UAE_NPAVTHD@@@Z
?execute@Sql_cmd_alter_table_truncate_partition@@UAE_NPAVTHD@@@Z
?partition_keywords@@3QBUst_mysql_lex_string@@B DATA
?dup@String@@QBEPADPAUst_mem_root@@@Z
?cmp@Field@@QAEHPBE@Z
?get_parts_for_update@@YAHPBEPAE0PAVpartition_info@@PAI3PA_J@Z
?get_part_for_delete@@YAHPBE0PAVpartition_info@@PAI@Z
?prune_partition_set@@YAXPBUTABLE@@PAUpart_id_range@@@Z
?set_linear_hash_mask@@YAXPAVpartition_info@@I@Z
?fix_partition_func@@YA_NPAVTHD@@PAUTABLE@@_N@Z
?partition_key_modified@@YA_NPAUTABLE@@PBUst_bitmap@@@Z
?get_partition_set@@YAXPBUTABLE@@PAEIPBUst_key_range@@PAUpart_id_range@@@Z
?get_partition_field_store_length@@YAIPAVField@@@Z
?get_full_part_id_from_key@@YAXPBUTABLE@@PAEPAUst_key@@PBUst_key_range@@PAUpart_id_range@@@Z
?mysql_unpack_partition@@YA_NPAVTHD@@PADIPAUTABLE@@_NPAUhandlerton@@PA_N@Z
?make_used_partitions_str@@YA_NPAVpartition_info@@PAV?$List@$$CBD@@@Z
?get_list_array_idx_for_endpoint@@YAIPAVpartition_info@@_N1@Z
?get_partition_id_range_for_endpoint@@YAIPAVpartition_info@@_N1@Z
?check_part_func_fields@@YA_NPAPAVField@@_N@Z
?field_is_partition_charset@@YA_NPAVField@@@Z
?convert_charset_partition_constant@@YAPAVItem@@PAV1@PBUcharset_info_st@@@Z
?mem_alloc_error@@YAXI@Z
?truncate_partition_filename@@YAXPAD@Z
?push_back@?$List@Vpartition_element@@@@QAE_NPAVpartition_element@@@Z
?init@Name_resolution_context@@QAEXXZ
??0?$List@D@@QAE@ABV0@@Z
?set_agg_func_used@st_select_lex@@QAEX_N@Z
?get_tot_partitions@partition_info@@QAEIXZ
?get_next_partition_id_range@@YAIPAUst_partition_iter@@@Z
?fast_alter_partition_table@@YAIPAVTHD@@PAUTABLE@@PAVAlter_info@@PAUst_ha_create_information@@PAUTABLE_LIST@@PADPBDPAVpartition_info@@@Z
?set_all_part_state@@YAXPAVpartition_info@@W4partition_state@@@Z
?set_part_state@@YA_NPAVAlter_info@@PAVpartition_info@@W4partition_state@@@Z
?prep_alter_part_table@@YAIPAVTHD@@PAUTABLE@@PAVAlter_info@@PAUst_ha_create_information@@PAVAlter_table_ctx@@PA_NPAPAVpartition_info@@@Z
?generate_partition_syntax@@YAPADPAVpartition_info@@PAI_N2PAUst_ha_create_information@@PAVAlter_info@@PBD@Z
?verify_data_with_partition@@YA_NPAUTABLE@@0I@Z
?compare_partition_options@@YA_NPAUst_ha_create_information@@PAVpartition_element@@@Z
?create_partition_name@@YA_NPADPBD1I_N@Z
?create_subpartition_name@@YA_NPADPBD11I@Z
?set_field_ptr@@YAXPAPAVField@@PBE1@Z
?set_key_field_ptr@@YAXPAUst_key@@PBE1@Z
?get_partition_id_list_col@@YAHPAVpartition_info@@PAIPA_J@Z
?get_partition_id_list@@YAHPAVpartition_info@@PAIPA_J@Z
?get_partition_id_range_col@@YAHPAVpartition_info@@PAIPA_J@Z
?get_partition_id_range@@YAHPAVpartition_info@@PAIPA_J@Z
?get_partition_id_hash_nosub@@YAHPAVpartition_info@@PAIPA_J@Z
?get_partition_id_key_nosub@@YAHPAVpartition_info@@PAIPA_J@Z
?get_partition_id_linear_hash_nosub@@YAHPAVpartition_info@@PAIPA_J@Z
?get_partition_id_linear_key_nosub@@YAHPAVpartition_info@@PAIPA_J@Z
?get_partition_id_with_sub@@YAHPAVpartition_info@@PAIPA_J@Z
?get_partition_id_hash_sub@@YAHPAVpartition_info@@PAI@Z
?get_partition_id_key_sub@@YAHPAVpartition_info@@PAI@Z
?get_partition_id_linear_hash_sub@@YAHPAVpartition_info@@PAI@Z
?get_partition_id_linear_key_sub@@YAHPAVpartition_info@@PAI@Z
?get_next_partition_id_list@@YAIPAUst_partition_iter@@@Z
?get_part_iter_for_interval_via_mapping@@YAHPAVpartition_info@@_NPAIPAE3IIIPAUst_partition_iter@@@Z
?get_part_iter_for_interval_cols_via_map@@YAHPAVpartition_info@@_NPAIPAE3IIIPAUst_partition_iter@@@Z
?get_part_iter_for_interval_via_walking@@YAHPAVpartition_info@@_NPAIPAE3IIIPAUst_partition_iter@@@Z
?partition_default_handling@@YA_NPAUTABLE@@PAVpartition_info@@_NPBD@Z
?check_signed_flag@@YAHPAVpartition_info@@@Z
?replace@?$List_iterator@Vpartition_element@@@@QAEPAVpartition_element@@PAV2@@Z
?remove@?$List_iterator@Vpartition_element@@@@QAEXXZ
?after@?$List_iterator@Vpartition_element@@@@QAEXPAVpartition_element@@@Z
??_9Item@@$BBKE@AE
?check_range_capable_PF@@YAXPAUTABLE@@@Z
?get_partition_id_cols_list_for_endpoint@@YAIPAVpartition_info@@_N1I@Z
?get_list_array_idx_for_endpoint_charset@@YAIPAVpartition_info@@_N1@Z
?get_part_id_from_key@@YA_NPBUTABLE@@PAEPAUst_key@@PBUst_key_range@@PAI@Z
?handle_alter_part_error@@YAXPAUst_lock_param_type@@_N11@Z
?push_back@?$List@$$CBD@@QAE_NPBD@Z
??0?$StringBuffer@$0BAA@@@QAE@PBUcharset_info_st@@@Z
??1?$StringBuffer@$0BAA@@@QAE@XZ
?store_tuple_to_record@@YAIPAPAVField@@PAIPAE2@Z
?get_partition_id_cols_range_for_endpoint@@YAIPAVpartition_info@@_N1I@Z
?max_stack_used@@3JA DATA
?any_db@@3PBDB DATA
?sql_command_flags@@3PAIA DATA
?server_command_flags@@3PAIA DATA
?command_name@@3QBUst_mysql_lex_string@@B DATA
?xa_state_names@@3PAPBDA DATA
??4String@@QAEAAV0@ABV0@@Z
?next_query_id@@YA_JXZ
??4MDL_request@@QAEAAV0@ABV0@@Z
?save_and_clear@?$SQL_I_List@UTABLE_LIST@@@@QAEXPAV1@@Z
?is_anonymous_derived_table@TABLE_LIST@@QBE_NXZ
??4TABLE_LIST@@QAEAAU0@ABU0@@Z
?push_front@?$List@UTABLE_LIST@@@@QAE_NPAUTABLE_LIST@@@Z
?pop@?$List@UTABLE_LIST@@@@QAEPAUTABLE_LIST@@XZ
?reset_for_next_command@Warning_info@@AAEXXZ
?set_read_only@Warning_info@@AAEX_N@Z
?set_overwrite_status@Diagnostics_area@@QAEX_N@Z
?reset_for_next_command@Diagnostics_area@@QAEXXZ
?set_warning_info_read_only@Diagnostics_area@@QAEX_N@Z
?real_type_with_now_as_default@@YA_NW4enum_field_types@@@Z
?real_type_with_now_on_update@@YA_NW4enum_field_types@@@Z
??0COPY_INFO@@QAE@W4operation_type@0@PAV?$List@VItem@@@@_NW4enum_duplicates@@2@Z
??0Key_part_spec@@QAE@ABUst_mysql_lex_string@@I@Z
??0Key@@QAE@W4Keytype@0@ABUst_mysql_lex_string@@PAUst_key_create_information@@_NAAV?$List@VKey_part_spec@@@@@Z
??0DTCollation@@QAE@XZ
??0Name_resolution_context@@QAE@XZ
?delete_self@Item@@QAEXXZ
?fix_length_and_charset_datetime@Item@@QAEXI@Z
?fix_length_and_dec_and_charset_datetime@Item@@QAEXIE@Z
??0Item_int@@QAE@_KI@Z
??0Item_int_0@@QAE@XZ
??1Item_int_0@@UAE@XZ
??0?$List@VItem_field@@@@QAE@XZ
??0Item_func@@QAE@PAVItem@@0@Z
??0Item_int_func@@QAE@PAVItem@@@Z
??0Item_int_func@@QAE@PAVItem@@0@Z
??0Arg_comparator@@QAE@PAPAVItem@@0@Z
?cleanup@Arg_comparator@@QAEXXZ
??1Arg_comparator@@QAE@XZ
??0Item_bool_func@@QAE@PAVItem@@@Z
??0Item_bool_func@@QAE@PAVItem@@0@Z
??0Item_bool_func2@@QAE@PAVItem@@0@Z
?select_optimize@Item_bool_func2@@UBE?AW4optimize_type@Item_func@@XZ
?rev_functype@Item_bool_func2@@UBE?AW4Functype@Item_func@@XZ
?have_rev_func@Item_bool_func2@@UBE_NXZ
?print@Item_bool_func2@@UAEXPAVString@@W4enum_query_type@@@Z
?is_null@Item_bool_func2@@UAE_NXZ
?compare_collation@Item_bool_func2@@UAEPBUcharset_info_st@@XZ
?top_level_item@Item_bool_func2@@UAEXXZ
?cleanup@Item_bool_func2@@UAEXXZ
??1Item_bool_func2@@UAE@XZ
??0Item_bool_rowready_func2@@QAE@PAVItem@@0@Z
?subst_argument_checker@Item_bool_rowready_func2@@UAE_NPAPAE@Z
??1Item_bool_rowready_func2@@UAE@XZ
??0Item_func_not@@QAE@PAVItem@@@Z
?functype@Item_func_not@@UBE?AW4Functype@Item_func@@XZ
?func_name@Item_func_not@@UBEPBDXZ
??1Item_func_not@@UAE@XZ
??0Item_func_not_all@@QAE@PAVItem@@@Z
?top_level_item@Item_func_not_all@@UAEXXZ
?functype@Item_func_not_all@@UBE?AW4Functype@Item_func@@XZ
?func_name@Item_func_not_all@@UBEPBDXZ
?not_null_tables@Item_func_not_all@@UBE_KXZ
??1Item_func_not_all@@UAE@XZ
??0Item_func_nop_all@@QAE@PAVItem@@@Z
?func_name@Item_func_nop_all@@UBEPBDXZ
?not_null_tables@Item_func_nop_all@@UBE_KXZ
??1Item_func_nop_all@@UAE@XZ
??0Item_func_ne@@QAE@PAVItem@@0@Z
?functype@Item_func_ne@@UBE?AW4Functype@Item_func@@XZ
?eq_cmp_result@Item_func_ne@@UBE?AW4cond_result@Item@@XZ
?select_optimize@Item_func_ne@@UBE?AW4optimize_type@Item_func@@XZ
?func_name@Item_func_ne@@UBEPBDXZ
??1Item_func_ne@@UAE@XZ
??0Item_timeval_func@@QAE@PAVItem@@@Z
?get_date@Item_timeval_func@@UAE_NPAUst_mysql_time@@I@Z
?get_time@Item_timeval_func@@UAE_NPAUst_mysql_time@@@Z
?result_type@Item_timeval_func@@UBE?AW4Item_result@@XZ
??1Item_timeval_func@@UAE@XZ
??0Item_func_unix_timestamp@@QAE@PAVItem@@@Z
?func_name@Item_func_unix_timestamp@@UBEPBDXZ
?check_partition_func_processor@Item_func_unix_timestamp@@UAE_NPAE@Z
?check_valid_arguments_processor@Item_func_unix_timestamp@@UAE_NPAE@Z
?fix_length_and_dec@Item_func_unix_timestamp@@UAEXXZ
??1Item_func_unix_timestamp@@UAE@XZ
?all_any_subquery_creator@@YAPAVItem@@PAV1@P6APAVComp_creator@@_N@Z1PAVst_select_lex@@@Z
??2st_select_lex_node@@SAPAXI@Z
??2st_select_lex_node@@SAPAXIPAUst_mem_root@@@Z
??3st_select_lex_node@@SAXPAXPAUst_mem_root@@@Z
??0st_select_lex_node@@QAE@XZ
?mysql_new_select@@YA_NPAULEX@@_N@Z
??0st_select_lex_unit@@QAE@XZ
?add_fake_select_lex@st_select_lex_unit@@QAE_NPAVTHD@@@Z
??0?$SQL_I_List@Ust_order@@@@QAE@XZ
?link_in_list@?$SQL_I_List@Ust_order@@@@QAEXPAUst_order@@PAPAU2@@Z
??0?$List@VItem_outer_ref@@@@QAE@XZ
??0?$List@Ust_udf_func@@@@QAE@XZ
?add_table_to_list@st_select_lex@@UAEPAUTABLE_LIST@@PAVTHD@@PAVTable_ident@@PAUst_mysql_lex_string@@KW4thr_lock_type@@W4enum_mdl_type@@PAV?$List@VIndex_hint@@@@PAV?$List@VString@@@@2@Z
?init_nested_join@st_select_lex@@QAE_NPAVTHD@@@Z
?end_nested_join@st_select_lex@@QAEPAUTABLE_LIST@@PAVTHD@@@Z
?nest_last_join@st_select_lex@@QAEPAUTABLE_LIST@@PAVTHD@@@Z
?add_joined_table@st_select_lex@@QAEXPAUTABLE_LIST@@@Z
?convert_right_join@st_select_lex@@QAEPAUTABLE_LIST@@XZ
?set_lock_for_tables@st_select_lex@@UAEXW4thr_lock_type@@@Z
??0st_select_lex@@QAE@XZ
?make_empty_select@st_select_lex@@QAEXXZ
?add_to_query_tables@Query_tables_list@@QAEXPAUTABLE_LIST@@@Z
?first_not_own_table@Query_tables_list@@QAEPAUTABLE_LIST@@XZ
?push_front@?$List@UName_resolution_context@@@@QAE_NPAUName_resolution_context@@@Z
?head@?$List@UName_resolution_context@@@@QAEPAUName_resolution_context@@XZ
?pop@?$List@UName_resolution_context@@@@QAEPAUName_resolution_context@@XZ
?is_broken@LEX@@QBE_NXZ
?push_context@LEX@@QAE_NPAUName_resolution_context@@@Z
?pop_context@LEX@@QAEXXZ
?current_context@LEX@@QAEPAUName_resolution_context@@XZ
?reset@Parser_state@@QAEXPADI@Z
?memdup_w_gap@Query_arena@@QAEPAXPBXII@Z
?set_query_inner@Statement@@QAEXPADIPBUcharset_info_st@@@Z
??0Security_context@@QAE@ABV0@@Z
??4Security_context@@QAEAAV0@ABV0@@Z
??1Slow_log_throttle@@QAE@XZ
?back@?$Dynamic_array@PAVReprepare_observer@@@@QBEPBQAVReprepare_observer@@XZ
?elements@?$Dynamic_array@PAVReprepare_observer@@@@QBEHXZ
?get_reprepare_observer@Open_tables_state@@QBEPAVReprepare_observer@@XZ
?reset_for_next_command@THD@@QAEXXZ
?get_row_count_func@THD@@QBE_JXZ
?set_trans_pos@THD@@QAEXPBD_K@Z
?is_valid_time@THD@@QAE_NXZ
?current_utime@THD@@QAE_KXZ
?update_server_status@THD@@QAEXXZ
?fatal_error@THD@@QAEXXZ
?copy_db_to@THD@@QAE_NPAPADPAI@Z
?binlog_invoker@THD@@QAEXXZ
?get_invoker_user@THD@@QAE?AUst_mysql_lex_string@@XZ
?get_invoker_host@THD@@QAE?AUst_mysql_lex_string@@XZ
?has_invoker@THD@@QAE_NXZ
??0select_insert@@QAE@PAUTABLE_LIST@@PAUTABLE@@PAV?$List@VItem@@@@222W4enum_duplicates@@_N@Z
??0select_create@@QAE@PAUTABLE_LIST@@PAUst_ha_create_information@@PAVAlter_info@@AAV?$List@VItem@@@@W4enum_duplicates@@_N0@Z
??1select_create@@UAE@XZ
?is_derived_table@Table_ident@@QBE_NXZ
test_if_data_home_dir
?stmt_causes_implicit_commit@@YA_NPBVTHD@@I@Z
?select_precheck@@YA_NPAVTHD@@PAULEX@@PAUTABLE_LIST@@2@Z
?multi_update_precheck@@YA_NPAVTHD@@PAUTABLE_LIST@@@Z
?multi_delete_precheck@@YA_NPAVTHD@@PAUTABLE_LIST@@@Z
?update_precheck@@YA_NPAVTHD@@PAUTABLE_LIST@@@Z
?delete_precheck@@YA_NPAVTHD@@PAUTABLE_LIST@@@Z
?insert_precheck@@YA_NPAVTHD@@PAUTABLE_LIST@@@Z
?create_table_precheck@@YA_NPAVTHD@@PAUTABLE_LIST@@1@Z
?check_fk_parent_table_access@@YA_NPAVTHD@@PBDPAUst_ha_create_information@@PAVAlter_info@@@Z
?parse_sql@@YA_NPAVTHD@@PAVParser_state@@PAVObject_creation_ctx@@@Z
?kill_one_thread@@YAIPAVTHD@@K_N@Z
?free_items@@YAXPAVItem@@@Z
?cleanup_items@@YAXPAVItem@@@Z
?comp_eq_creator@@YAPAVComp_creator@@_N@Z
?comp_ge_creator@@YAPAVComp_creator@@_N@Z
?comp_gt_creator@@YAPAVComp_creator@@_N@Z
?comp_le_creator@@YAPAVComp_creator@@_N@Z
?comp_lt_creator@@YAPAVComp_creator@@_N@Z
?comp_ne_creator@@YAPAVComp_creator@@_N@Z
?prepare_schema_table@@YAHPAVTHD@@PAULEX@@PAVTable_ident@@W4enum_schema_tables@@@Z
?get_default_definer@@YAXPAVTHD@@PAUst_lex_user@@@Z
?create_default_definer@@YAPAUst_lex_user@@PAVTHD@@@Z
?create_definer@@YAPAUst_lex_user@@PAVTHD@@PAUst_mysql_lex_string@@1@Z
?get_current_user@@YAPAUst_lex_user@@PAVTHD@@PAU1@@Z
?check_string_byte_length@@YA_NPAUst_mysql_lex_string@@PBDI@Z
?check_string_char_length@@YA_NPAUst_mysql_lex_string@@PBDIPBUcharset_info_st@@_N@Z
?merge_charset_and_collation@@YAPBUcharset_info_st@@PBU1@0@Z
?check_host_name@@YA_NPAUst_mysql_lex_string@@@Z
?mysql_test_parse_for_slave@@YA_NPAVTHD@@PADI@Z
?is_update_query@@YA_NW4enum_sql_command@@@Z
?is_explainable_query@@YA_NW4enum_sql_command@@@Z
?is_log_table_write_query@@YA_NW4enum_sql_command@@@Z
?alloc_query@@YA_NPAVTHD@@PBDI@Z
?mysql_init_select@@YAXPAULEX@@@Z
?mysql_parse@@YAXPAVTHD@@PADIPAVParser_state@@@Z
?mysql_reset_thd_for_next_command@@YAXPAVTHD@@@Z
?create_select_for_variable@@YAXPBD@Z
?create_table_set_open_action_and_adjust_tables@@YAXPAULEX@@@Z
?mysql_init_multi_delete@@YAXPAULEX@@@Z
?multi_delete_set_locks_and_link_aux_tables@@YA_NPAULEX@@@Z
handle_bootstrap
?mysql_execute_command@@YAHPAVTHD@@@Z
?do_command@@YA_NPAVTHD@@@Z
?do_handle_bootstrap@@YAXPAVTHD@@@Z
?dispatch_command@@YA_NW4enum_server_command@@PAVTHD@@PADI@Z
?log_slow_statement@@YAXPAVTHD@@@Z
?log_slow_applicable@@YA_NPAVTHD@@@Z
?log_slow_do@@YAXPAVTHD@@@Z
?append_file_to_dir@@YA_NPAVTHD@@PAPBDPBD@Z
?execute_init_command@@YAXPAVTHD@@PAUst_mysql_lex_string@@PAUst_mysql_rwlock@@@Z
?add_field_to_list@@YA_NPAVTHD@@PAUst_mysql_lex_string@@W4enum_field_types@@PAD3IPAVItem@@413PAV?$List@VString@@@@PBUcharset_info_st@@I@Z
?add_to_list@@YA_NPAVTHD@@AAV?$SQL_I_List@Ust_order@@@@PAVItem@@_N@Z
?add_join_on@@YAXPAUTABLE_LIST@@PAVItem@@@Z
?add_join_natural@@YAXPAUTABLE_LIST@@0PAV?$List@VString@@@@PAVst_select_lex@@@Z
?push_new_name_resolution_context@@YA_NPAVTHD@@PAUTABLE_LIST@@1@Z
?store_position_for_column@@YAXPBD@Z
?init_update_queries@@YAXXZ
?check_simple_select@@YA_NXZ
?negate_expression@@YAPAVItem@@PAVTHD@@PAV1@@Z
?check_stack_overrun@@YA_NPAVTHD@@JPAE@Z
?check_one_table_access@@YA_NPAVTHD@@KPAUTABLE_LIST@@@Z
?check_single_table_access@@YA_NPAVTHD@@KPAUTABLE_LIST@@_N@Z
?check_routine_access@@YA_NPAVTHD@@KPAD1_N2@Z
?check_some_access@@YA_NPAVTHD@@KPAUTABLE_LIST@@@Z
?check_some_routine_access@@YA_NPAVTHD@@PBD1_N@Z
?check_access@@YA_NPAVTHD@@KPBDPAKPAUst_grant_internal_info@@_N4@Z
?check_table_access@@YA_NPAVTHD@@KPAUTABLE_LIST@@_NI2@Z
?check_global_access@@YA_NPAVTHD@@K@Z
sqlcom_can_generate_row_events
?is_empty@?$base_ilist@Vi_string@@@@QBE_NXZ
??0Incident_log_event@@QAE@PAVTHD@@W4Incident@@@Z
?get_type_code@Incident_log_event@@UAE?AW4Log_event_type@@XZ
?is_valid@Incident_log_event@@UBE_NXZ
?get_data_size@Incident_log_event@@UAEHXZ
?is_not_allowed_in_function@sp_head@@QAE_NPBD@Z
?all_tables_not_ok@@YA_NPAVTHD@@PAUTABLE_LIST@@@Z
?check_database_filters@@YA_NPAVTHD@@PADW4enum_sql_command@@@Z
??$max@J@std@@YAABJABJ0@Z
?my_yyoverflow@@YA_NPAPAFPAPATYYSTYPE@@PAK@Z
?log_throttle_qni@@3VSlow_log_throttle@@A DATA
?disjoin@base_list@@QAEXPAV1@@Z
?prepand@base_list@@QAEXPAV1@@Z
?replace@base_list_iterator@@QAEPAXAAVbase_list@@@Z
?clear_bit@?$Bitmap@$0EA@@@QAEXI@Z
?is_prefix@?$Bitmap@$0EA@@@QBEDI@Z
?is_subset@?$Bitmap@$0EA@@@QBEDABV1@@Z
??8?$Bitmap@$0EA@@@QBEDABV0@@Z
??9?$Bitmap@$0EA@@@QBEDABV0@@Z
?merge@?$Bitmap@$0BAAA@@@QAEXABV1@@Z
?is_clear_all@?$Bitmap@$0BAAA@@@QBEDXZ
??8?$Bitmap@$0BAAA@@@QBEDABV0@@Z
??9?$Bitmap@$0BAAA@@@QBEDABV0@@Z
?outer_join_nest@TABLE_LIST@@QBEPAU1@XZ
??0Semijoin_mat_optimize@@QAE@XZ
?disjoin@?$List@VItem@@@@QAEXPAV1@@Z
?prepand@?$List@VItem@@@@QAEXPAV1@@Z
?is_temporal@Field@@QBE_NXZ
?is_temporal_with_date@Field@@QBE_NXZ
?disable_I_S_for_this_and_children@Opt_trace_context@@QAEXXZ
?restore_I_S@Opt_trace_context@@QAEXXZ
?set@DTCollation@@QAEXAAV1@@Z
?pop_front@?$Bounds_checked_array@PAVItem@@@@QAEXXZ
??0Item_int@@QAE@HI@Z
?push_back@?$List@VItem_field@@@@QAE_NPAVItem_field@@@Z
?get_count@Item_func_match@@QAE_KXZ
?ordered_result@Item_func_match@@QAE_NXZ
?docid_in_result@Item_func_match@@QAE_NXZ
??0Item_func_docid@@QAE@PAUst_ft_info_ext@@@Z
?func_name@Item_func_docid@@UBEPBDXZ
?update_used_tables@Item_func_docid@@UAEXXZ
?val_int@Item_func_docid@@UAE_JXZ
??1Item_func_docid@@UAE@XZ
?set_cmp_func@Arg_comparator@@QAEHPAVItem_result_field@@PAPAVItem@@1_N@Z
?set_cmp_func@Item_bool_func2@@QAEHXZ
??0Item_func_trig_cond@@QAE@PAVItem@@PA_NPAUst_join_table@@W4enum_trig_type@0@@Z
?val_int@Item_func_trig_cond@@UAE_JXZ
?functype@Item_func_trig_cond@@UBE?AW4Functype@Item_func@@XZ
?func_name@Item_func_trig_cond@@UBEPBDXZ
?const_item@Item_func_trig_cond@@UBE_NXZ
?get_trig_var@Item_func_trig_cond@@QAEPA_NXZ
?used_tables@Item_func_trig_cond@@UBE_KXZ
??1Item_func_trig_cond@@UAE@XZ
??0Item_func_eq@@QAE@PAVItem@@0@Z
?functype@Item_func_eq@@UBE?AW4Functype@Item_func@@XZ
?rev_functype@Item_func_eq@@UBE?AW4Functype@Item_func@@XZ
?eq_cmp_result@Item_func_eq@@UBE?AW4cond_result@Item@@XZ
?func_name@Item_func_eq@@UBEPBDXZ
?equality_substitution_analyzer@Item_func_eq@@UAE_NPAPAE@Z
??1Item_func_eq@@UAE@XZ
??0Item_func_equal@@QAE@PAVItem@@0@Z
?not_null_tables@Item_func_equal@@UBE_KXZ
?functype@Item_func_equal@@UBE?AW4Functype@Item_func@@XZ
?rev_functype@Item_func_equal@@UBE?AW4Functype@Item_func@@XZ
?eq_cmp_result@Item_func_equal@@UBE?AW4cond_result@Item@@XZ
?func_name@Item_func_equal@@UBEPBDXZ
?neg_transformer@Item_func_equal@@UAEPAVItem@@PAVTHD@@@Z
??1Item_func_equal@@UAE@XZ
??0Item_func_isnotnull@@QAE@PAVItem@@@Z
?functype@Item_func_isnotnull@@UBE?AW4Functype@Item_func@@XZ
?fix_length_and_dec@Item_func_isnotnull@@UAEXXZ
?func_name@Item_func_isnotnull@@UBEPBDXZ
?select_optimize@Item_func_isnotnull@@UBE?AW4optimize_type@Item_func@@XZ
?not_null_tables@Item_func_isnotnull@@UBE_KXZ
?compare_collation@Item_func_isnotnull@@UAEPBUcharset_info_st@@XZ
?top_level_item@Item_func_isnotnull@@UAEXXZ
??1Item_func_isnotnull@@UAE@XZ
??0Item_cond@@QAE@AAV?$List@VItem@@@@@Z
?add@Item_cond@@QAE_NPAVItem@@@Z
?add_at_head@Item_cond@@QAEXPAV?$List@VItem@@@@@Z
?get_const@Item_equal@@QAEPAVItem@@XZ
?push_back@?$List@VItem_equal@@@@QAE_NPAVItem_equal@@@Z
?head@?$List@VItem_equal@@@@QAEPAVItem_equal@@XZ
?pop@?$List@VItem_equal@@@@QAEPAVItem_equal@@XZ
??0?$List_iterator_fast@VItem_field@@@@QAE@AAV?$List@VItem_field@@@@@Z
??E?$List_iterator_fast@VItem_field@@@@QAEPAVItem_field@@H@Z
?rewind@?$List_iterator_fast@VItem_field@@@@QAEXXZ
??0Item_equal_iterator@@QAE@AAVItem_equal@@@Z
??EItem_equal_iterator@@QAEPAVItem_field@@H@Z
?rewind@Item_equal_iterator@@QAEXXZ
??0Item_cond_and@@QAE@AAV?$List@VItem@@@@@Z
??0Item_cond_or@@QAE@PAVItem@@0@Z
?change_engine@Item_subselect@@QAE_NPAVsubselect_engine@@@Z
?in2exists_added_to_where@Item_in_subselect@@QBE_NXZ
??0subselect_engine@@QAE@PAVItem_subselect@@PAVselect_result_interceptor@@@Z
??1subselect_engine@@UAE@XZ
?type@subselect_engine@@UBE?AW4Item_result@@XZ
?field_type@subselect_engine@@UBE?AW4enum_field_types@@XZ
?may_be_null@subselect_engine@@UBE_NXZ
?is_executed@subselect_engine@@UBE_NXZ
?engine_type@subselect_engine@@UBE?AW4enum_engine_type@1@XZ
??0subselect_indexsubquery_engine@@QAE@PAVTHD@@PAUst_join_table@@PAVItem_subselect@@PAVItem@@3_N4@Z
?engine_type@subselect_indexsubquery_engine@@UBE?AW4enum_engine_type@subselect_engine@@XZ
?cleanup@subselect_indexsubquery_engine@@UAEXXZ
?cols@subselect_indexsubquery_engine@@UBEIXZ
?uncacheable@subselect_indexsubquery_engine@@UBEEXZ
?upper_select_const_tables@subselect_indexsubquery_engine@@UBE_KXZ
??1subselect_indexsubquery_engine@@UAE@XZ
?eq_def@Item_cache@@QAE_NPAVField@@@Z
?is_cacheable@st_select_lex@@QBE_NXZ
?is_single_level_stmt@LEX@@QAE_NXZ
??0Key_use@@QAE@PAUTABLE@@PAVItem@@_KIIIK2_NPA_NI@Z
?added_tables@st_join_table@@QBE_KXZ
?set_prefix_tables@st_join_table@@QAEX_K0@Z
?add_prefix_tables@st_join_table@@QAEX_K@Z
?at@?$Mem_root_array@VKey_use@@$00@@QAEAAVKey_use@@I@Z
?reserve@?$Mem_root_array@VKey_use@@$00@@QAE_NI@Z
?push_back@?$Mem_root_array@VKey_use@@$00@@QAE_NABVKey_use@@@Z
?element_size@?$Mem_root_array@VKey_use@@$00@@QBEIXZ
??CORDER_with_src@JOIN@@QBEPAUst_order@@XZ
?begin@?$Mem_root_array@PAVItem_exists_subselect@@$00@@QAEPAPAVItem_exists_subselect@@XZ
?end@?$Mem_root_array@PAVItem_exists_subselect@@$00@@QAEPAPAVItem_exists_subselect@@XZ
?plan_is_single_table@JOIN@@QAE_NXZ
?optimize@JOIN@@QAEHXZ
?flatten_subqueries@JOIN@@QAE_NXZ
?remove_subq_pushed_predicates@JOIN@@QAEXPAPAVItem@@@Z
?cache_const_exprs@JOIN@@QAE_NXZ
?generate_derived_keys@JOIN@@QAE_NXZ
?drop_unused_derived_keys@JOIN@@QAEXXZ
?update_equalities_for_sjm@JOIN@@QAE_NXZ
?decide_subquery_strategy@JOIN@@QAE_NXZ
?refine_best_rowcount@JOIN@@QAEXXZ
?optimize_fts_query@JOIN@@AAEXXZ
?optimize_fts_limit_query@JOIN@@AAEXXZ
?replace_item_field@JOIN@@AAEXPBDPAVItem@@@Z
?prune_table_partitions@JOIN@@AAE_NPAVTHD@@@Z
?set_prefix_tables@JOIN@@AAEXXZ
?set_semijoin_embedding@JOIN@@QAEXXZ
?compare_costs_of_subquery_strategies@JOIN@@AAE_NPAW4enum_exec_method@Item_exists_subselect@@@Z
?uses_index_fields_only@@YA_NPAVItem@@PAUTABLE@@I_N@Z
?update_depend_map@@YAXPAVJOIN@@@Z
?reset_nj_counters@@YAXPAV?$List@UTABLE_LIST@@@@@Z
?remove_eq_conds@@YAPAVItem@@PAVTHD@@PAV1@PAW4cond_result@1@@Z
?optimize_cond@@YAPAVItem@@PAVTHD@@PAV1@PAPAVCOND_EQUAL@@PAV?$List@UTABLE_LIST@@@@_NPAW4cond_result@1@@Z
?substitute_for_best_equal_field@@YAPAVItem@@PAV1@PAVCOND_EQUAL@@PAX@Z
?build_equal_items@@YAPAVItem@@PAVTHD@@PAV1@PAVCOND_EQUAL@@_NPAV?$List@UTABLE_LIST@@@@PAPAV3@@Z
?is_indexed_agg_distinct@@YA_NPAVJOIN@@PAV?$List@VItem_field@@@@@Z
?create_keyuse_for_table@@YAPAV?$Mem_root_array@VKey_use@@$00@@PAVTHD@@PAUTABLE@@IPAPAVItem_field@@V?$List@VItem@@@@@Z
?find_item_equal@@YAPAVItem_equal@@PAVCOND_EQUAL@@PAVField@@PA_N@Z
?get_best_field@@YAPAVItem_field@@PAV1@PAVCOND_EQUAL@@@Z
?make_cond_for_table@@YAPAVItem@@PAV1@_K1_N@Z
?field_time_cmp_date@@YA_NPBVField@@PBVItem@@@Z
??0Optimize_table_order@@QAE@PAVTHD@@PAVJOIN@@PAUTABLE_LIST@@@Z
??1Optimize_table_order@@QAE@XZ
?end@Opt_trace_struct@@QAEXXZ
?add_utf8@Opt_trace_struct@@QAEAAV1@PBD@Z
?add@Opt_trace_struct@@QAEAAV1@PBDH@Z
?add@Opt_trace_struct@@QAEAAV1@I@Z
??0Opt_trace_disable_I_S@@QAE@PAVOpt_trace_context@@_N@Z
??1Opt_trace_disable_I_S@@QAE@XZ
?replace@?$List_iterator@UTABLE_LIST@@@@QAEPAUTABLE_LIST@@PAU2@@Z
?replace@?$List_iterator@UTABLE_LIST@@@@QAEPAUTABLE_LIST@@AAV?$List@UTABLE_LIST@@@@@Z
?rewind@?$List_iterator@UTABLE_LIST@@@@QAEXXZ
?remove@?$List_iterator@UTABLE_LIST@@@@QAEXXZ
??0?$ilink@VCOND_CMP@@@@QAE@XZ
?unlink@?$ilink@VCOND_CMP@@@@QAEXXZ
??1?$ilink@VCOND_CMP@@@@UAE@XZ
??2COND_CMP@@SAPAXI@Z
??3COND_CMP@@SAXPAXI@Z
??0COND_CMP@@QAE@PAVItem@@PAVItem_func@@@Z
??1COND_CMP@@UAE@XZ
??0?$List_iterator_fast@VItem_equal@@@@QAE@AAV?$List@VItem_equal@@@@@Z
??E?$List_iterator_fast@VItem_equal@@@@QAEPAVItem_equal@@H@Z
??0?$List_iterator@VItem_equal@@@@QAE@AAV?$List@VItem_equal@@@@@Z
??E?$List_iterator@VItem_equal@@@@QAEPAVItem_equal@@H@Z
?remove@?$List_iterator@VItem_equal@@@@QAEXXZ
?remove@?$List_iterator@VItem@@@@QAEXXZ
??_9Item@@$BBIM@AE
??_9Item@@$BBJI@AE
??_9Item@@$BBKA@AE
?empty@?$base_ilist@VCOND_CMP@@@@QAEXXZ
??0?$base_ilist@VCOND_CMP@@@@QAE@XZ
?push_back@?$base_ilist@VCOND_CMP@@@@QAEXPAVCOND_CMP@@@Z
??1?$base_ilist@VCOND_CMP@@@@QAE@XZ
??0?$I_List@VCOND_CMP@@@@QAE@XZ
??1?$I_List@VCOND_CMP@@@@QAE@XZ
??0?$base_ilist_iterator@VCOND_CMP@@@@QAE@AAV?$base_ilist@VCOND_CMP@@@@@Z
?next@?$base_ilist_iterator@VCOND_CMP@@@@QAEPAVCOND_CMP@@XZ
??0?$I_List_iterator@VCOND_CMP@@@@QAE@AAV?$I_List@VCOND_CMP@@@@@Z
??E?$I_List_iterator@VCOND_CMP@@@@QAEPAVCOND_CMP@@H@Z
??_9Item@@$BBIA@AE
??_9Item@@$BBIE@AE
??0Key_field@@QAE@PAVField@@PAVItem@@II_N2PA_NI@Z
??_9Item@@$BBEE@AE
??_9Item@@$BBHA@AE
??_9Item@@$BBHE@AE
??_9Item@@$BBHI@AE
??_9Item@@$BBHM@AE
??_9Item@@$BBGI@AE
??$max@_K@std@@YAAB_KAB_K0@Z
?LOCK_manager@@3Ust_mysql_mutex@@A DATA
?COND_manager@@3Ust_mysql_cond@@A DATA
?manager_thread@@3KA DATA
?start_handle_manager@@YAXXZ
?stop_handle_manager@@YAXXZ
?mysql_manager_submit@@YA_NP6AXXZ@Z
handle_manager
?my_locales@@3PAPAVMY_LOCALE@@A DATA
?ERR_MSGS_INDEX@@3W4err_msgs_index@@A DATA
?global_errmsgs@@3PAUmy_locale_errmsgs@@A DATA
?my_locales_deprecated@@3PAPAVMY_LOCALE@@A DATA
??0MY_LOCALE@@QAE@IPBD0_NPAUst_typelib@@222IIII0PAUmy_locale_errmsgs@@@Z
?my_locale_by_name@@YAPAVMY_LOCALE@@PBD@Z
?my_locale_by_number@@YAPAVMY_LOCALE@@I@Z
?cleanup_errmsgs@@YAXXZ
?my_locale_en_US@@3VMY_LOCALE@@A DATA
?my_locale_ar_AE@@3VMY_LOCALE@@A DATA
?my_locale_ar_BH@@3VMY_LOCALE@@A DATA
?my_locale_ar_JO@@3VMY_LOCALE@@A DATA
?my_locale_ar_SA@@3VMY_LOCALE@@A DATA
?my_locale_ar_SY@@3VMY_LOCALE@@A DATA
?my_locale_be_BY@@3VMY_LOCALE@@A DATA
?my_locale_bg_BG@@3VMY_LOCALE@@A DATA
?my_locale_ca_ES@@3VMY_LOCALE@@A DATA
?my_locale_cs_CZ@@3VMY_LOCALE@@A DATA
?my_locale_da_DK@@3VMY_LOCALE@@A DATA
?my_locale_de_AT@@3VMY_LOCALE@@A DATA
?my_locale_de_DE@@3VMY_LOCALE@@A DATA
?my_locale_es_ES@@3VMY_LOCALE@@A DATA
?my_locale_et_EE@@3VMY_LOCALE@@A DATA
?my_locale_eu_ES@@3VMY_LOCALE@@A DATA
?my_locale_fi_FI@@3VMY_LOCALE@@A DATA
?my_locale_fo_FO@@3VMY_LOCALE@@A DATA
?my_locale_fr_FR@@3VMY_LOCALE@@A DATA
?my_locale_gl_ES@@3VMY_LOCALE@@A DATA
?my_locale_gu_IN@@3VMY_LOCALE@@A DATA
?my_locale_he_IL@@3VMY_LOCALE@@A DATA
?my_locale_hi_IN@@3VMY_LOCALE@@A DATA
?my_locale_hr_HR@@3VMY_LOCALE@@A DATA
?my_locale_hu_HU@@3VMY_LOCALE@@A DATA
?my_locale_id_ID@@3VMY_LOCALE@@A DATA
?my_locale_is_IS@@3VMY_LOCALE@@A DATA
?my_locale_it_CH@@3VMY_LOCALE@@A DATA
?my_locale_ja_JP@@3VMY_LOCALE@@A DATA
?my_locale_ko_KR@@3VMY_LOCALE@@A DATA
?my_locale_lt_LT@@3VMY_LOCALE@@A DATA
?my_locale_lv_LV@@3VMY_LOCALE@@A DATA
?my_locale_mk_MK@@3VMY_LOCALE@@A DATA
?my_locale_mn_MN@@3VMY_LOCALE@@A DATA
?my_locale_ms_MY@@3VMY_LOCALE@@A DATA
?my_locale_nb_NO@@3VMY_LOCALE@@A DATA
?my_locale_nl_NL@@3VMY_LOCALE@@A DATA
?my_locale_pl_PL@@3VMY_LOCALE@@A DATA
?my_locale_pt_BR@@3VMY_LOCALE@@A DATA
?my_locale_pt_PT@@3VMY_LOCALE@@A DATA
?my_locale_ro_RO@@3VMY_LOCALE@@A DATA
?my_locale_ru_RU@@3VMY_LOCALE@@A DATA
?my_locale_ru_UA@@3VMY_LOCALE@@A DATA
?my_locale_sk_SK@@3VMY_LOCALE@@A DATA
?my_locale_sl_SI@@3VMY_LOCALE@@A DATA
?my_locale_sq_AL@@3VMY_LOCALE@@A DATA
?my_locale_sr_YU@@3VMY_LOCALE@@A DATA
?my_locale_sr_RS@@3VMY_LOCALE@@A DATA
?my_locale_sv_SE@@3VMY_LOCALE@@A DATA
?my_locale_ta_IN@@3VMY_LOCALE@@A DATA
?my_locale_te_IN@@3VMY_LOCALE@@A DATA
?my_locale_th_TH@@3VMY_LOCALE@@A DATA
?my_locale_tr_TR@@3VMY_LOCALE@@A DATA
?my_locale_uk_UA@@3VMY_LOCALE@@A DATA
?my_locale_ur_PK@@3VMY_LOCALE@@A DATA
?my_locale_vi_VN@@3VMY_LOCALE@@A DATA
?my_locale_zh_CN@@3VMY_LOCALE@@A DATA
?my_locale_zh_TW@@3VMY_LOCALE@@A DATA
?my_locale_ar_DZ@@3VMY_LOCALE@@A DATA
?my_locale_ar_EG@@3VMY_LOCALE@@A DATA
?my_locale_ar_IN@@3VMY_LOCALE@@A DATA
?my_locale_ar_IQ@@3VMY_LOCALE@@A DATA
?my_locale_ar_KW@@3VMY_LOCALE@@A DATA
?my_locale_ar_LB@@3VMY_LOCALE@@A DATA
?my_locale_ar_LY@@3VMY_LOCALE@@A DATA
?my_locale_ar_MA@@3VMY_LOCALE@@A DATA
?my_locale_ar_OM@@3VMY_LOCALE@@A DATA
?my_locale_ar_QA@@3VMY_LOCALE@@A DATA
?my_locale_ar_SD@@3VMY_LOCALE@@A DATA
?my_locale_ar_TN@@3VMY_LOCALE@@A DATA
?my_locale_ar_YE@@3VMY_LOCALE@@A DATA
?my_locale_de_BE@@3VMY_LOCALE@@A DATA
?my_locale_de_CH@@3VMY_LOCALE@@A DATA
?my_locale_de_LU@@3VMY_LOCALE@@A DATA
?my_locale_en_AU@@3VMY_LOCALE@@A DATA
?my_locale_en_CA@@3VMY_LOCALE@@A DATA
?my_locale_en_GB@@3VMY_LOCALE@@A DATA
?my_locale_en_IN@@3VMY_LOCALE@@A DATA
?my_locale_en_NZ@@3VMY_LOCALE@@A DATA
?my_locale_en_PH@@3VMY_LOCALE@@A DATA
?my_locale_en_ZA@@3VMY_LOCALE@@A DATA
?my_locale_en_ZW@@3VMY_LOCALE@@A DATA
?my_locale_es_AR@@3VMY_LOCALE@@A DATA
?my_locale_es_BO@@3VMY_LOCALE@@A DATA
?my_locale_es_CL@@3VMY_LOCALE@@A DATA
?my_locale_es_CO@@3VMY_LOCALE@@A DATA
?my_locale_es_CR@@3VMY_LOCALE@@A DATA
?my_locale_es_DO@@3VMY_LOCALE@@A DATA
?my_locale_es_EC@@3VMY_LOCALE@@A DATA
?my_locale_es_GT@@3VMY_LOCALE@@A DATA
?my_locale_es_HN@@3VMY_LOCALE@@A DATA
?my_locale_es_MX@@3VMY_LOCALE@@A DATA
?my_locale_es_NI@@3VMY_LOCALE@@A DATA
?my_locale_es_PA@@3VMY_LOCALE@@A DATA
?my_locale_es_PE@@3VMY_LOCALE@@A DATA
?my_locale_es_PR@@3VMY_LOCALE@@A DATA
?my_locale_es_PY@@3VMY_LOCALE@@A DATA
?my_locale_es_SV@@3VMY_LOCALE@@A DATA
?my_locale_es_US@@3VMY_LOCALE@@A DATA
?my_locale_es_UY@@3VMY_LOCALE@@A DATA
?my_locale_es_VE@@3VMY_LOCALE@@A DATA
?my_locale_fr_BE@@3VMY_LOCALE@@A DATA
?my_locale_fr_CA@@3VMY_LOCALE@@A DATA
?my_locale_fr_CH@@3VMY_LOCALE@@A DATA
?my_locale_fr_LU@@3VMY_LOCALE@@A DATA
?my_locale_it_IT@@3VMY_LOCALE@@A DATA
?my_locale_nl_BE@@3VMY_LOCALE@@A DATA
?my_locale_no_NO@@3VMY_LOCALE@@A DATA
?my_locale_sv_FI@@3VMY_LOCALE@@A DATA
?my_locale_zh_HK@@3VMY_LOCALE@@A DATA
?my_locale_el_GR@@3VMY_LOCALE@@A DATA
?my_locale_rm_CH@@3VMY_LOCALE@@A DATA
??AString@@QBEAADI@Z
?is_ascii@String@@QBE_NXZ
?prepare_check_option@TABLE_LIST@@QAE_NPAVTHD@@@Z
?prepare_where@TABLE_LIST@@QAE_NPAVTHD@@PAPAVItem@@_N@Z
??0COPY_INFO@@QAE@W4operation_type@0@PAV?$List@VItem@@@@1_NW4enum_duplicates@@2H@Z
?has_delete_triggers@Table_triggers_list@@QAE_NXZ
?set_current_stmt_binlog_format_row_if_mixed@THD@@QAEXXZ
?mysql_load@@YAHPAVTHD@@PAVsql_exchange@@PAUTABLE_LIST@@AAV?$List@VItem@@@@33W4enum_duplicates@@_N5@Z
?data_size@sql_ex_info@@QAEHXZ
?new_format@sql_ex_info@@QAE_NXZ
?get_db@Query_log_event@@UAEPBDXZ
?get_mts_dbs@Query_log_event@@UAEEPAUst_mts_db_names@@@Z
?mts_number_dbs@Query_log_event@@UAEEXZ
??1Query_log_event@@UAE@XZ
?get_type_code@Query_log_event@@UAE?AW4Log_event_type@@XZ
?write_post_header_for_derived@Query_log_event@@UAE_NPAUst_io_cache@@@Z
?is_valid@Query_log_event@@UBE_NXZ
?get_post_header_size_for_derived@Query_log_event@@UAEKXZ
?starts_group@Query_log_event@@UAE_NXZ
?ends_group@Query_log_event@@UAE_NXZ
?set_fname_outside_temp_buf@Load_log_event@@QAEXPBDI@Z
?get_db@Load_log_event@@UAEPBDXZ
??1Load_log_event@@UAE@XZ
?get_type_code@Load_log_event@@UAE?AW4Log_event_type@@XZ
?is_valid@Load_log_event@@UBE_NXZ
?get_data_size@Load_log_event@@UAEHXZ
?do_apply_event@Load_log_event@@UAEHPBVRelay_log_info@@@Z
??1Delete_file_log_event@@UAE@XZ
?get_type_code@Delete_file_log_event@@UAE?AW4Log_event_type@@XZ
?get_data_size@Delete_file_log_event@@UAEHXZ
?is_valid@Delete_file_log_event@@UBE_NXZ
?get_db@Delete_file_log_event@@UAEPBDXZ
??1Execute_load_query_log_event@@UAE@XZ
?get_type_code@Execute_load_query_log_event@@UAE?AW4Log_event_type@@XZ
?is_valid@Execute_load_query_log_event@@UBE_NXZ
??0XML_TAG@@QAE@HVString@@0@Z
??1XML_TAG@@QAE@XZ
??0READ_INFO@@QAE@HIPBUcharset_info_st@@ABVString@@111H_N2@Z
??1READ_INFO@@QAE@XZ
?read_field@READ_INFO@@QAEHXZ
?read_fixed_length@READ_INFO@@QAEHXZ
?next_line@READ_INFO@@QAEHXZ
?unescape@READ_INFO@@QAEDD@Z
?terminator@READ_INFO@@QAEHPBEI@Z
?find_start_of_fields@READ_INFO@@QAE_NXZ
??0?$List@VXML_TAG@@@@QAE@XZ
?push_front@?$List@VXML_TAG@@@@QAE_NPAVXML_TAG@@@Z
??1?$List@VXML_TAG@@@@QAE@XZ
?read_value@READ_INFO@@QAEHHPAVString@@@Z
?read_xml@READ_INFO@@QAEHXZ
?clear_level@READ_INFO@@QAEHH@Z
?end_io_cache@READ_INFO@@QAEXXZ
?set_io_cache_arg@READ_INFO@@QAEXPAX@Z
?skip_data_till_eof@READ_INFO@@QAEXXZ
??0?$List_iterator_fast@VXML_TAG@@@@QAE@AAV?$List@VXML_TAG@@@@@Z
??E?$List_iterator_fast@VXML_TAG@@@@QAEPAVXML_TAG@@H@Z
?rewind@?$List_iterator_fast@VXML_TAG@@@@QAEXXZ
??0?$List_iterator@VXML_TAG@@@@QAE@AAV?$List@VXML_TAG@@@@@Z
??E?$List_iterator@VXML_TAG@@@@QAEPAVXML_TAG@@H@Z
?rewind@?$List_iterator@VXML_TAG@@@@QAEXXZ
?remove@?$List_iterator@VXML_TAG@@@@QAEXXZ
??0list_node@@QAE@XZ
??0base_list@@QAE@ABV0@PAUst_mem_root@@@Z
?unlink@?$ilink@Vi_string_pair@@@@QAEXXZ
?free_list@@YAXPAV?$I_List@Vi_string_pair@@@@@Z
?free_list@@YAXPAV?$I_List@Vi_string@@@@@Z
?is_empty@?$base_ilist@Vi_string_pair@@@@QBE_NXZ
?get@?$base_ilist@Vi_string_pair@@@@QAEPAVi_string_pair@@XZ
?get@?$base_ilist@Vi_string@@@@QAEPAVi_string@@XZ
?end_of_list@@3Ulist_node@@A DATA
?binlog_unsafe_map@@3PAIA DATA
?sym_group_common@@3Ust_sym_group@@A DATA
?sym_group_geom@@3Ust_sym_group@@A DATA
?sym_group_rtree@@3Ust_sym_group@@A DATA
?index_hint_type_name@@3PAPBDA DATA
?type_str@st_select_lex@@0PAPBDA DATA
?null_lex_str@@3Ust_mysql_lex_string@@B DATA
?empty_lex_str@@3Ust_mysql_lex_string@@B DATA
?trg_new_row_fake_var@@3PAVsys_var@@A DATA
?binlog_stmt_unsafe_errcode@Query_tables_list@@2QBHB DATA
??0st_ha_check_opt@@QAE@XZ
?print@TABLE_LIST@@QAEXPAVTHD@@PAVString@@W4enum_query_type@@@Z
?is_view_or_derived@TABLE_LIST@@QBE_NXZ
?place@Item_subselect@@QAE?AW4enum_parsing_place@@XZ
?binlog_unsafe_map_init@@YAXXZ
?set_unspecified@st_lex_master_info@@QAEXXZ
??0Index_hint@@QAE@W4index_hint_type@@EPADI@Z
?print@Index_hint@@QAEXPAVTHD@@PAVString@@@Z
?get_master@st_select_lex_node@@QAEPAV1@XZ
?init_query@st_select_lex_node@@UAEXXZ
?init_select@st_select_lex_node@@UAEXXZ
?include_down@st_select_lex_node@@QAEXPAV1@@Z
?include_neighbour@st_select_lex_node@@QAEXPAV1@@Z
?include_standalone@st_select_lex_node@@QAEXPAV1@PAPAV1@@Z
?include_global@st_select_lex_node@@QAEXPAPAV1@@Z
?exclude@st_select_lex_node@@QAEXXZ
?set_braces@st_select_lex_node@@UAE_N_N@Z
?inc_in_sum_expr@st_select_lex_node@@UAE_NXZ
?get_in_sum_expr@st_select_lex_node@@UAEIXZ
?get_table_list@st_select_lex_node@@UAEPAUTABLE_LIST@@XZ
?get_item_list@st_select_lex_node@@UAEPAV?$List@VItem@@@@XZ
?get_table_join_options@st_select_lex_node@@UAEKXZ
?add_table_to_list@st_select_lex_node@@UAEPAUTABLE_LIST@@PAVTHD@@PAVTable_ident@@PAUst_mysql_lex_string@@KW4thr_lock_type@@W4enum_mdl_type@@PAV?$List@VIndex_hint@@@@PAV?$List@VString@@@@2@Z
?fast_exclude@st_select_lex_node@@AAEXXZ
?init_query@st_select_lex_unit@@UAEXXZ
?master_unit@st_select_lex_unit@@UAEPAV1@XZ
?outer_select@st_select_lex_unit@@UAEPAVst_select_lex@@XZ
?exclude_level@st_select_lex_unit@@QAEXXZ
?exclude_tree@st_select_lex_unit@@QAEXXZ
?print@st_select_lex_unit@@QAEXPAVString@@W4enum_query_type@@@Z
?set_limit@st_select_lex_unit@@QAEXPAVst_select_lex@@@Z
?lex_start@@YAXPAVTHD@@@Z
?invalidate@st_select_lex_unit@@AAEXXZ
?push_back@?$List@VItem_func_match@@@@QAE_NPAVItem_func_match@@@Z
?init_query@st_select_lex@@UAEXXZ
?init_select@st_select_lex@@UAEXXZ
?master_unit@st_select_lex@@UAEPAVst_select_lex_unit@@XZ
?outer_select@st_select_lex@@UAEPAV1@XZ
?invalidate@st_select_lex@@QAEXXZ
?mark_as_dependent@st_select_lex@@QAEXPAV1@@Z
?set_braces@st_select_lex@@UAE_N_N@Z
?inc_in_sum_expr@st_select_lex@@UAE_NXZ
?get_in_sum_expr@st_select_lex@@UAEIXZ
?add_item_to_list@st_select_lex@@QAE_NPAVTHD@@PAVItem@@@Z
?add_group_to_list@st_select_lex@@QAE_NPAVTHD@@PAVItem@@_N@Z
?add_ftfunc_to_list@st_select_lex@@QAE_NPAVItem_func_match@@@Z
?add_order_to_list@st_select_lex@@QAE_NPAVTHD@@PAVItem@@_N@Z
?add_gorder_to_list@st_select_lex@@QAE_NPAVTHD@@PAVItem@@_N@Z
?get_table_list@st_select_lex@@UAEPAUTABLE_LIST@@XZ
?get_item_list@st_select_lex@@UAEPAV?$List@VItem@@@@XZ
?get_table_join_options@st_select_lex@@UAEKXZ
?init_order@st_select_lex@@QAEXXZ
?cut_subtree@st_select_lex@@QAEXXZ
?test_limit@st_select_lex@@QAE_NXZ
?setup_ref_array@st_select_lex@@QAE_NPAVTHD@@I@Z
?print@st_select_lex@@QAEXPAVTHD@@PAVString@@W4enum_query_type@@@Z
?print_order@st_select_lex@@SAXPAVString@@PAUst_order@@W4enum_query_type@@@Z
?print_limit@st_select_lex@@QAEXPAVTHD@@PAVString@@W4enum_query_type@@@Z
?fix_prepare_information@st_select_lex@@QAEXPAVTHD@@PAPAVItem@@1@Z
?set_index_hint_type@st_select_lex@@QAEXW4index_hint_type@@E@Z
?add_index_hint@st_select_lex@@QAE_NPAVTHD@@PADI@Z
?alloc_index_hints@st_select_lex@@QAEXPAVTHD@@@Z
?handle_derived@st_select_lex@@QAE_NPAULEX@@P6A_NPAVTHD@@0PAUTABLE_LIST@@@Z@Z
?type@st_select_lex@@QAE?AW4type_enum@1@PBVTHD@@@Z
?reset@struct_slave_connection@@QAEXXZ
?reset_query_tables_list@Query_tables_list@@QAEX_N@Z
?destroy_query_tables_list@Query_tables_list@@QAEXXZ
?set_query_tables_list@Query_tables_list@@QAEXPAV1@@Z
?stmt_accessed_table_string@Query_tables_list@@SAPBDW4enum_stmt_accessed_table@1@@Z
??0st_parsing_options@@QAE@XZ
?reset@st_parsing_options@@QAEXXZ
?init@Lex_input_stream@@QAE_NPAVTHD@@PADI@Z
?reset@Lex_input_stream@@QAEXPADI@Z
?set_echo@Lex_input_stream@@QAEX_N@Z
?save_in_comment_state@Lex_input_stream@@QAEXXZ
?restore_in_comment_state@Lex_input_stream@@QAEXXZ
?skip_binary@Lex_input_stream@@QAEXH@Z
?yyGet@Lex_input_stream@@QAEEXZ
?yyGetLast@Lex_input_stream@@QAEEXZ
?yyPeek@Lex_input_stream@@QAEEXZ
?yyPeekn@Lex_input_stream@@QAEEH@Z
?yyUnget@Lex_input_stream@@QAEXXZ
?yySkip@Lex_input_stream@@QAEXXZ
?yySkipn@Lex_input_stream@@QAEXH@Z
?yyUnput@Lex_input_stream@@QAEPADD@Z
?cpp_inject@Lex_input_stream@@QAEPADD@Z
?eof@Lex_input_stream@@QAE_NXZ
?get_cpp_buf@Lex_input_stream@@QAEPBDXZ
?get_end_of_query@Lex_input_stream@@QAEPBDXZ
?start_token@Lex_input_stream@@QAEXXZ
?restart_token@Lex_input_stream@@QAEXXZ
?get_tok_start@Lex_input_stream@@QAEPBDXZ
?get_cpp_tok_start@Lex_input_stream@@QAEPBDXZ
?get_ptr@Lex_input_stream@@QAEPBDXZ
?get_cpp_ptr@Lex_input_stream@@QAEPBDXZ
?yyLength@Lex_input_stream@@QAEIXZ
?body_utf8_start@Lex_input_stream@@QAEXPAVTHD@@PBD@Z
?body_utf8_append@Lex_input_stream@@QAEXPBD@Z
?body_utf8_append@Lex_input_stream@@QAEXPBD0@Z
?body_utf8_append_literal@Lex_input_stream@@QAEXPAVTHD@@PBUst_mysql_lex_string@@PBUcharset_info_st@@PBD@Z
?add_digest_token@Lex_input_stream@@QAEXIPATYYSTYPE@@@Z
?reduce_digest_token@Lex_input_stream@@QAEXII@Z
??0?$List@Ust_lex_user@@@@QAE@XZ
??0?$List@VLEX_COLUMN@@@@QAE@XZ
??0?$List@V?$List@VItem@@@@@@QAE@XZ
??0?$List@Vset_var_base@@@@QAE@XZ
??0?$List@VItem_func_set_user_var@@@@QAE@XZ
??0?$List@VItem_param@@@@QAE@XZ
??0?$List@UName_resolution_context@@@@QAE@XZ
?set_sp_current_parsing_ctx@LEX@@QAEXPAVsp_pcontext@@@Z
??0LEX@@QAE@XZ
?set_trg_event_type_for_tables@LEX@@QAEXXZ
?unlink_first_table@LEX@@QAEPAUTABLE_LIST@@PA_N@Z
?link_first_table_back@LEX@@QAEXPAUTABLE_LIST@@_N@Z
?first_lists_tables_same@LEX@@QAEXXZ
?can_be_merged@LEX@@QAE_NXZ
?can_use_merged@LEX@@QAE_NXZ
?can_not_use_merged@LEX@@QAE_NXZ
?only_view_structure@LEX@@QAE_NXZ
?need_correct_ident@LEX@@QAE_NXZ
?get_effective_with_check@LEX@@QAEEPAUTABLE_LIST@@@Z
?which_check_option_applicable@LEX@@QAE_NXZ
?cleanup_after_one_table_open@LEX@@QAEXXZ
?copy_db_to@LEX@@QBE_NPAPADPAI@Z
?cleanup_lex_after_parse_error@LEX@@SAXPAVTHD@@@Z
?reset_n_backup_query_tables_list@LEX@@QAEXPAVQuery_tables_list@@@Z
?restore_backup_query_tables_list@LEX@@QAEXPAVQuery_tables_list@@@Z
?table_or_sp_used@LEX@@QAE_NXZ
?is_partition_management@LEX@@QBE_NXZ
??1Yacc_state@@QAE@XZ
?lex_init@@YAXXZ
?lex_free@@YAXXZ
?lex_end@@YAXPAULEX@@@Z
?MYSQLlex@@YAHPATYYSTYPE@@PAVTHD@@@Z
?trim_whitespace@@YAXPBUcharset_info_st@@PAUst_mysql_lex_string@@@Z
?is_lex_native_function@@YA_NPBUst_mysql_lex_string@@@Z
?is_keyword@@YA_NPBDI@Z
?db_is_default_db@@YA_NPBDIPBVTHD@@@Z
?finish_parsing_sp_body@sp_parser_data@@QAEXPAVTHD@@@Z
?is_parsing_sp_body@sp_parser_data@@QBE_NXZ
?lex_casecmp@@YAHPBD0I@Z
??0?$Mem_root_array@PAUst_order@@$00@@QAE@PAUst_mem_root@@@Z
?clear@?$Mem_root_array@PAUst_order@@$00@@QAEXXZ
?chop@?$Mem_root_array@PAUst_order@@$00@@QAEXI@Z
?reserve@?$Mem_root_array@PAUst_order@@$00@@QAE_NI@Z
?push_back@?$Mem_root_array@PAUst_order@@$00@@QAE_NABQAUst_order@@@Z
?element_size@?$Mem_root_array@PAUst_order@@$00@@QBEIXZ
?empty@?$Mem_root_array@PAUst_order@@$00@@QBE_NXZ
?consume_comment@@YA_NPAVLex_input_stream@@H@Z
??0?$List@VIndex_hint@@@@QAE@XZ
?push_front@?$List@VIndex_hint@@@@QAE_NPAVIndex_hint@@@Z
?unsafe_mixed_statement@@YAXW4enum_stmt_accessed_table@Query_tables_list@@0I@Z
?get_length@Field_blob@@QAEII@Z
?get_ptr@Field_blob@@QAEXPAPAE@Z
?set_ptr@Field_blob@@QAEXPAE0@Z
?impossible_null_ref@st_table_ref@@QBE_NXZ
?check_rowid_field@st_join_table@@QAE_NXZ
?is_first_inner_for_outer_join@st_join_table@@QAE_NXZ
?bind_buffer@st_cache_field@@QAEXPAE@Z
?buffer_is_bound@st_cache_field@@QBE_NXZ
?offset_size@JOIN_CACHE@@IAEIK@Z
?get_offset@JOIN_CACHE@@IAEKIPAE@Z
?store_offset@JOIN_CACHE@@IAEXIPAEK@Z
?calc_record_fields@JOIN_CACHE@@IAEXXZ
?alloc_fields@JOIN_CACHE@@IAEHI@Z
?create_flag_fields@JOIN_CACHE@@IAEXXZ
?create_remaining_fields@JOIN_CACHE@@IAEX_N@Z
?set_constants@JOIN_CACHE@@IAEXXZ
?alloc_buffer@JOIN_CACHE@@IAE_NXZ
?get_size_of_rec_offset@JOIN_CACHE@@IAEIXZ
?get_size_of_rec_length@JOIN_CACHE@@IAEIXZ
?get_size_of_fld_offset@JOIN_CACHE@@IAEIXZ
?get_rec_ref@JOIN_CACHE@@IAEPAEPAE@Z
?get_rec_length@JOIN_CACHE@@IAEKPAE@Z
?get_fld_offset@JOIN_CACHE@@IAEKPAE@Z
?store_rec_ref@JOIN_CACHE@@IAEXPAE0@Z
?store_rec_length@JOIN_CACHE@@IAEXPAEK@Z
?store_fld_offset@JOIN_CACHE@@IAEXPAEK@Z
?write_record_data@JOIN_CACHE@@IAEIPAEPA_N@Z
?skip_record_if_match@JOIN_CACHE@@MAE_NXZ
?read_some_record_fields@JOIN_CACHE@@IAEHXZ
?read_some_flag_fields@JOIN_CACHE@@IAEXXZ
?read_all_flag_fields_by_pos@JOIN_CACHE@@IAEXPAE@Z
?read_record_field@JOIN_CACHE@@IAEIPAUst_cache_field@@_N@Z
?read_referenced_field@JOIN_CACHE@@IAE_NPAUst_cache_field@@PAEPAI@Z
?blob_data_is_in_rec_buff@JOIN_CACHE@@IAE_NPAE@Z
?join_null_complements@JOIN_CACHE@@MAE?AW4enum_nested_loop_state@@_N@Z
?restore_last_record@JOIN_CACHE@@MAEXXZ
?set_match_flag_if_none@JOIN_CACHE@@IAE_NPAUst_join_table@@PAE@Z
?generate_full_extensions@JOIN_CACHE@@IAE?AW4enum_nested_loop_state@@PAE@Z
?check_match@JOIN_CACHE@@MAE_NPAE@Z
?calc_check_only_first_match@JOIN_CACHE@@IBE_NPBUst_join_table@@@Z
?put_record_in_cache@JOIN_CACHE@@MAE_NXZ
?reset_cache@JOIN_CACHE@@UAEX_N@Z
?get_record@JOIN_CACHE@@UAE_NXZ
?get_record_by_pos@JOIN_CACHE@@UAEXPAE@Z
?get_match_flag_by_pos@JOIN_CACHE@@UAE_NPAE@Z
?join_records@JOIN_CACHE@@QAE?AW4enum_nested_loop_state@@_N@Z
?join_matching_records@JOIN_CACHE_BNL@@MAE?AW4enum_nested_loop_state@@_N@Z
?init@JOIN_CACHE_BNL@@UAEHXZ
?check_emb_key_usage@JOIN_CACHE_BKA@@IAE_NXZ
?aux_buffer_incr@JOIN_CACHE_BKA@@MAEIXZ
?aux_buffer_min_size@JOIN_CACHE_BKA@@MBEIXZ
?join_matching_records@JOIN_CACHE_BKA@@MAE?AW4enum_nested_loop_state@@_N@Z
?init_join_matching_records@JOIN_CACHE_BKA@@IAE_NPAUst_range_seq_if@@I@Z
?init@JOIN_CACHE_BKA@@UAEHXZ
?get_next_key@JOIN_CACHE_BKA@@UAEIPAPAE@Z
?skip_index_tuple@JOIN_CACHE_BKA@@QAE_NPAXPAD@Z
?get_hash_idx@JOIN_CACHE_BKA_UNIQUE@@AAEIPAEI@Z
?cleanup_hash_table@JOIN_CACHE_BKA_UNIQUE@@AAEXXZ
?get_size_of_key_offset@JOIN_CACHE_BKA_UNIQUE@@IAEIXZ
?get_next_key_ref@JOIN_CACHE_BKA_UNIQUE@@IAEPAEPAE@Z
?store_next_key_ref@JOIN_CACHE_BKA_UNIQUE@@IAEXPAE0@Z
?is_null_key_ref@JOIN_CACHE_BKA_UNIQUE@@IAE_NPAE@Z
?store_null_key_ref@JOIN_CACHE_BKA_UNIQUE@@IAEXPAE@Z
?get_next_rec_ref@JOIN_CACHE_BKA_UNIQUE@@IAEPAEPAE@Z
?store_next_rec_ref@JOIN_CACHE_BKA_UNIQUE@@IAEXPAE0@Z
?get_curr_emb_key@JOIN_CACHE_BKA_UNIQUE@@IAEPAEXZ
?get_emb_key@JOIN_CACHE_BKA_UNIQUE@@IAEPAEPAE@Z
?store_emb_key_ref@JOIN_CACHE_BKA_UNIQUE@@IAEXPAE0@Z
?skip_record_if_match@JOIN_CACHE_BKA_UNIQUE@@MAE_NXZ
?join_matching_records@JOIN_CACHE_BKA_UNIQUE@@MAE?AW4enum_nested_loop_state@@_N@Z
?key_search@JOIN_CACHE_BKA_UNIQUE@@IAE_NPAEIPAPAE@Z
?check_match@JOIN_CACHE_BKA_UNIQUE@@MAE_NPAE@Z
?put_record_in_cache@JOIN_CACHE_BKA_UNIQUE@@MAE_NXZ
?init@JOIN_CACHE_BKA_UNIQUE@@UAEHXZ
?reset_cache@JOIN_CACHE_BKA_UNIQUE@@UAEX_N@Z
?get_record@JOIN_CACHE_BKA_UNIQUE@@UAE_NXZ
?check_all_match_flags_for_key@JOIN_CACHE_BKA_UNIQUE@@UAE_NPAE@Z
?get_next_key@JOIN_CACHE_BKA_UNIQUE@@UAEIPAPAE@Z
?get_curr_key_chain@JOIN_CACHE_BKA_UNIQUE@@QAEPAEXZ
?skip_index_tuple@JOIN_CACHE_BKA_UNIQUE@@QAE_NPAXPAD@Z
??_9Item@@$BBEI@AE
?in_range@Discrete_interval@@QBE_N_K@Z
?get_next@Discrete_intervals_list@@QAEPBVDiscrete_interval@@XZ
??0TABLEOP_HOOKS@@QAE@XZ
??1TABLEOP_HOOKS@@UAE@XZ
?prelock@TABLEOP_HOOKS@@QAEXPAPAUTABLE@@I@Z
?postlock@TABLEOP_HOOKS@@QAEHPAPAUTABLE@@I@Z
?do_prelock@TABLEOP_HOOKS@@EAEXPAPAUTABLE@@I@Z
?do_postlock@TABLEOP_HOOKS@@EAEHPAPAUTABLE@@I@Z
?has_old_version@TABLE_SHARE@@QBE_NXZ
??0Field_iterator@@QAE@XZ
??1Field_iterator@@UAE@XZ
??0Field_iterator_table@@QAE@XZ
?set@Field_iterator_table@@UAEXPAUTABLE_LIST@@@Z
?next@Field_iterator_table@@UAEXXZ
?end_of_fields@Field_iterator_table@@UAE_NXZ
?field@Field_iterator_table@@UAEPAVField@@XZ
??1Field_iterator_table@@UAE@XZ
??0Field_iterator_view@@QAE@XZ
?next@Field_iterator_view@@UAEXXZ
?end_of_fields@Field_iterator_view@@UAE_NXZ
?field@Field_iterator_view@@UAEPAVField@@XZ
??1Field_iterator_view@@UAE@XZ
??0?$List_iterator_fast@VNatural_join_column@@@@QAE@XZ
??0Field_iterator_natural_join@@QAE@XZ
??1Field_iterator_natural_join@@UAE@XZ
?end_of_fields@Field_iterator_natural_join@@UAE_NXZ
?name@Field_iterator_natural_join@@UAEPBDXZ
?create_item@Field_iterator_natural_join@@UAEPAVItem@@PAVTHD@@@Z
?field@Field_iterator_natural_join@@UAEPAVField@@XZ
??0Field_iterator_table_ref@@QAE@XZ
?end_of_fields@Field_iterator_table_ref@@UAE_NXZ
?name@Field_iterator_table_ref@@UAEPBDXZ
?create_item@Field_iterator_table_ref@@UAEPAVItem@@PAVTHD@@@Z
?field@Field_iterator_table_ref@@UAEPAVField@@XZ
??1Field_iterator_table_ref@@UAE@XZ
?clear_temporary@Field_blob@@QAEXXZ
?get_changed_columns@COPY_INFO@@QBEPAV?$List@VItem@@@@XZ
?get_duplicate_handling@COPY_INFO@@QBE?AW4enum_duplicates@@XZ
?get_ignore_errors@COPY_INFO@@QBE_NXZ
??0Name_resolution_context_state@@QAE@XZ
?save_state@Name_resolution_context_state@@QAEXPAUName_resolution_context@@PAUTABLE_LIST@@@Z
?restore_state@Name_resolution_context_state@@QAEXPAUName_resolution_context@@PAUTABLE_LIST@@@Z
?get_first_name_resolution_table@Name_resolution_context_state@@QAEPAUTABLE_LIST@@XZ
?uses_stored_routines@Query_tables_list@@QBE_NXZ
?head@?$List@V?$List@VItem@@@@@@QAEPAV?$List@VItem@@@@XZ
?can_acquire_protection@Global_read_lock@@QBE_NXZ
?record_first_successful_insert_id_in_cur_stmt@THD@@QAEX_K@Z
?set_query@THD@@QAEXPADIPBUcharset_info_st@@@Z
??1select_insert@@UAE@XZ
?prepare@select_insert@@UAEHAAV?$List@VItem@@@@PAVst_select_lex_unit@@@Z
?prepare2@select_insert@@UAEHXZ
?send_data@select_insert@@UAE_NAAV?$List@VItem@@@@@Z
?store_values@select_insert@@UAEXAAV?$List@VItem@@@@@Z
?send_error@select_insert@@UAEXIPBD@Z
?send_eof@select_insert@@UAE_NXZ
?abort_result_set@select_insert@@UAEXXZ
?cleanup@select_insert@@UAEXXZ
?prepare@select_create@@UAEHAAV?$List@VItem@@@@PAVst_select_lex_unit@@@Z
?binlog_show_create_table@select_create@@QAEHPAPAUTABLE@@I@Z
?store_values@select_create@@UAEXAAV?$List@VItem@@@@@Z
?send_error@select_create@@UAEXIPBD@Z
?send_eof@select_create@@UAE_NXZ
?abort_result_set@select_create@@UAEXXZ
?get_thd@select_create@@QAEPBVTHD@@XZ
?prepare2@select_create@@UAEHXZ
?mysql_prepare_insert@@YA_NPAVTHD@@PAUTABLE_LIST@@PAUTABLE@@AAV?$List@VItem@@@@PAV4@33W4enum_duplicates@@PAPAVItem@@_N77@Z
?mysql_insert@@YA_NPAVTHD@@PAUTABLE_LIST@@AAV?$List@VItem@@@@AAV?$List@V?$List@VItem@@@@@@22W4enum_duplicates@@_N@Z
?check_that_all_fields_are_given_values@@YAHPAVTHD@@PAUTABLE@@PAUTABLE_LIST@@@Z
?prepare_triggers_for_insert_stmt@@YAXPAUTABLE@@@Z
?write_record@@YAHPAVTHD@@PAUTABLE@@PAVCOPY_INFO@@2@Z
?kill_delayed_threads@@YAXXZ
?validate_default_values_of_unset_fields@@YA_NPAVTHD@@PAUTABLE@@@Z
?mysql_insert_select_prepare@@YA_NPAVTHD@@@Z
??0Delayable_insert_operation@@QAE@XZ
?set_function_defaults@Delayable_insert_operation@@UAEXPAUTABLE@@@Z
?set_dup_and_ignore@Delayable_insert_operation@@QAEXW4enum_duplicates@@_N@Z
??1Delayable_insert_operation@@UAE@XZ
handle_delayed_insert
?check_view_single_update@@YA_NAAV?$List@VItem@@@@PAV1@PAUTABLE_LIST@@PA_K@Z
?init@?$List_iterator_fast@VItem@@@@QAEXAAV?$List@VItem@@@@@Z
??0?$ilink@Vdelayed_row@@@@QAE@XZ
?unlink@?$ilink@Vdelayed_row@@@@QAEXXZ
??1?$ilink@Vdelayed_row@@@@UAE@XZ
??0delayed_row@@QAE@Ust_mysql_lex_string@@PBVCOPY_INFO@@_N@Z
?copy_context@delayed_row@@QAE_NPAVTHD@@PAUTABLE@@1@Z
??1delayed_row@@UAE@XZ
??0?$ilink@VDelayed_insert@@@@QAE@XZ
?unlink@?$ilink@VDelayed_insert@@@@QAEXXZ
??1?$ilink@VDelayed_insert@@@@UAE@XZ
?empty@?$base_ilist@Vdelayed_row@@@@QAEXXZ
??0?$base_ilist@Vdelayed_row@@@@QAE@XZ
?is_empty@?$base_ilist@Vdelayed_row@@@@QBE_NXZ
?push_back@?$base_ilist@Vdelayed_row@@@@QAEXPAVdelayed_row@@@Z
?get@?$base_ilist@Vdelayed_row@@@@QAEPAVdelayed_row@@XZ
?head@?$base_ilist@Vdelayed_row@@@@QAEPAVdelayed_row@@XZ
??1?$base_ilist@Vdelayed_row@@@@QAE@XZ
??0?$I_List@Vdelayed_row@@@@QAE@XZ
??1?$I_List@Vdelayed_row@@@@QAE@XZ
??0Delayed_insert@@QAE@PAVst_select_lex@@@Z
??1Delayed_insert@@UAE@XZ
?lock@Delayed_insert@@QAEXXZ
?unlock@Delayed_insert@@QAEXXZ
?lock_count@Delayed_insert@@QAEIXZ
?get_local_table@Delayed_insert@@QAEPAUTABLE@@PAVTHD@@@Z
?open_and_lock_table@Delayed_insert@@QAE_NXZ
?handle_inserts@Delayed_insert@@QAE_NXZ
?empty@?$base_ilist@VDelayed_insert@@@@QAEXXZ
??0?$base_ilist@VDelayed_insert@@@@QAE@XZ
?push_front@?$base_ilist@VDelayed_insert@@@@QAEXPAVDelayed_insert@@@Z
??1?$base_ilist@VDelayed_insert@@@@QAE@XZ
??0?$I_List@VDelayed_insert@@@@QAE@XZ
??1?$I_List@VDelayed_insert@@@@QAE@XZ
??0?$base_ilist_iterator@VDelayed_insert@@@@QAE@AAV?$base_ilist@VDelayed_insert@@@@@Z
?next@?$base_ilist_iterator@VDelayed_insert@@@@QAEPAVDelayed_insert@@XZ
??0?$I_List_iterator@VDelayed_insert@@@@QAE@AAV?$I_List@VDelayed_insert@@@@@Z
??E?$I_List_iterator@VDelayed_insert@@@@QAEPAVDelayed_insert@@H@Z
?handle_routine@Delayed_prelocking_strategy@@UAE_NPAVTHD@@PAVQuery_tables_list@@PAVSroutine_hash_entry@@PAVsp_head@@PA_N@Z
?handle_table@Delayed_prelocking_strategy@@UAE_NPAVTHD@@PAVQuery_tables_list@@PAUTABLE_LIST@@PA_N@Z
?handle_view@Delayed_prelocking_strategy@@UAE_NPAVTHD@@PAVQuery_tables_list@@PAUTABLE_LIST@@PA_N@Z
??0Delayed_prelocking_strategy@@QAE@XZ
??1Delayed_prelocking_strategy@@UAE@XZ
??_9Item@@$BBNI@AE
??1MY_HOOKS@?5??prepare2@select_create@@UAEHXZ@UAE@XZ
?delayed_threads@@3V?$I_List@VDelayed_insert@@@@A DATA
?head@?$List@VString@@@@QAEPAVString@@XZ
?mysqld_help@@YA_NPAVTHD@@PBD@Z
?store@Protocol@@QAE_NPAVString@@@Z
??0Item_string@@QAE@PBDIPBUcharset_info_st@@W4Derivation@@I@Z
??0Item_func_like@@QAE@PAVItem@@00_N@Z
?functype@Item_func_like@@UBE?AW4Functype@Item_func@@XZ
?eq_cmp_result@Item_func_like@@UBE?AW4cond_result@Item@@XZ
?func_name@Item_func_like@@UBEPBDXZ
??1Item_func_like@@UAE@XZ
?memorize_variant_topic@@YAXPAVTHD@@PAUTABLE@@HPAUst_find_field@@PAV?$List@VString@@@@PAVString@@44@Z
?search_topics@@YAHPAVTHD@@PAUTABLE@@PAUst_find_field@@PAVSQL_SELECT@@PAV?$List@VString@@@@PAVString@@55@Z
?search_keyword@@YAHPAVTHD@@PAUTABLE@@PAUst_find_field@@PAVSQL_SELECT@@PAH@Z
?get_topics_for_keyword@@YAHPAVTHD@@PAUTABLE@@1PAUst_find_field@@FPAV?$List@VString@@@@PAVString@@44@Z
?search_categories@@YAHPAVTHD@@PAUTABLE@@PAUst_find_field@@PAVSQL_SELECT@@PAV?$List@VString@@@@PAF@Z
?get_all_items_for_category@@YAXPAVTHD@@PAUTABLE@@PAVField@@PAVSQL_SELECT@@PAV?$List@VString@@@@@Z
?send_answer_1@@YAHPAVProtocol@@PAVString@@11@Z
?send_header_2@@YAHPAVProtocol@@_N@Z
string_ptr_cmp
?send_variant_2_list@@YAHPAUst_mem_root@@PAVProtocol@@PAV?$List@VString@@@@PBDPAVString@@@Z
?prepare_simple_select@@YAPAVSQL_SELECT@@PAVTHD@@PAVItem@@PAUTABLE@@PAH@Z
?prepare_select_for_name@@YAPAVSQL_SELECT@@PAVTHD@@PBDIPAUTABLE_LIST@@PAUTABLE@@PAVField@@PAH@Z
?set_needs_thr_lock_abort@MDL_context@@QAEX_N@Z
?get_index@handler@@QBEIXZ
?set_open_tables@THD@@QAEXPAUTABLE@@@Z
?execute@Sql_cmd_handler_open@@UAE_NPAVTHD@@@Z
?execute@Sql_cmd_handler_read@@UAE_NPAVTHD@@@Z
?execute@Sql_cmd_handler_close@@UAE_NPAVTHD@@@Z
?mysql_ha_flush@@YAXPAVTHD@@@Z
?mysql_ha_flush_tables@@YAXPAVTHD@@PAUTABLE_LIST@@@Z
?mysql_ha_rm_tables@@YAXPAVTHD@@PAUTABLE_LIST@@@Z
?mysql_ha_rm_temporary_tables@@YAXPAVTHD@@@Z
?mysql_ha_cleanup@@YAXPAVTHD@@@Z
?mysql_ha_set_explicit_lock_duration@@YAXPAVTHD@@@Z
?handle_condition@Sql_handler_lock_error_handler@@UAE_NPAVTHD@@IPBDW4enum_warning_level@Sql_condition@@1PAPAV4@@Z
?need_reopen@Sql_handler_lock_error_handler@@QBE_NXZ
?init@Sql_handler_lock_error_handler@@QAEXXZ
??0Sql_handler_lock_error_handler@@QAE@XZ
??1Sql_handler_lock_error_handler@@UAE@XZ
?cond_count@Warning_info@@ABEIXZ
?cond_count@Diagnostics_area@@QBEIXZ
??0Item_uint@@QAE@_K@Z
??0Item_uint@@QAE@ABVName_string@@_JI@Z
?val_real@Item_uint@@UAENXZ
?clone_item@Item_uint@@UAEPAVItem@@XZ
?decimal_precision@Item_uint@@UBEIXZ
?check_partition_func_processor@Item_uint@@UAE_NPAE@Z
??1Item_uint@@UAE@XZ
?execute@Sql_cmd_get_diagnostics@@UAE_NPAVTHD@@@Z
?set_value@Diagnostics_information_item@@QAE_NPAVTHD@@PAPAVItem@@@Z
?get_value@Statement_information_item@@QAEPAVItem@@PAVTHD@@PBVDiagnostics_area@@@Z
?aggregate@Statement_information@@UAE_NPAVTHD@@PBVDiagnostics_area@@@Z
?get_value@Condition_information_item@@QAEPAVItem@@PAVTHD@@PBVSql_condition@@@Z
?make_utf8_string_item@Condition_information_item@@AAEPAVItem@@PAVTHD@@PBVString@@@Z
?aggregate@Condition_information@@UAE_NPAVTHD@@PBVDiagnostics_area@@@Z
??0?$List_iterator@VStatement_information_item@@@@QAE@AAV?$List@VStatement_information_item@@@@@Z
??E?$List_iterator@VStatement_information_item@@@@QAEPAVStatement_information_item@@H@Z
??$evaluate@VStatement_information_item@@PBVDiagnostics_area@@@Diagnostics_information@@IAE_NPAVTHD@@PAVStatement_information_item@@PBVDiagnostics_area@@@Z
??0?$List_iterator_fast@VCondition_information_item@@@@QAE@AAV?$List@VCondition_information_item@@@@@Z
??E?$List_iterator_fast@VCondition_information_item@@@@QAEPAVCondition_information_item@@H@Z
??$evaluate@VCondition_information_item@@PBVSql_condition@@@Diagnostics_information@@IAE_NPAVTHD@@PAVCondition_information_item@@PBVSql_condition@@@Z
?sublist@base_list_iterator@@IAEXAAVbase_list@@I@Z
??0my_decimal@@QAE@ABV0@@Z
?ft_end@handler@@QAEXXZ
?copy@Field_blob@@QAE_NXZ
?feature_enabled@Opt_trace_context@@QBE_NW4feature_value@1@@Z
?has_with_distinct@Item_sum@@QBE_NXZ
?reset_and_add@Item_sum@@QAE_NXZ
?aggregator_setup@Item_sum@@QAE_NPAVTHD@@@Z
?aggregator_clear@Item_sum@@QAEXXZ
?aggregator_add@Item_sum@@QAE_NXZ
??0Item_var_func@@QAE@PAVTHD@@PAV0@@Z
?get_date@Item_var_func@@UAE_NPAUst_mysql_time@@I@Z
?get_time@Item_var_func@@UAE_NPAUst_mysql_time@@@Z
??1Item_var_func@@UAE@XZ
??0Item_func_set_user_var@@QAE@PAVTHD@@PAV0@@Z
?functype@Item_func_set_user_var@@UBE?AW4Functype@Item_func@@XZ
?result_type@Item_func_set_user_var@@UBE?AW4Item_result@@XZ
?func_name@Item_func_set_user_var@@UBEPBDXZ
?save_in_field@Item_func_set_user_var@@UAE?AW4type_conversion_status@@PAVField@@_N@Z
?save_org_in_field@Item_func_set_user_var@@UAEXPAVField@@@Z
??1Item_func_set_user_var@@UAE@XZ
?get_sent_row_count@THD@@QBE_KXZ
??0TMP_TABLE_PARAM@@QAE@ABV0@@Z
??0QEP_tmp_table@@QAE@PAUst_join_table@@@Z
?type@QEP_tmp_table@@UAE?AW4enum_op_type@QEP_operation@@XZ
?put_record@QEP_tmp_table@@UAE?AW4enum_nested_loop_state@@XZ
?end_send@QEP_tmp_table@@UAE?AW4enum_nested_loop_state@@XZ
?set_write_func@QEP_tmp_table@@QAEXP6A?AW4enum_nested_loop_state@@PAVJOIN@@PAUst_join_table@@_N@Z@Z
?put_record@QEP_tmp_table@@AAE?AW4enum_nested_loop_state@@_N@Z
?prepare_tmp_table@QEP_tmp_table@@AAE_NXZ
??1QEP_tmp_table@@UAE@XZ
?setup_tmptable_write_func@@YAXPAUst_join_table@@@Z
?setup_end_select_func@@YAP6A?AW4enum_nested_loop_state@@PAVJOIN@@PAUst_join_table@@_N@Z01@Z
?sub_select_op@@YA?AW4enum_nested_loop_state@@PAVJOIN@@PAUst_join_table@@_N@Z
?end_send_group@@YA?AW4enum_nested_loop_state@@PAVJOIN@@PAUst_join_table@@_N@Z
?end_write_group@@YA?AW4enum_nested_loop_state@@PAVJOIN@@PAUst_join_table@@_N@Z
?sub_select@@YA?AW4enum_nested_loop_state@@PAVJOIN@@PAUst_join_table@@_N@Z
?copy_fields@@YAXPAVTMP_TABLE_PARAM@@@Z
?copy_funcs@@YA_NPAPAVItem@@PBVTHD@@@Z
?cp_buffer_from_ref@@YA_NPAVTHD@@PAUTABLE@@PAUst_table_ref@@@Z
?report_handler_error@@YAHPAUTABLE@@H@Z
?safe_index_read@@YAHPAUst_join_table@@@Z
?pick_table_access_method@@YAXPAUst_join_table@@@Z
?join_read_const_table@@YAHPAUst_join_table@@PAUst_position@@@Z
?join_read_key_unlock_row@@YAXPAUst_join_table@@@Z
?join_init_quick_read_record@@YAHPAUst_join_table@@@Z
?join_init_read_record@@YAHPAUst_join_table@@@Z
?join_read_first@@YAHPAUst_join_table@@@Z
?join_read_last@@YAHPAUst_join_table@@@Z
?join_read_last_key@@YAHPAUst_join_table@@@Z
?join_materialize_derived@@YAHPAUst_join_table@@@Z
?join_materialize_semijoin@@YAHPAUst_join_table@@@Z
?join_read_prev_same@@YAHPAUREAD_RECORD@@@Z
?do_sj_dups_weedout@@YAHPAVTHD@@PAVSJ_TMP_TABLE@@@Z
?test_if_item_cache_changed@@YAHAAV?$List@VCached_item@@@@@Z
?change_to_use_tmp_fields@@YA_NPAVTHD@@V?$Bounds_checked_array@PAVItem@@@@AAV?$List@VItem@@@@2I2@Z
?change_refs_to_tmp_fields@@YA_NPAVTHD@@V?$Bounds_checked_array@PAVItem@@@@AAV?$List@VItem@@@@2I2@Z
?alloc_group_fields@@YA_NPAVJOIN@@PAUst_order@@@Z
?prepare_sum_aggregators@@YA_NPAPAVItem_sum@@_N@Z
?setup_sum_funcs@@YA_NPAVTHD@@PAPAVItem_sum@@@Z
?make_group_fields@@YA_NPAVJOIN@@0@Z
?setup_copy_fields@@YA_NPAVTHD@@PAVTMP_TABLE_PARAM@@V?$Bounds_checked_array@PAVItem@@@@AAV?$List@VItem@@@@3I3@Z
?do_firstmatch@st_join_table@@QBE_NXZ
?starts_weedout@st_join_table@@QBE_NXZ
?finishes_weedout@st_join_table@@QBE_NXZ
?prepare_scan@st_join_table@@QAE_NXZ
?use_order@st_join_table@@QBE_NXZ
?sort_table@st_join_table@@QAE_NXZ
?remove_duplicates@st_join_table@@QAE_NXZ
?push_front@?$List@VCached_item@@@@QAE_NPAVCached_item@@@Z
??BORDER_with_src@JOIN@@QBEPBUst_order@@XZ
?exec@JOIN@@QAEXXZ
?rollup_send_data@JOIN@@QAEHI@Z
?rollup_write_data@JOIN@@QAEHIPAUTABLE@@@Z
?send_row_on_empty_set@JOIN@@QBE_NXZ
?create_intermediate_table@JOIN@@AAE_NPAUst_join_table@@PAV?$List@VItem@@@@AAVORDER_with_src@1@_N@Z
?optimize_distinct@JOIN@@AAEXXZ
?sublist@?$List_iterator_fast@VItem@@@@QAEXAAV?$List@VItem@@@@I@Z
?read_first_record_seq@@YAHPAUst_join_table@@@Z
??0?$List_iterator@VCached_item@@@@QAE@AAV?$List@VCached_item@@@@@Z
??E?$List_iterator@VCached_item@@@@QAEPAVCached_item@@H@Z
?warning_level_names@@3QBUst_mysql_lex_string@@B DATA
?reset@I_P_List_counter@@IAEXXZ
?get_message_text@Sql_condition@@QBEPBDXZ
?get_message_octet_length@Sql_condition@@QBEHXZ
??0Sql_condition@@AAE@XZ
?init@Sql_condition@@AAEXPAUst_mem_root@@@Z
??0Sql_condition@@AAE@PAUst_mem_root@@@Z
?copy_opt_attributes@Sql_condition@@AAEXPBV1@@Z
?set@Sql_condition@@AAEXIPBDW4enum_warning_level@1@0@Z
?set_builtin_message_text@Sql_condition@@AAEXPBD@Z
?set_sqlstate@Sql_condition@@AAEXPBD@Z
?set_class_origins@Sql_condition@@AAEXXZ
?clear@Sql_condition@@AAEXXZ
??0?$I_P_List_fast_push_back@VSql_condition@@@@IAE@PAPAVSql_condition@@@Z
?set_last@?$I_P_List_fast_push_back@VSql_condition@@@@IAEXPAPAVSql_condition@@@Z
?get_last@?$I_P_List_fast_push_back@VSql_condition@@@@IBEPAPAVSql_condition@@XZ
??0?$I_P_List@VSql_condition@@U?$I_P_List_adapter@VSql_condition@@$0OM@$0PA@@@VI_P_List_counter@@V?$I_P_List_fast_push_back@VSql_condition@@@@@@QAE@XZ
?empty@?$I_P_List@VSql_condition@@U?$I_P_List_adapter@VSql_condition@@$0OM@$0PA@@@VI_P_List_counter@@V?$I_P_List_fast_push_back@VSql_condition@@@@@@QAEXXZ
?push_back@?$I_P_List@VSql_condition@@U?$I_P_List_adapter@VSql_condition@@$0OM@$0PA@@@VI_P_List_counter@@V?$I_P_List_fast_push_back@VSql_condition@@@@@@QAEXPAVSql_condition@@@Z
?remove@?$I_P_List@VSql_condition@@U?$I_P_List_adapter@VSql_condition@@$0OM@$0PA@@@VI_P_List_counter@@V?$I_P_List_fast_push_back@VSql_condition@@@@@@QAEXPAVSql_condition@@@Z
?front@?$I_P_List@VSql_condition@@U?$I_P_List_adapter@VSql_condition@@$0OM@$0PA@@@VI_P_List_counter@@V?$I_P_List_fast_push_back@VSql_condition@@@@@@QAEPAVSql_condition@@XZ
??0?$List@VSql_condition@@@@QAE@XZ
?push_back@?$List@VSql_condition@@@@QAE_NPAVSql_condition@@PAUst_mem_root@@@Z
??1?$List@VSql_condition@@@@QAE@XZ
??0Warning_info@@QAE@_K_N@Z
??1Warning_info@@QAE@XZ
?has_sql_condition@Warning_info@@ABE_NPBDK@Z
?clear@Warning_info@@AAEX_K@Z
?append_warning_info@Warning_info@@AAEXPAVTHD@@PBV1@@Z
?mark_sql_conditions_for_removal@Warning_info@@AAEXXZ
?remove_marked_sql_conditions@Warning_info@@AAEXXZ
?is_marked_for_removal@Warning_info@@ABE_NPBVSql_condition@@@Z
?mark_condition_for_removal@Warning_info@@AAEXPAVSql_condition@@@Z
?reserve_space@Warning_info@@AAEXPAVTHD@@I@Z
?push_warning@Warning_info@@AAEPAVSql_condition@@PAVTHD@@IPBDW4enum_warning_level@2@1@Z
?push_warning@Warning_info@@AAEPAVSql_condition@@PAVTHD@@PBV2@@Z
?is_read_only@Warning_info@@ABE_NXZ
?get_error_condition@Warning_info@@ABEPBVSql_condition@@XZ
?set_error_condition@Warning_info@@AAEXPBVSql_condition@@@Z
?clear_error_condition@Warning_info@@AAEXXZ
?err_conv@@YAIPADIPBDIPBUcharset_info_st@@@Z
??0ErrConvString@@QAE@N@Z
??0ErrConvString@@QAE@PBVmy_decimal@@@Z
??0ErrConvString@@QAE@PBUst_mysql_time@@I@Z
?set_is_sent@Diagnostics_area@@QAEX_N@Z
?set_ok_status@Diagnostics_area@@QAEX_K0PBD@Z
?set_eof_status@Diagnostics_area@@QAEXPAVTHD@@@Z
?set_error_status@Diagnostics_area@@QAEXI@Z
?set_error_status@Diagnostics_area@@QAEXIPBD0PBVSql_condition@@@Z
?disable_status@Diagnostics_area@@QAEXXZ
?reset_diagnostics_area@Diagnostics_area@@QAEXXZ
?is_disabled@Diagnostics_area@@QBE_NXZ
??0Diagnostics_area@@QAE@XZ
??0Diagnostics_area@@QAE@_K_N@Z
?is_warning_info_read_only@Diagnostics_area@@QBE_NXZ
?copy_non_errors_from_wi@Diagnostics_area@@QAEXPAVTHD@@PBVWarning_info@@@Z
??0?$I_P_List_fast_push_back@VWarning_info@@@@IAE@PAPAVWarning_info@@@Z
??0?$I_P_List@VWarning_info@@U?$I_P_List_adapter@VWarning_info@@$0FA@$0FE@@@VI_P_List_counter@@V?$I_P_List_fast_push_back@VWarning_info@@@@@@QAE@XZ
?push_warning@@YAXPAVTHD@@W4enum_warning_level@Sql_condition@@IPBD@Z
?push_warning_printf@@YAXPAVTHD@@W4enum_warning_level@Sql_condition@@IPBDZZ
?mysqld_show_warnings@@YA_NPAVTHD@@K@Z
?convert_error_message@@YAIPADIPBUcharset_info_st@@PBDI1PAI@Z
?is_sqlstate_valid@@YA_NPBUst_mysql_lex_string@@@Z
??0?$I_P_List_iterator@VSql_condition@@V?$I_P_List@VSql_condition@@U?$I_P_List_adapter@VSql_condition@@$0OM@$0PA@@@VI_P_List_counter@@V?$I_P_List_fast_push_back@VSql_condition@@@@@@@@QAE@ABV?$I_P_List@VSql_condition@@U?$I_P_List_adapter@VSql_condition@@$0OM@$0PA@@@VI_P_List_counter@@V?$I_P_List_fast_push_back@VSql_condition@@@@@@@Z
??E?$I_P_List_iterator@VSql_condition@@V?$I_P_List@VSql_condition@@U?$I_P_List_adapter@VSql_condition@@$0OM@$0PA@@@VI_P_List_counter@@V?$I_P_List_fast_push_back@VSql_condition@@@@@@@@QAEPAVSql_condition@@H@Z
??0?$List_iterator_fast@VSql_condition@@@@QAE@AAV?$List@VSql_condition@@@@@Z
??E?$List_iterator_fast@VSql_condition@@@@QAEPAVSql_condition@@H@Z
?next_ptr@?$I_P_List_adapter@VSql_condition@@$0OM@$0PA@@@SAPAPAVSql_condition@@PAV2@@Z
?prev_ptr@?$I_P_List_adapter@VSql_condition@@$0OM@$0PA@@@SAPAPAPAVSql_condition@@PAV2@@Z
?mysql_do@@YA_NPAVTHD@@AAV?$List@VItem@@@@@Z
?max_digest_length@@3KA DATA
?lex_token_array@@3PAUlex_token_string@@A DATA
?get_max_digest_length@@YAKXZ
?compute_digest_md5@@YAXPBUsql_digest_storage@@PAE@Z
?compute_digest_text@@YAXPBUsql_digest_storage@@PAVString@@@Z
?digest_reduce_token@@YAPAUsql_digest_state@@PAU1@II@Z
?read_token@@YAIPBUsql_digest_storage@@IPAI@Z
?store_token@@YAXPAUsql_digest_storage@@I@Z
?read_identifier@@YAIPBUsql_digest_storage@@IPAPADPAH@Z
?store_token_identifier@@YAXPAUsql_digest_storage@@IIPBD@Z
?digest_add_token@@YAPAUsql_digest_state@@PAU1@IPATYYSTYPE@@@Z
?mysql_handle_derived@@YA_NPAULEX@@P6A_NPAVTHD@@0PAUTABLE_LIST@@@Z@Z
?mysql_handle_single_derived@@YA_NPAULEX@@PAUTABLE_LIST@@P6A_NPAVTHD@@01@Z@Z
?mysql_derived_prepare@@YA_NPAVTHD@@PAULEX@@PAUTABLE_LIST@@@Z
?mysql_derived_optimize@@YA_NPAVTHD@@PAULEX@@PAUTABLE_LIST@@@Z
?mysql_derived_create@@YA_NPAVTHD@@PAULEX@@PAUTABLE_LIST@@@Z
?mysql_derived_materialize@@YA_NPAVTHD@@PAULEX@@PAUTABLE_LIST@@@Z
?mysql_derived_cleanup@@YA_NPAVTHD@@PAULEX@@PAUTABLE_LIST@@@Z
?mysql_prepare_delete@@YAHPAVTHD@@PAUTABLE_LIST@@PAPAVItem@@@Z
?mysql_delete@@YA_NPAVTHD@@PAUTABLE_LIST@@PAVItem@@PAV?$SQL_I_List@Ust_order@@@@_K4@Z
?unique_add@Unique@@QAE_NPAX@Z
??0multi_delete@@QAE@PAUTABLE_LIST@@I@Z
??1multi_delete@@UAE@XZ
?prepare@multi_delete@@UAEHAAV?$List@VItem@@@@PAVst_select_lex_unit@@@Z
?send_data@multi_delete@@UAE_NAAV?$List@VItem@@@@@Z
?initialize_tables@multi_delete@@UAE_NPAVJOIN@@@Z
?send_error@multi_delete@@UAEXIPBD@Z
?do_deletes@multi_delete@@QAEHXZ
?do_table_deletes@multi_delete@@QAEHPAUTABLE@@_N@Z
?send_eof@multi_delete@@UAE_NXZ
?abort_result_set@multi_delete@@UAEXXZ
refpos_order_cmp
?mysql_multi_delete_prepare@@YAHPAVTHD@@PAI@Z
?del_exts@@3PAPBDA DATA
?mysql_create_db@@YAHPAVTHD@@PADPAUst_ha_create_information@@_N@Z
?mysql_alter_db@@YA_NPAVTHD@@PBDPAUst_ha_create_information@@@Z
?mysql_rm_db@@YA_NPAVTHD@@PAD_N2@Z
?mysql_upgrade_db@@YA_NPAVTHD@@PAUst_mysql_lex_string@@@Z
?mysql_change_db@@YA_NPAVTHD@@PBUst_mysql_lex_string@@_N@Z
?mysql_opt_change_db@@YA_NPAVTHD@@PBUst_mysql_lex_string@@PAU2@_NPA_N@Z
?my_dboptions_cache_init@@YA_NXZ
?my_dboptions_cache_free@@YAXXZ
?check_db_dir_existence@@YA_NPBD@Z
?load_db_opt@@YA_NPAVTHD@@PBDPAUst_ha_create_information@@@Z
?load_db_opt_by_name@@YA_NPAVTHD@@PBDPAUst_ha_create_information@@@Z
?get_default_db_collation@@YAPBUcharset_info_st@@PAVTHD@@PBD@Z
?my_dbopt_cleanup@@YAXXZ
?mysql_rm_arc_files@@YAJPAVTHD@@PAUst_my_dir@@PBD@Z
dboptions_get_key
free_dbopt
?get_function_default_columns@COPY_INFO@@IAE_NPAUTABLE@@@Z
?set_function_defaults@COPY_INFO@@UAEXPAUTABLE@@@Z
?ignore_last_columns@COPY_INFO@@QAE_NPAUTABLE@@I@Z
??_9Item@@$BBEM@AE
??0Send_field@@QAE@XZ
??1Send_field@@QAE@XZ
?begin_dataset@select_result@@QAEXXZ
??0Server_side_cursor@@QAE@PAUst_mem_root@@PAVselect_result@@@Z
??1Server_side_cursor@@UAE@XZ
??3Server_side_cursor@@SAXPAXI@Z
?mysql_open_cursor@@YA_NPAVTHD@@PAVselect_result@@PAPAVServer_side_cursor@@@Z
??0Materialized_cursor@@QAE@PAVselect_result@@PAUTABLE@@@Z
?send_result_set_metadata@Materialized_cursor@@QAEHPAVTHD@@AAV?$List@VItem@@@@@Z
?is_open@Materialized_cursor@@UBE_NXZ
?open@Materialized_cursor@@UAEHPAVJOIN@@@Z
?fetch@Materialized_cursor@@UAEXK@Z
?close@Materialized_cursor@@UAEXXZ
??1Materialized_cursor@@UAE@XZ
??0Select_materialize@@QAE@PAVselect_result@@@Z
?send_result_set_metadata@Select_materialize@@UAE_NAAV?$List@VItem@@@@I@Z
??1Select_materialize@@UAE@XZ
?init@SQL_CRYPT@@QAEXPAK@Z
?encode@SQL_CRYPT@@QAEXPADI@Z
?decode@SQL_CRYPT@@QAEXPADI@Z
?set_active_vio@THD@@QAEXPAUst_vio@@@Z
?init_max_user_conn@@YAXXZ
?free_max_user_conn@@YAXXZ
handle_one_connection
?do_handle_one_connection@@YAXPAVTHD@@@Z
?init_new_connection_handler_thread@@YA_NXZ
?reset_mqh@@YAXPAUst_lex_user@@_N@Z
?check_mqh@@YA_NPAVTHD@@I@Z
?decrease_user_connections@@YAXPAUuser_conn@@@Z
?release_user_connection@@YAXPAVTHD@@@Z
?thd_init_client_charset@@YA_NPAVTHD@@I@Z
?setup_connection_thread_globals@@YA_NPAVTHD@@@Z
?thd_prepare_connection@@YA_NPAVTHD@@@Z
?thd_is_connection_alive@@YA_NPAVTHD@@@Z
?login_connection@@YA_NPAVTHD@@@Z
?prepare_new_connection_state@@YAXPAVTHD@@@Z
?end_connection@@YAXPAVTHD@@@Z
?get_or_create_user_conn@@YAHPAVTHD@@PBD1PBUuser_resources@@@Z
?check_for_max_user_connections@@YAHPAVTHD@@PBUuser_conn@@@Z
get_key_conn
free_user
?DEFAULT_WHERE@THD@@2QBDB DATA
?LOCK_xid_cache@@3Ust_mysql_mutex@@A DATA
?xid_cache@@3Ust_hash@@A DATA
?internal_table_name@@3PADA DATA
?empty_c_string@@3PADA DATA
?EMPTY_STR@@3Ust_mysql_lex_string@@A DATA
?NULL_STR@@3Ust_mysql_lex_string@@A DATA
thd_increment_bytes_sent
thd_increment_bytes_received
thd_alloc
thd_calloc
thd_strdup
thd_strmake
thd_memdup
thd_make_lex_string
thd_wait_begin
thd_wait_end
thd_in_lock_tables
thd_tablespace_op
thd_test_options
thd_sql_command
thd_ha_data
thd_storage_lock_wait
thd_tx_isolation
thd_tx_is_read_only
thd_security_context
thd_inc_row_count
thd_allow_batch
mysql_tmpfile
thd_killed
thd_binlog_pos
thd_get_thread_id
thd_get_xid
thd_get_ha_data
thd_set_ha_data
??0Simple_cstring@@QAE@Ust_mysql_lex_string@@@Z
?length@Simple_cstring@@QBEIXZ
?my_decimal_cmp@@YAHPBVmy_decimal@@0@Z
?copy_shallow@Discrete_intervals_list@@AAEXPBV1@@Z
??0Discrete_intervals_list@@AAE@ABV0@@Z
?swap@Discrete_intervals_list@@QAEXPAV1@@Z
?nb_elements@Discrete_intervals_list@@QBEIXZ
??1MDL_context_owner@@UAE@XZ
??0MDL_context_owner@@QAE@XZ
?init@MDL_context@@QAEXPAVMDL_context_owner@@@Z
??1MDL_context@@QAE@XZ
??0xid_t@@QAE@XZ
?key@xid_t@@QAEPAEXZ
?key_length@xid_t@@QAEIXZ
?needs_reopen@TABLE@@QAE_NXZ
?set_thd@PROFILING@@QAEXPAVTHD@@@Z
?thd_get_scheduler_data@@YAPAXPAVTHD@@@Z
?thd_set_scheduler_data@@YAXPAVTHD@@PAX@Z
?thd_get_psi@@YAPAUPSI_thread@@PAVTHD@@@Z
?thd_set_psi@@YAXPAVTHD@@PAUPSI_thread@@@Z
??0Protocol@@QAE@XZ
??0Protocol_text@@QAE@XZ
?type@Protocol_text@@UAE?AW4enum_protocol_type@Protocol@@XZ
??1Protocol_text@@UAE@XZ
??0Protocol_binary@@QAE@XZ
??0Opt_trace_context@@QAE@XZ
set_thd_proc_info
set_thd_stage_info
thd_enter_cond
thd_exit_cond
thd_query_string
thd_query
??8Key_part_spec@@QBE_NABV0@@Z
?clone@Key_part_spec@@QBEPAV1@PAUst_mem_root@@@Z
??0?$List@VKey_part_spec@@@@QAE@ABV0@PAUst_mem_root@@@Z
??0Key@@QAE@ABV0@PAUst_mem_root@@@Z
?foreign_key_prefix@@YA_NPAVKey@@0@Z
??0Foreign_key@@QAE@ABV0@PAUst_mem_root@@@Z
?clone@Foreign_key@@UBEPAVKey@@PAUst_mem_root@@@Z
??1Foreign_key@@UAE@XZ
??0Query_cache_tls@@QAE@XZ
??0Name_string@@QAE@Ust_mysql_lex_string@@@Z
??0Item_var_func@@QAE@PAVItem@@@Z
??0Item_func_set_user_var@@QAE@VName_string@@PAVItem@@_N@Z
?register_value@Item_maxmin_subselect@@QAEXXZ
?requires_prelocking@Query_tables_list@@QAE_NXZ
?type@Query_arena@@UBE?AW4Type@1@XZ
?set_query_arena@Query_arena@@QAEXPAV1@@Z
?free_items@Query_arena@@QAEXXZ
?cleanup_stmt@Query_arena@@UAEXXZ
??0Statement@@QAE@PAULEX@@PAUst_mem_root@@W4enum_state@Query_arena@@K@Z
??1Statement@@UAE@XZ
?set_statement@Statement@@UAEXPAV1@@Z
?set_n_backup_statement@Statement@@QAEXPAV1@0@Z
?restore_backup_statement@Statement@@QAEXPAV1@0@Z
?type@Statement@@UBE?AW4Type@Query_arena@@XZ
??0Statement_map@@QAE@XZ
?insert@Statement_map@@QAEHPAVTHD@@PAVStatement@@@Z
?close_transient_cursors@Statement_map@@QAEXXZ
?erase@Statement_map@@QAEXPAVStatement@@@Z
?reset@Statement_map@@QAEXXZ
??1Statement_map@@QAE@XZ
?reset@Ha_trx_info@@QAEXXZ
??0Ha_trx_info@@QAE@XZ
??0st_xid_state@@QAE@XZ
?xid_cache_init@@YA_NXZ
?xid_cache_free@@YAXXZ
?xid_cache_search@@YAPAUst_xid_state@@PAUxid_t@@@Z
?xid_cache_insert@@YA_NPAUxid_t@@W4xa_states@@@Z
?xid_cache_insert@@YA_NPAUst_xid_state@@@Z
?xid_cache_delete@@YAXPAUst_xid_state@@@Z
?init@Security_context@@QAEXXZ
?destroy@Security_context@@QAEXXZ
?skip_grants@Security_context@@QAEXXZ
?set_user@Security_context@@QAE_NPAD@Z
?get_host@Security_context@@QAEPAVString@@XZ
?get_ip@Security_context@@QAEPAVString@@XZ
?get_external_user@Security_context@@QAEPAVString@@XZ
?set_host@Security_context@@QAEXPBD@Z
?set_ip@Security_context@@QAEXPBD@Z
?set_external_user@Security_context@@QAEXPBD@Z
?set_host@Security_context@@QAEXPBDI@Z
?change_security_context@Security_context@@QAE_NPAVTHD@@PAUst_mysql_lex_string@@11PAPAV1@@Z
?restore_security_context@Security_context@@QAEXPAVTHD@@PAV1@@Z
?user_matches@Security_context@@QAE_NPAV1@@Z
?new_window@Log_throttle@@IAEX_K@Z
?inc_log_count@Log_throttle@@IAE_NK@Z
?in_window@Log_throttle@@IBE_N_K@Z
?prepare_summary@Log_throttle@@IAEKK@Z
?new_window@Slow_log_throttle@@AAEX_K@Z
?print_summary@Slow_log_throttle@@AAEXPAVTHD@@K_K1@Z
??0Slow_log_throttle@@QAE@PAKPAUst_mysql_mutex@@KP6A_NPAVTHD@@PBDI@Z3@Z
?flush@Slow_log_throttle@@QAE_NPAVTHD@@@Z
?log@Slow_log_throttle@@QAE_NPAVTHD@@_N@Z
?print_summary@Error_log_throttle@@AAEXK@Z
?flush@Error_log_throttle@@QAE_NPAVTHD@@@Z
?log@Error_log_throttle@@QAE_NPAVTHD@@@Z
??0Item_change_record@@QAE@XZ
??1Item_change_record@@UAE@XZ
?at@?$Dynamic_array@PAVReprepare_observer@@@@QAEAAPAVReprepare_observer@@H@Z
?elements@?$Dynamic_array@PAVReprepare_observer@@@@QAEXI@Z
?clear@?$Dynamic_array@PAVReprepare_observer@@@@QAEXXZ
?reset_reprepare_observers@Open_tables_state@@QAEXXZ
?set_open_tables_state@Open_tables_state@@QAEXPAV1@@Z
?reset_open_tables_state@Open_tables_state@@QAEXXZ
?handle_condition@Drop_table_error_handler@@UAE_NPAVTHD@@IPBDW4enum_warning_level@Sql_condition@@1PAPAV4@@Z
??0Locked_tables_list@@QAE@XZ
??1Locked_tables_list@@QAE@XZ
??0Ha_data@@QAE@XZ
??0Global_read_lock@@QAE@XZ
?enter_stage@THD@@QAEXPBUPSI_stage_info_v1@@PAU2@PBD2I@Z
?set_next_event_pos@THD@@QAEXPBD_K@Z
?clear_next_event_pos@THD@@QAEXXZ
?is_current_stmt_binlog_disabled@THD@@QBE_NXZ
?reset_binlog_local_stmt_filter@THD@@QAEXXZ
?is_active@st_transactions@THD@@QAEDXZ
??0st_transactions@THD@@QAE@XZ
?push_front@?$base_ilist@UItem_change_record@@@@QAEXPAUItem_change_record@@@Z
?set_user_connect@THD@@QAEXPAUuser_conn@@@Z
?increment_user_connections_counter@THD@@QAEXXZ
?decrement_user_connections_counter@THD@@QAEXXZ
?increment_con_per_hour_counter@THD@@QAEXXZ
?increment_updates_counter@THD@@QAEXXZ
?increment_questions_counter@THD@@QAEXXZ
?time_out_user_resource_limits@THD@@QAEXXZ
?set_sent_row_count@THD@@QAEX_K@Z
?set_examined_row_count@THD@@QAEX_K@Z
?inc_sent_row_count@THD@@QAEX_K@Z
?inc_examined_row_count@THD@@QAEX_K@Z
?inc_status_created_tmp_disk_tables@THD@@QAEXXZ
?inc_status_created_tmp_tables@THD@@QAEXXZ
?inc_status_select_full_join@THD@@QAEXXZ
?inc_status_select_full_range_join@THD@@QAEXXZ
?inc_status_select_range@THD@@QAEXXZ
?inc_status_select_range_check@THD@@QAEXXZ
?inc_status_select_scan@THD@@QAEXXZ
?inc_status_sort_merge_passes@THD@@QAEXXZ
?inc_status_sort_range@THD@@QAEXXZ
?inc_status_sort_rows@THD@@QAEX_K@Z
?inc_status_sort_scan@THD@@QAEXXZ
?set_status_no_index_used@THD@@QAEXXZ
?set_status_no_good_index_used@THD@@QAEXXZ
?get_trans_pos@THD@@QBEXPAPBDPA_K@Z
??0THD@@QAE@_N@Z
??1THD@@UAE@XZ
?release_resources@THD@@QAEXXZ
?cleanup@THD@@AAEXXZ
?init@THD@@QAEXXZ
?init_for_queries@THD@@QAEXPAVRelay_log_info@@@Z
?change_user@THD@@QAEXXZ
?cleanup_after_query@THD@@QAEXXZ
?store_globals@THD@@QAE_NXZ
?restore_globals@THD@@QAE_NXZ
?shutdown_active_vio@THD@@QAEXXZ
?awake@THD@@QAEXW4killed_state@1@@Z
?disconnect@THD@@QAEXXZ
?enter_cond@THD@@UAEXPAUst_mysql_cond@@PAUst_mysql_mutex@@PBUPSI_stage_info_v1@@PAU4@PBD4H@Z
?exit_cond@THD@@UAEXPBUPSI_stage_info_v1@@PBD1H@Z
?is_killed@THD@@UAEHXZ
?get_thd@THD@@UAEPAV1@XZ
?notify_shared_lock@THD@@UAE_NPAVMDL_context_owner@@_N@Z
?query_start_timeval_trunc@THD@@QAE?AUtimeval@@I@Z
?trans_alloc@THD@@QAEPAXI@Z
?make_lex_string@THD@@QAEPAUst_mysql_lex_string@@PAU2@PBDI_N@Z
?convert_string@THD@@QAE_NPAUst_mysql_lex_string@@PBUcharset_info_st@@PBDI1@Z
?convert_string@THD@@QAE_NPAVString@@PBUcharset_info_st@@1@Z
?add_changed_table@THD@@QAEXPAUTABLE@@@Z
?add_changed_table@THD@@QAEXPBDJ@Z
?changed_table_dup@THD@@QAEPAUst_changed_table_list@@PBDJ@Z
?send_explain_fields@THD@@QAEHPAVselect_result@@@Z
?update_charset@THD@@QAEXXZ
?change_item_tree_place@THD@@QAEXPAPAVItem@@0@Z
?nocheck_register_item_tree_change@THD@@QAEXPAPAVItem@@PAV2@PAUst_mem_root@@@Z
?rollback_item_tree_changes@THD@@QAEXXZ
?end_statement@THD@@QAEXXZ
?really_abort_on_warning@THD@@QAE_NXZ
?set_status_var_init@THD@@QAEXXZ
?reset_n_backup_open_tables_state@THD@@QAEXPAVOpen_tables_backup@@@Z
?restore_backup_open_tables_state@THD@@QAEXPAVOpen_tables_backup@@@Z
?reset_sub_statement_state@THD@@QAEXPAVSub_statement_state@@I@Z
?restore_sub_statement_state@THD@@QAEXPAVSub_statement_state@@@Z
?set_n_backup_active_arena@THD@@QAEXPAVQuery_arena@@0@Z
?restore_active_arena@THD@@QAEXPAVQuery_arena@@0@Z
?push_internal_handler@THD@@QAEXPAVInternal_error_handler@@@Z
?handle_condition@THD@@AAE_NIPBDW4enum_warning_level@Sql_condition@@0PAPAV3@@Z
?pop_internal_handler@THD@@QAEPAVInternal_error_handler@@XZ
?raise_error@THD@@QAEXI@Z
?raise_error_printf@THD@@QAAXIZZ
?raise_warning@THD@@QAEXI@Z
?raise_warning_printf@THD@@QAAXIZZ
?raise_note@THD@@QAEXI@Z
?raise_note_printf@THD@@QAAXIZZ
?raise_condition@THD@@AAEPAVSql_condition@@IPBDW4enum_warning_level@2@0@Z
?set_statement@THD@@UAEXPAVStatement@@@Z
?set_command@THD@@QAEXW4enum_server_command@@@Z
?set_query@THD@@QAEXABVCSET_STRING@@@Z
?set_query_and_id@THD@@QAEXPADIPBUcharset_info_st@@_J@Z
?set_query_id@THD@@QAEX_J@Z
?set_mysys_var@THD@@QAEXPAUst_my_thread_var@@@Z
?leave_locked_tables_mode@THD@@QAEXXZ
?get_definer@THD@@QAEXPAUst_lex_user@@@Z
?mark_transaction_to_rollback@THD@@QAEX_N@Z
?make_lex_string_root@@YAPAUst_mysql_lex_string@@PAUst_mem_root@@PAU1@PBDI_N@Z
??0sql_exchange@@QAE@PAD_NW4enum_filetype@@@Z
?escaped_given@sql_exchange@@QAE_NXZ
??0select_result@@QAE@XZ
?send_error@select_result@@UAEXIPBD@Z
?check_simple_select@select_result@@UBE_NXZ
?cleanup@select_result@@UAEXXZ
?send_result_set_metadata@select_send@@UAE_NAAV?$List@VItem@@@@I@Z
?send_data@select_send@@UAE_NAAV?$List@VItem@@@@@Z
?send_eof@select_send@@UAE_NXZ
?abort_result_set@select_send@@UAEXXZ
?cleanup@select_send@@UAEXXZ
??1select_to_file@@UAE@XZ
?send_error@select_to_file@@UAEXIPBD@Z
?send_eof@select_to_file@@UAE_NXZ
?cleanup@select_to_file@@UAEXXZ
??1select_export@@UAE@XZ
?prepare@select_export@@UAEHAAV?$List@VItem@@@@PAVst_select_lex_unit@@@Z
?send_data@select_export@@UAE_NAAV?$List@VItem@@@@@Z
?prepare@select_dump@@UAEHAAV?$List@VItem@@@@PAVst_select_lex_unit@@@Z
?send_data@select_dump@@UAE_NAAV?$List@VItem@@@@@Z
?init@TMP_TABLE_PARAM@@QAEXXZ
??0select_subselect@@QAE@PAVItem_subselect@@@Z
?send_eof@select_subselect@@UAE_NXZ
??1select_subselect@@UAE@XZ
?send_data@select_singlerow_subselect@@UAE_NAAV?$List@VItem@@@@@Z
?cleanup@select_max_min_finder_subselect@@UAEXXZ
?send_data@select_max_min_finder_subselect@@UAE_NAAV?$List@VItem@@@@@Z
?cmp_real@select_max_min_finder_subselect@@AAE_NXZ
?cmp_int@select_max_min_finder_subselect@@AAE_NXZ
?cmp_decimal@select_max_min_finder_subselect@@AAE_NXZ
?cmp_str@select_max_min_finder_subselect@@AAE_NXZ
?send_data@select_exists_subselect@@UAE_NAAV?$List@VItem@@@@@Z
?internal_buffer_ptr@user_var_entry@@ABEPADXZ
?alloced@user_var_entry@@AAE_NXZ
?free_value@user_var_entry@@AAEXXZ
?destroy@user_var_entry@@QAEXXZ
?prepare@select_dumpvar@@UAEHAAV?$List@VItem@@@@PAVst_select_lex_unit@@@Z
?send_data@select_dumpvar@@UAE_NAAV?$List@VItem@@@@@Z
?send_eof@select_dumpvar@@UAE_NXZ
?check_simple_select@select_dumpvar@@UBE_NXZ
?cleanup@select_dumpvar@@UAEXXZ
?add_to_status@@YAXPAUsystem_status_var@@0@Z
?add_diff_to_status@@YAXPAUsystem_status_var@@00@Z
?mysql_tmpfile_path@@YAHPBD0@Z
?cleanup_after_query@Relay_log_info@@QAEXXZ
?cleanup_after_session@Relay_log_info@@QAEXXZ
?set_variable@sp_rcontext@@QAE_NPAVTHD@@IPAPAVItem@@@Z
get_var_key
free_user_var
??$list_copy_and_replace_each_value@VKey_part_spec@@@@YAXAAV?$List@VKey_part_spec@@@@PAUst_mem_root@@@Z
?replace@?$List_iterator@VKey_part_spec@@@@QAEPAVKey_part_spec@@PAV2@@Z
?thd_get_net_wait_timeout@@YAKPAVTHD@@@Z
?thd_set_killed@@YAXPAVTHD@@@Z
?thd_clear_errors@@YAXPAVTHD@@@Z
?thd_set_thread_stack@@YAXPAVTHD@@PAD@Z
?thd_lock_thread_count@@YAXPAVTHD@@@Z
?thd_unlock_thread_count@@YAXPAVTHD@@@Z
?thd_close_connection@@YAXPAVTHD@@@Z
?thd_get_current_thd@@YAPAVTHD@@XZ
?thd_get_global_thread_list_begin@@YA?AV?$_Tree_const_iterator@V?$_Tree_val@U?$_Tree_simple_types@PAVTHD@@@std@@@std@@@std@@XZ
?thd_get_global_thread_list_end@@YA?AV?$_Tree_const_iterator@V?$_Tree_val@U?$_Tree_simple_types@PAVTHD@@@std@@@std@@@std@@XZ
?thd_new_connection_setup@@YAXPAVTHD@@PAD@Z
?thd_lock_data@@YAXPAVTHD@@@Z
?thd_unlock_data@@YAXPAVTHD@@@Z
?thd_is_transaction_active@@YA_NPAVTHD@@@Z
?thd_connection_has_data@@YAHPAVTHD@@@Z
?thd_set_net_read_write@@YAXPAVTHD@@I@Z
?thd_get_net_read_write@@YAIPAVTHD@@@Z
?thd_set_mysys_var@@YAXPAVTHD@@PAUst_my_thread_var@@@Z
?thd_get_fd@@YAIPAVTHD@@@Z
?thd_store_globals@@YAHPAVTHD@@@Z
?get_connection_attrib@@YAPAUthread_attr@@XZ
?get_max_connections@@YAKXZ
_current_thd_noinline
??0?$base_ilist_iterator@UItem_change_record@@@@QAE@AAV?$base_ilist@UItem_change_record@@@@@Z
?next@?$base_ilist_iterator@UItem_change_record@@@@QAEPAUItem_change_record@@XZ
??0?$I_List_iterator@UItem_change_record@@@@QAE@AAV?$I_List@UItem_change_record@@@@@Z
??E?$I_List_iterator@UItem_change_record@@@@QAEPAUItem_change_record@@H@Z
??0?$List_iterator_fast@Vmy_var@@@@QAE@AAV?$List@Vmy_var@@@@@Z
??E?$List_iterator_fast@Vmy_var@@@@QAEPAVmy_var@@H@Z
?thd_get_trx_isolation@@YA?AW4enum_tx_isolation@@PBVTHD@@@Z
thd_charset
thd_slave_thread
thd_non_transactional_update
thd_binlog_format
thd_mark_transaction_to_rollback
thd_binlog_filter_ok
thd_sqlcom_can_generate_row_events
thd_get_durability_property
thd_get_autoinc
thd_is_strict_mode
xid_get_hash_key
xid_free_hash
?block@Query_cache_block_table@@QAEPAUQuery_cache_block@@XZ
?is_free@Query_cache_block@@QAEDXZ
?init@Query_cache_block@@QAEXK@Z
?destroy@Query_cache_block@@QAEXXZ
?headers_len@Query_cache_block@@QAEIXZ
?data@Query_cache_block@@QAEPAEXZ
?query@Query_cache_block@@QAEPAUQuery_cache_query@@XZ
?table@Query_cache_block@@QAEPAUQuery_cache_table@@XZ
?result@Query_cache_block@@QAEPAUQuery_cache_result@@XZ
?table@Query_cache_block@@QAEPAUQuery_cache_block_table@@I@Z
?init_n_lock@Query_cache_query@@QAEXXZ
?unlock_n_destroy@Query_cache_query@@QAEXXZ
?found_rows@Query_cache_query@@QAE_KXZ
?found_rows@Query_cache_query@@QAEX_K@Z
?result@Query_cache_query@@QAEPAUQuery_cache_block@@XZ
?result@Query_cache_query@@QAEXPAUQuery_cache_block@@@Z
?writer@Query_cache_query@@QAEPAUQuery_cache_tls@@XZ
?writer@Query_cache_query@@QAEXPAUQuery_cache_tls@@@Z
?tables_type@Query_cache_query@@QAEEXZ
?tables_type@Query_cache_query@@QAEXE@Z
?length@Query_cache_query@@QAEKXZ
?add@Query_cache_query@@QAEKK@Z
?query@Query_cache_query@@QAEPAEXZ
?lock_writing@Query_cache_query@@QAEXXZ
?lock_reading@Query_cache_query@@QAEXXZ
?try_lock_writing@Query_cache_query@@QAEDXZ
?unlock_writing@Query_cache_query@@QAEXXZ
?unlock_reading@Query_cache_query@@QAEXXZ
?db@Query_cache_table@@QAEPADXZ
?table@Query_cache_table@@QAEPADXZ
?table@Query_cache_table@@QAEXPAD@Z
?key_length@Query_cache_table@@QAEIXZ
?key_length@Query_cache_table@@QAEXI@Z
?type@Query_cache_table@@QAEXE@Z
?callback@Query_cache_table@@QAEP6ADPAVTHD@@PADIPA_K@ZXZ
?callback@Query_cache_table@@QAEXP6ADPAVTHD@@PADIPA_K@Z@Z
?engine_data@Query_cache_table@@QAE_KXZ
?engine_data@Query_cache_table@@QAEX_K@Z
?data@Query_cache_table@@QAEPAEXZ
?data@Query_cache_result@@QAEPAEXZ
?parent@Query_cache_result@@QAEPAUQuery_cache_block@@XZ
?parent@Query_cache_result@@QAEXPAUQuery_cache_block@@@Z
query_cache_query_get_key
query_cache_table_get_key
query_cache_invalidate_by_MyISAM_filename
?init@Query_cache_memory_bin@@QAEXK@Z
?init@Query_cache_memory_bin_step@@QAEXKIK@Z
?free_query_internal@Query_cache@@AAEXPAUQuery_cache_block@@@Z
?invalidate_table_internal@Query_cache@@AAEXPAVTHD@@PAEI@Z
?disable_query_cache@Query_cache@@AAEXXZ
?double_linked_list_exclude@Query_cache@@KAXPAUQuery_cache_block@@PAPAU2@@Z
?double_linked_list_simple_include@Query_cache@@KAXPAUQuery_cache_block@@PAPAU2@@Z
?double_linked_list_join@Query_cache@@KAXPAUQuery_cache_block@@0@Z
?filename_2_table_key@Query_cache@@KAIPADPBDPAI@Z
?flush_cache@Query_cache@@IAEXXZ
?free_old_query@Query_cache@@IAEDXZ
?free_query@Query_cache@@IAEXPAUQuery_cache_block@@@Z
?allocate_data_chain@Query_cache@@IAEDPAPAUQuery_cache_block@@KPAU2@D@Z
?invalidate_table@Query_cache@@IAEXPAVTHD@@PAUTABLE_LIST@@@Z
?invalidate_table@Query_cache@@IAEXPAVTHD@@PAUTABLE@@@Z
?invalidate_table@Query_cache@@IAEXPAVTHD@@PAEI@Z
?invalidate_query_block_list@Query_cache@@IAEXPAVTHD@@PAUQuery_cache_block_table@@@Z
?register_tables_from_list@Query_cache@@IAEIPAUTABLE_LIST@@IPAUQuery_cache_block_table@@@Z
?register_all_tables@Query_cache@@IAEDPAUQuery_cache_block@@PAUTABLE_LIST@@I@Z
?insert_table@Query_cache@@IAEDIPBDPAUQuery_cache_block_table@@IEP6ADPAVTHD@@PADIPA_K@Z_K@Z
?unlink_table@Query_cache@@IAEXPAUQuery_cache_block_table@@@Z
?get_free_block@Query_cache@@IAEPAUQuery_cache_block@@KDK@Z
?free_memory_block@Query_cache@@IAEXPAUQuery_cache_block@@@Z
?split_block@Query_cache@@IAEXPAUQuery_cache_block@@K@Z
?join_free_blocks@Query_cache@@IAEPAUQuery_cache_block@@PAU2@0@Z
?append_next_free_block@Query_cache@@IAEDPAUQuery_cache_block@@K@Z
?exclude_from_free_memory_list@Query_cache@@IAEXPAUQuery_cache_block@@@Z
?insert_into_free_memory_list@Query_cache@@IAEXPAUQuery_cache_block@@@Z
?move_by_type@Query_cache@@IAEDPAPAEPAPAUQuery_cache_block@@PAKPAU2@@Z
?find_bin@Query_cache@@IAEIK@Z
?move_to_query_list_end@Query_cache@@IAEXPAUQuery_cache_block@@@Z
?insert_into_free_memory_sorted_list@Query_cache@@IAEXPAUQuery_cache_block@@PAPAU2@@Z
?pack_cache@Query_cache@@IAEXXZ
?relink@Query_cache@@IAEXPAUQuery_cache_block@@00000@Z
?join_results@Query_cache@@IAEDK@Z
?init_cache@Query_cache@@IAEKXZ
?make_disabled@Query_cache@@IAEXXZ
?free_cache@Query_cache@@IAEXXZ
?write_block_data@Query_cache@@IAEPAUQuery_cache_block@@KPAEKW4block_type@2@I@Z
?append_result_data@Query_cache@@IAEDPAPAUQuery_cache_block@@KPAEPAU2@@Z
?write_result_data@Query_cache@@IAEDPAPAUQuery_cache_block@@KPAEPAU2@W4block_type@2@@Z
?get_min_first_result_data_size@Query_cache@@IAEKXZ
?get_min_append_result_data_size@Query_cache@@IAEKXZ
?allocate_block@Query_cache@@IAEPAUQuery_cache_block@@KDK@Z
?is_cacheable@Query_cache@@IAEIPAVTHD@@IPBDPAULEX@@PAUTABLE_LIST@@PAE@Z
?process_and_count_tables@Query_cache@@IAEIPAVTHD@@PAUTABLE_LIST@@PAE@Z
?ask_handler_allowance@Query_cache@@KADPAVTHD@@PAUTABLE_LIST@@@Z
??0Query_cache@@QAE@KKKII@Z
?init@Query_cache@@QAEXXZ
?resize@Query_cache@@QAEKK@Z
?set_min_res_unit@Query_cache@@QAEKK@Z
?store_query@Query_cache@@QAEXPAVTHD@@PAUTABLE_LIST@@@Z
?send_result_to_client@Query_cache@@QAEHPAVTHD@@PADI@Z
?invalidate@Query_cache@@QAEXPAVTHD@@PAUTABLE_LIST@@D@Z
?invalidate@Query_cache@@QAEXPAUst_changed_table_list@@@Z
?invalidate_locked_for_write@Query_cache@@QAEXPAUTABLE_LIST@@@Z
?invalidate@Query_cache@@QAEXPAVTHD@@PAUTABLE@@D@Z
?invalidate@Query_cache@@QAEXPAVTHD@@PBDID@Z
?invalidate@Query_cache@@QAEXPAD@Z
?invalidate_by_MyISAM_filename@Query_cache@@QAEXPBD@Z
?flush@Query_cache@@QAEXXZ
?pack@Query_cache@@QAEXKI@Z
?destroy@Query_cache@@QAEXXZ
?insert@Query_cache@@QAEXPAUQuery_cache_tls@@PBDKI@Z
?end_of_result@Query_cache@@QAEXPAVTHD@@@Z
?abort@Query_cache@@QAEXPAUQuery_cache_tls@@@Z
?wreck@Query_cache@@QAEXIPBD@Z
?bins_dump@Query_cache@@QAEXXZ
?cache_dump@Query_cache@@QAEXXZ
?queries_dump@Query_cache@@QAEXXZ
?tables_dump@Query_cache@@QAEXXZ
?check_integrity@Query_cache@@QAED_N@Z
?in_list@Query_cache@@QAEDPAUQuery_cache_block@@0PBD@Z
?in_table_list@Query_cache@@QAEDPAUQuery_cache_block_table@@0PBD@Z
?in_blocks@Query_cache@@QAEDPAUQuery_cache_block@@@Z
?try_lock@Query_cache@@QAE_N_N@Z
?lock@Query_cache@@QAEXXZ
?lock_and_suspend@Query_cache@@QAEXXZ
?unlock@Query_cache@@QAEXXZ
mysql_query_cache_invalidate4
?get_table_ref_type@TABLE_SHARE@@QBE?AW4enum_table_ref_type@@XZ
?is_eof@Diagnostics_area@@QBE_NXZ
?myrg_info@ha_myisammrg@@QAEPAUst_myrg_info@@XZ
??0Query_cache_wait_state@@QAE@PAVTHD@@PBD1I@Z
??1Query_cache_wait_state@@QAE@XZ
?query_cache_insert@@YAXPBDKI@Z
?dump_node@@YAXPAUQuery_cache_block_table@@PBD1@Z
?read_bootstrap_query@@YAHPADPAHPAXP6APAD0I21@Z1@Z
?LOCK_open@@3Ust_mysql_mutex@@A DATA
?not_found_item@@3PAPAVItem@@A DATA
?not_found_field@@3PAVField@@A DATA
?view_ref_found@@3PAVField@@A DATA
?table_def_cache@@3Ust_hash@@A DATA
?ptr@MDL_key@@QBEPBEXZ
?length@MDL_key@@QBEIXZ
?db_name@MDL_key@@QBEPBDXZ
?name@MDL_key@@QBEPBDXZ
?mdl_namespace@MDL_key@@QBE?AW4enum_mdl_namespace@1@XZ
??2MDL_request@@SAPAXIPAUst_mem_root@@@Z
??3MDL_request@@SAXPAXPAUst_mem_root@@@Z
??0Table_id@@QAE@_K@Z
?id@Table_id@@QBE_KXZ
??ETable_id@@QAE?AV0@H@Z
?get_table_ref_version@TABLE_SHARE@@QBE_KXZ
?is_table_ref_id_equal@TABLE_LIST@@QBE_NPAUTABLE_SHARE@@@Z
?set_table_ref_id@TABLE_LIST@@QAEXPAUTABLE_SHARE@@@Z
?set_table_ref_id@TABLE_LIST@@QAEXW4enum_table_ref_type@@_K@Z
??0?$List_iterator_fast@VNatural_join_column@@@@QAE@AAV?$List@VNatural_join_column@@@@@Z
?is_user_table@@YA_NPAUTABLE@@@Z
??0Field_null@@QAE@PAEIW4utype@Field@@PBDPBUcharset_info_st@@@Z
?type@Field_null@@UBE?AW4enum_field_types@@XZ
?store@Field_null@@UAE?AW4type_conversion_status@@PBDIPBUcharset_info_st@@@Z
?store@Field_null@@UAE?AW4type_conversion_status@@N@Z
?store@Field_null@@UAE?AW4type_conversion_status@@_J_N@Z
?store_decimal@Field_null@@UAE?AW4type_conversion_status@@PBVmy_decimal@@@Z
?reset@Field_null@@UAE?AW4type_conversion_status@@XZ
?val_real@Field_null@@UAENXZ
?val_int@Field_null@@UAE_JXZ
?val_decimal@Field_null@@UAEPAVmy_decimal@@PAV2@@Z
?val_str@Field_null@@UAEPAVString@@PAV2@0@Z
?cmp@Field_null@@UAEHPBE0@Z
?make_sort_key@Field_null@@UAEXPAEI@Z
?pack_length@Field_null@@UBEIXZ
?max_display_length@Field_null@@UAEIXZ
?clone@Field_null@@UBEPAV1@PAUst_mem_root@@@Z
?clone@Field_null@@UBEPAV1@XZ
??1Field_null@@UAE@XZ
??0Field_null@@QAE@ABV0@@Z
?set_automatic@Gtid_specification@@QAEXXZ
?eq_safe@Name_string@@QBE_NPBD@Z
?eq_safe@Name_string@@QBE_NV1@@Z
?insert_fields@@YA_NPAVTHD@@PAUName_resolution_context@@PBD2PAV?$List_iterator@VItem@@@@_N@Z
?setup_conds@@YAHPAVTHD@@PAUTABLE_LIST@@1PAPAVItem@@@Z
?mark_as_requiring_prelocking@Query_tables_list@@QAEXPAPAUTABLE_LIST@@@Z
?chop_off_not_own_tables@Query_tables_list@@QAEXXZ
?is_stmt_prepare_or_first_stmt_execute@Query_arena@@QBE_NXZ
?unlock_locked_tables@Locked_tables_list@@QAEXPAVTHD@@@Z
?init_locked_tables@Locked_tables_list@@QAE_NPAVTHD@@@Z
?locked_tables@Locked_tables_list@@QAEPAUTABLE_LIST@@XZ
?unlink_from_list@Locked_tables_list@@QAEXPAVTHD@@PAUTABLE_LIST@@_N@Z
?unlink_all_closed_tables@Locked_tables_list@@QAEXPAVTHD@@PAUst_mysql_lock@@I@Z
?reopen_tables@Locked_tables_list@@QAE_NPAVTHD@@@Z
?binlog_flush_pending_rows_event@THD@@QAEH_N@Z
?enter_locked_tables_mode@THD@@QAEXW4enum_locked_tables_mode@@@Z
?table_def_init@@YA_NXZ
?table_def_free@@YAXXZ
?table_def_start_shutdown@@YAXXZ
?assign_new_table_id@@YAXPAUTABLE_SHARE@@@Z
?cached_table_definitions@@YAIXZ
?get_table_def_key@@YAIPBUTABLE_LIST@@PAPBD@Z
?get_table_share@@YAPAUTABLE_SHARE@@PAVTHD@@PAUTABLE_LIST@@PBDIIPAHI@Z
?release_table_share@@YAXPAUTABLE_SHARE@@@Z
?get_cached_table_share@@YAPAUTABLE_SHARE@@PBD0@Z
?open_ltable@@YAPAUTABLE@@PAVTHD@@PAUTABLE_LIST@@W4thr_lock_type@@I@Z
?open_table@@YA_NPAVTHD@@PAUTABLE_LIST@@PAVOpen_table_context@@@Z
?open_table_uncached@@YAPAUTABLE@@PAVTHD@@PBD11_N2@Z
?find_locked_table@@YAPAUTABLE@@PAU1@PBD1@Z
?read_lock_type_for_table@@YA?AW4thr_lock_type@@PAVTHD@@PAVQuery_tables_list@@PAUTABLE_LIST@@_N@Z
?mysql_rm_tmp_tables@@YADXZ
?rm_temporary_table@@YA_NPAUhandlerton@@PBD@Z
?close_tables_for_reopen@@YAXPAVTHD@@PAPAUTABLE_LIST@@ABVMDL_savepoint@@@Z
?find_table_in_list@@YAPAUTABLE_LIST@@PAU1@PQ1@PAU1@PBD2@Z
?find_temporary_table@@YAPAUTABLE@@PAVTHD@@PBD1@Z
?find_temporary_table@@YAPAUTABLE@@PAVTHD@@PBUTABLE_LIST@@@Z
?find_temporary_table@@YAPAUTABLE@@PAVTHD@@PBDI@Z
?close_thread_tables@@YAXPAVTHD@@@Z
?fill_record_n_invoke_before_triggers@@YA_NPAVTHD@@AAV?$List@VItem@@@@1_NPAVTable_triggers_list@@W4trg_event_type@@@Z
?fill_record_n_invoke_before_triggers@@YA_NPAVTHD@@PAPAVField@@AAV?$List@VItem@@@@_NPAVTable_triggers_list@@W4trg_event_type@@@Z
?setup_wild@@YAHPAVTHD@@PAUTABLE_LIST@@AAV?$List@VItem@@@@PAV3@I@Z
?setup_fields@@YA_NPAVTHD@@V?$Bounds_checked_array@PAVItem@@@@AAV?$List@VItem@@@@W4enum_mark_columns@@PAV3@_N@Z
?fill_record@@YA_NPAVTHD@@AAV?$List@VItem@@@@1_NPAUst_bitmap@@@Z
?fill_record@@YA_NPAVTHD@@PAPAVField@@AAV?$List@VItem@@@@_NPAUst_bitmap@@@Z
?find_field_in_tables@@YAPAVField@@PAVTHD@@PAVItem_ident@@PAUTABLE_LIST@@2PAPAVItem@@W4find_item_error_report_type@@_N5@Z
?find_field_in_table_ref@@YAPAVField@@PAVTHD@@PAUTABLE_LIST@@PBDI222PAPAVItem@@_N4PAI4PAPAU3@@Z
?find_field_in_table@@YAPAVField@@PAVTHD@@PAUTABLE@@PBDI_NPAI@Z
?find_field_in_table_sef@@YAPAVField@@PAUTABLE@@PBD@Z
?find_item_in_list@@YAPAPAVItem@@PAV1@AAV?$List@VItem@@@@PAIW4find_item_error_report_type@@PAW4enum_resolution_type@@@Z
?setup_tables@@YA_NPAVTHD@@PAUName_resolution_context@@PAV?$List@UTABLE_LIST@@@@PAUTABLE_LIST@@PAPAU4@_N@Z
?setup_tables_and_check_access@@YA_NPAVTHD@@PAUName_resolution_context@@PAV?$List@UTABLE_LIST@@@@PAUTABLE_LIST@@PAPAU4@_NKK@Z
?wait_while_table_is_used@@YA_NPAVTHD@@PAUTABLE@@W4ha_extra_function@@@Z
?drop_open_table@@YAXPAVTHD@@PAUTABLE@@PBD2@Z
?update_non_unique_table_error@@YAXPAUTABLE_LIST@@PBD0@Z
?setup_ftfuncs@@YAHPAVst_select_lex@@@Z
?init_ftfuncs@@YA_NPAVTHD@@PAVst_select_lex@@_N@Z
?lock_table_names@@YA_NPAVTHD@@PAUTABLE_LIST@@1KI@Z
?open_tables@@YA_NPAVTHD@@PAPAUTABLE_LIST@@PAIIPAVPrelocking_strategy@@@Z
?open_and_lock_tables@@YA_NPAVTHD@@PAUTABLE_LIST@@_NIPAVPrelocking_strategy@@@Z
?open_n_lock_single_table@@YAPAUTABLE@@PAVTHD@@PAUTABLE_LIST@@W4thr_lock_type@@IPAVPrelocking_strategy@@@Z
?open_normal_and_derived_tables@@YA_NPAVTHD@@PAUTABLE_LIST@@I@Z
?lock_tables@@YA_NPAVTHD@@PAUTABLE_LIST@@II@Z
?free_io_cache@@YAXPAUTABLE@@@Z
?intern_close_table@@YAXPAUTABLE@@@Z
?close_thread_table@@YAXPAVTHD@@PAPAUTABLE@@@Z
?close_temporary_tables@@YA_NPAVTHD@@@Z
?unique_table@@YAPAUTABLE_LIST@@PAVTHD@@PAU1@1_N@Z
?drop_temporary_table@@YAHPAVTHD@@PAUTABLE_LIST@@PA_N@Z
?close_temporary_table@@YAXPAVTHD@@PAUTABLE@@_N2@Z
?close_temporary@@YAXPAUTABLE@@_N1@Z
?rename_temporary_table@@YA_NPAVTHD@@PAUTABLE@@PBD2@Z
?open_temporary_tables@@YA_NPAVTHD@@PAUTABLE_LIST@@@Z
?open_temporary_table@@YA_NPAVTHD@@PAUTABLE_LIST@@@Z
?is_equal@@YA_NPBUst_mysql_lex_string@@0@Z
?open_system_tables_for_read@@YA_NPAVTHD@@PAUTABLE_LIST@@PAVOpen_tables_backup@@@Z
?close_system_tables@@YAXPAVTHD@@PAVOpen_tables_backup@@@Z
?close_mysql_tables@@YAXPAVTHD@@@Z
?open_system_table_for_update@@YAPAUTABLE@@PAVTHD@@PAUTABLE_LIST@@@Z
?open_log_table@@YAPAUTABLE@@PAVTHD@@PAUTABLE_LIST@@PAVOpen_tables_backup@@@Z
?close_log_table@@YAXPAVTHD@@PAVOpen_tables_backup@@@Z
?close_cached_tables@@YA_NPAVTHD@@PAUTABLE_LIST@@_NK@Z
?close_cached_connection_tables@@YA_NPAVTHD@@PAUst_mysql_lex_string@@@Z
?close_all_tables_for_name@@YAXPAVTHD@@PAUTABLE_SHARE@@_NPAUTABLE@@@Z
?list_open_tables@@YAPAUst_open_table_list@@PAVTHD@@PBD1@Z
?tdc_remove_table@@YAXPAVTHD@@W4enum_tdc_remove_table_type@@PBD2_N@Z
?tdc_open_view@@YA_NPAVTHD@@PAUTABLE_LIST@@PBD2II@Z
?tdc_flush_unused_tables@@YAXXZ
?find_table_for_mdl_upgrade@@YAPAUTABLE@@PAVTHD@@PBD1_N@Z
?mark_tmp_table_for_reuse@@YAXPAUTABLE@@@Z
?check_if_table_exists@@YA_NPAVTHD@@PAUTABLE_LIST@@PA_N@Z
?setup_table_map@@YAXPAUTABLE@@PAUTABLE_LIST@@I@Z
?handle_routine@DML_prelocking_strategy@@UAE_NPAVTHD@@PAVQuery_tables_list@@PAVSroutine_hash_entry@@PAVsp_head@@PA_N@Z
?handle_table@DML_prelocking_strategy@@UAE_NPAVTHD@@PAVQuery_tables_list@@PAUTABLE_LIST@@PA_N@Z
?handle_view@DML_prelocking_strategy@@UAE_NPAVTHD@@PAVQuery_tables_list@@PAUTABLE_LIST@@PA_N@Z
?handle_table@Lock_tables_prelocking_strategy@@EAE_NPAVTHD@@PAVQuery_tables_list@@PAUTABLE_LIST@@PA_N@Z
?handle_routine@Alter_table_prelocking_strategy@@UAE_NPAVTHD@@PAVQuery_tables_list@@PAVSroutine_hash_entry@@PAVsp_head@@PA_N@Z
?handle_table@Alter_table_prelocking_strategy@@UAE_NPAVTHD@@PAVQuery_tables_list@@PAUTABLE_LIST@@PA_N@Z
?handle_view@Alter_table_prelocking_strategy@@UAE_NPAVTHD@@PAVQuery_tables_list@@PAUTABLE_LIST@@PA_N@Z
??0Open_table_context@@QAE@PAVTHD@@I@Z
?recover_from_failed_open@Open_table_context@@QAE_NXZ
?request_backoff_action@Open_table_context@@QAE_NW4enum_open_table_action@1@PAUTABLE_LIST@@@Z
?can_recover_from_failed_open@Open_table_context@@QBE_NXZ
?start_of_statement_svp@Open_table_context@@QBEABVMDL_savepoint@@XZ
?get_timeout@Open_table_context@@QBEKXZ
?get_flags@Open_table_context@@QBEIXZ
?set_has_protection_against_grl@Open_table_context@@QAEXXZ
?has_protection_against_grl@Open_table_context@@QBE_NXZ
??0No_such_table_error_handler@@QAE@XZ
?handle_condition@No_such_table_error_handler@@UAE_NPAVTHD@@IPBDW4enum_warning_level@Sql_condition@@1PAPAV4@@Z
?safely_trapped_errors@No_such_table_error_handler@@QAE_NXZ
??1No_such_table_error_handler@@UAE@XZ
?is_invoked@sp_head@@QBE_NXZ
?sp_cache_version@sp_head@@QBEKXZ
?modifies_data@sp_head@@QBE_NXZ
?link_unused_table@Table_cache@@AAEXPAUTABLE@@@Z
?free_unused_tables_if_necessary@Table_cache@@AAEXPAVTHD@@@Z
?get_table@Table_cache@@QAEPAUTABLE@@PAVTHD@@IPBDIPAPAUTABLE_SHARE@@@Z
?release_table@Table_cache@@QAEXPAVTHD@@PAUTABLE@@@Z
?add_used_table@Table_cache@@QAE_NPAVTHD@@PAUTABLE@@@Z
?get_cache@Table_cache_manager@@QAEPAVTable_cache@@PAVTHD@@@Z
??0?$I_P_List_no_push_back@UTABLE@@@@IAE@PAPAUTABLE@@@Z
??0?$I_P_List@UTABLE@@U?$I_P_List_adapter@UTABLE@@$0BA@$0BE@@@VI_P_List_null_counter@@V?$I_P_List_no_push_back@UTABLE@@@@@@QAE@XZ
?push_front@?$I_P_List@UTABLE@@U?$I_P_List_adapter@UTABLE@@$0BA@$0BE@@@VI_P_List_null_counter@@V?$I_P_List_no_push_back@UTABLE@@@@@@QAEXPAUTABLE@@@Z
??0Table_cache_element@@QAE@PAUTABLE_SHARE@@@Z
??0Repair_mrg_table_error_handler@@QAE@XZ
?handle_condition@Repair_mrg_table_error_handler@@UAE_NPAVTHD@@IPBDW4enum_warning_level@Sql_condition@@1PAPAV4@@Z
?safely_trapped_errors@Repair_mrg_table_error_handler@@QAE_NXZ
??1Repair_mrg_table_error_handler@@UAE@XZ
table_def_key
??0MDL_deadlock_handler@@QAE@PAVOpen_table_context@@@Z
??1MDL_deadlock_handler@@UAE@XZ
?handle_condition@MDL_deadlock_handler@@UAE_NPAVTHD@@IPBDW4enum_warning_level@Sql_condition@@1PAPAV4@@Z
?handle_condition@MDL_deadlock_discovery_repair_handler@@UAE_NPAVTHD@@IPBDW4enum_warning_level@Sql_condition@@1PAPAV4@@Z
??0MDL_deadlock_discovery_repair_handler@@QAE@XZ
??1MDL_deadlock_discovery_repair_handler@@UAE@XZ
schema_set_get_key
?is_empty@?$I_P_List@VMDL_request@@U?$I_P_List_adapter@VMDL_request@@$07$0M@@@VI_P_List_counter@@V?$I_P_List_no_push_back@VMDL_request@@@@@@QBE_NXZ
??0?$Hash_set@UTABLE_LIST@@$1?schema_set_get_key@@YAPAEPBEPAID@Z@@QAE@XZ
??1?$Hash_set@UTABLE_LIST@@$1?schema_set_get_key@@YAPAEPBEPAID@Z@@QAE@XZ
?insert@?$Hash_set@UTABLE_LIST@@$1?schema_set_get_key@@YAPAEPBEPAID@Z@@QAE_NPAUTABLE_LIST@@@Z
??0Iterator@?$Hash_set@UTABLE_LIST@@$1?schema_set_get_key@@YAPAEPBEPAID@Z@@QAE@AAV1@@Z
??EIterator@?$Hash_set@UTABLE_LIST@@$1?schema_set_get_key@@YAPAEPBEPAID@Z@@QAEPAUTABLE_LIST@@H@Z
?concat@?$List@VNatural_join_column@@@@QAEXPAV1@@Z
??_9Item@@$BBGA@AE
?after@?$List_iterator@VItem@@@@QAEXPAVItem@@@Z
??0?$List_iterator_fast@VString@@@@QAE@AAV?$List@VString@@@@@Z
??E?$List_iterator_fast@VString@@@@QAEPAVString@@H@Z
??0?$List_iterator@VItem_func_set_user_var@@@@QAE@AAV?$List@VItem_func_set_user_var@@@@@Z
??E?$List_iterator@VItem_func_set_user_var@@@@QAEPAVItem_func_set_user_var@@H@Z
?make_leaves_list@@YAPAPAUTABLE_LIST@@PAPAU1@PAU1@@Z
??0?$List_iterator@VItem_func_match@@@@QAE@AAV?$List@VItem_func_match@@@@@Z
??E?$List_iterator@VItem_func_match@@@@QAEPAVItem_func_match@@H@Z
?rewind@?$List_iterator@VItem_func_match@@@@QAEXXZ
?mysql_global_audit_mask@@3PAKA DATA
?mysql_audit_initialize@@YAXXZ
?mysql_audit_finalize@@YAXXZ
?mysql_audit_init_thd@@YAXPAVTHD@@@Z
?mysql_audit_free_thd@@YAXPAVTHD@@@Z
?mysql_audit_acquire_plugins@@YAXPAVTHD@@I@Z
?mysql_audit_notify@@YAXPAVTHD@@IIZZ
?is_any_audit_plugin_active@@YA_NPAVTHD@@@Z
?is_global_audit_mask_set@@YA_NXZ
?mysql_audit_release@@YAXPAVTHD@@@Z
?initialize_audit_plugin@@YAHPAUst_plugin_int@@@Z
?finalize_audit_plugin@@YAHPAUst_plugin_int@@@Z
?set@Simple_cstring@@QAEXPBD@Z
??4my_decimal@@QAEAAV0@ABV0@@Z
?my_decimal_string_length@@YAHPBVmy_decimal@@@Z
?binary2my_decimal@@YAHIPBEPAVmy_decimal@@HH@Z
?my_decimal_round@@YAHIPBVmy_decimal@@H_NPAV1@@Z
?my_decimal2double@@YAHIPBVmy_decimal@@PAN@Z
?int2my_decimal@@YAHI_JDPAVmy_decimal@@@Z
?my_decimal_add@@YAHIPAVmy_decimal@@PBV1@1@Z
?my_decimal_sub@@YAHIPAVmy_decimal@@PBV1@1@Z
?my_decimal_mul@@YAHIPAVmy_decimal@@PBV1@1@Z
?my_decimal_div@@YAHIPAVmy_decimal@@PBV1@1H@Z
??$max@N@std@@YAABNABN0@Z
??0Item_proc@@QAE@PBD@Z
?type@Item_proc@@UBE?AW4Type@Item@@XZ
?set@Item_proc@@QAEXPBD@Z
??1Item_proc@@UAE@XZ
??0Item_proc_int@@QAE@PBD@Z
?result_type@Item_proc_int@@UBE?AW4Item_result@@XZ
?field_type@Item_proc_int@@UBE?AW4enum_field_types@@XZ
?set@Item_proc_int@@UAEX_J@Z
?set@Item_proc_int@@UAEXPBDIPBUcharset_info_st@@@Z
?val_real@Item_proc_int@@UAENXZ
?val_int@Item_proc_int@@UAE_JXZ
?val_str@Item_proc_int@@UAEPAVString@@PAV2@@Z
?get_date@Item_proc_int@@UAE_NPAUst_mysql_time@@I@Z
?get_time@Item_proc_int@@UAE_NPAUst_mysql_time@@@Z
??1Item_proc_int@@UAE@XZ
??0Item_proc_string@@QAE@PBDI@Z
?result_type@Item_proc_string@@UBE?AW4Item_result@@XZ
?field_type@Item_proc_string@@UBE?AW4enum_field_types@@XZ
?set@Item_proc_string@@UAEX_J@Z
?set@Item_proc_string@@UAEXPBDIPBUcharset_info_st@@@Z
?val_real@Item_proc_string@@UAENXZ
?val_int@Item_proc_string@@UAE_JXZ
?get_date@Item_proc_string@@UAE_NPAUst_mysql_time@@I@Z
?get_time@Item_proc_string@@UAE_NPAUst_mysql_time@@@Z
?val_str@Item_proc_string@@UAEPAVString@@PAV2@@Z
??1Item_proc_string@@UAE@XZ
?check_ulonglong@@YAIPBDI@Z
?get_ev_num_info@@YA_NPAUst_extreme_value_number_info@@PAUst_number_info@@PBD@Z
?test_if_number@@YA_NPAUst_number_info@@PBDI@Z
?compare_double@@YAHPBN0@Z
?compare_double2@@YAHPAXPBN1@Z
?compare_longlong@@YAHPB_J0@Z
?compare_longlong2@@YAHPAXPB_J1@Z
?compare_ulonglong@@YAHPB_K0@Z
?compare_ulonglong2@@YAHPAXPB_K1@Z
?compare_decimal2@@YAHPAHPBD1@Z
?free_string@@YAXPAVString@@@Z
??0field_info@@QAE@PAVItem@@PAVselect_analyse@@@Z
??1field_info@@UAE@XZ
?decimals@field_info@@UAEIXZ
?collect_string@@YAHPAVString@@IPAUst_tree_info@@@Z
?sortcmp2@@YAHPAXPBVString@@1@Z
??0field_str@@QAE@PAVItem@@PAVselect_analyse@@@Z
?add@field_str@@UAEXXZ
?get_opt_type@field_str@@UAEXPAVString@@_K@Z
?get_min_arg@field_str@@UAEPAVString@@PAV2@@Z
?get_max_arg@field_str@@UAEPAVString@@PAV2@@Z
?avg@field_str@@UAEPAVString@@PAV2@_K@Z
?collect_enum@field_str@@UAEP6AHPAXI0@ZXZ
?std@field_str@@UAEPAVString@@PAV2@_K@Z
??1field_str@@UAE@XZ
?collect_decimal@@YAHPAEIPAUst_tree_info@@@Z
??0field_decimal@@QAE@PAVItem@@PAVselect_analyse@@@Z
?add@field_decimal@@UAEXXZ
?get_opt_type@field_decimal@@UAEXPAVString@@_K@Z
?get_min_arg@field_decimal@@UAEPAVString@@PAV2@@Z
?get_max_arg@field_decimal@@UAEPAVString@@PAV2@@Z
?avg@field_decimal@@UAEPAVString@@PAV2@_K@Z
?collect_enum@field_decimal@@UAEP6AHPAXI0@ZXZ
?std@field_decimal@@UAEPAVString@@PAV2@_K@Z
??1field_decimal@@UAE@XZ
?collect_real@@YAHPANIPAUst_tree_info@@@Z
??0field_real@@QAE@PAVItem@@PAVselect_analyse@@@Z
?add@field_real@@UAEXXZ
?get_opt_type@field_real@@UAEXPAVString@@_K@Z
?get_min_arg@field_real@@UAEPAVString@@PAV2@@Z
?get_max_arg@field_real@@UAEPAVString@@PAV2@@Z
?avg@field_real@@UAEPAVString@@PAV2@_K@Z
?std@field_real@@UAEPAVString@@PAV2@_K@Z
?decimals@field_real@@UAEIXZ
?collect_enum@field_real@@UAEP6AHPAXI0@ZXZ
??1field_real@@UAE@XZ
?collect_longlong@@YAHPA_JIPAUst_tree_info@@@Z
??0field_longlong@@QAE@PAVItem@@PAVselect_analyse@@@Z
?add@field_longlong@@UAEXXZ
?get_opt_type@field_longlong@@UAEXPAVString@@_K@Z
?get_min_arg@field_longlong@@UAEPAVString@@PAV2@@Z
?get_max_arg@field_longlong@@UAEPAVString@@PAV2@@Z
?avg@field_longlong@@UAEPAVString@@PAV2@_K@Z
?std@field_longlong@@UAEPAVString@@PAV2@_K@Z
?collect_enum@field_longlong@@UAEP6AHPAXI0@ZXZ
??1field_longlong@@UAE@XZ
?collect_ulonglong@@YAHPA_KIPAUst_tree_info@@@Z
??0field_ulonglong@@QAE@PAVItem@@PAVselect_analyse@@@Z
?add@field_ulonglong@@UAEXXZ
?get_opt_type@field_ulonglong@@UAEXPAVString@@_K@Z
?get_min_arg@field_ulonglong@@UAEPAVString@@PAV2@@Z
?get_max_arg@field_ulonglong@@UAEPAVString@@PAV2@@Z
?avg@field_ulonglong@@UAEPAVString@@PAV2@_K@Z
?std@field_ulonglong@@UAEPAVString@@PAV2@_K@Z
?collect_enum@field_ulonglong@@UAEP6AHPAXI0@ZXZ
??1field_ulonglong@@UAE@XZ
?cleanup@select_analyse@@UAEXXZ
?send_result_set_metadata@select_analyse@@UAE_NAAV?$List@VItem@@@@I@Z
?send_data@select_analyse@@UAE_NAAV?$List@VItem@@@@@Z
?send_eof@select_analyse@@UAE_NXZ
?abort_result_set@select_analyse@@UAEXXZ
?init@select_analyse@@AAE_NAAV?$List@VItem@@@@@Z
?change_columns@select_analyse@@AAE_NXZ
?append_escaped@@YA_NPAVString@@0@Z
??$max@_J@std@@YAAB_JAB_J0@Z
??$min@H@std@@YAABHABH0@Z
??$_Debug_lt@HH@std@@YA_NABH0PB_WI@Z
??0?$List@VString@@@@QAE@ABV0@@Z
?clone@Create_field@@QBEPAV1@PAUst_mem_root@@@Z
??0Create_field@@QAE@ABV0@@Z
?clone@Alter_drop@@QBEPAV1@PAUst_mem_root@@@Z
?clone@Alter_column@@QBEPAV1@PAUst_mem_root@@@Z
??0?$List@VAlter_drop@@@@QAE@ABV0@PAUst_mem_root@@@Z
??0?$List@VAlter_column@@@@QAE@ABV0@PAUst_mem_root@@@Z
??0?$List@VKey@@@@QAE@ABV0@PAUst_mem_root@@@Z
??0?$List@VCreate_field@@@@QAE@ABV0@PAUst_mem_root@@@Z
??0?$List@D@@QAE@ABV0@PAUst_mem_root@@@Z
??0Alter_info@@QAE@ABV0@PAUst_mem_root@@@Z
?set_requested_algorithm@Alter_info@@QAE_NPBUst_mysql_lex_string@@@Z
?set_requested_lock@Alter_info@@QAE_NPBUst_mysql_lex_string@@@Z
??0Alter_table_ctx@@QAE@XZ
??0Alter_table_ctx@@QAE@PAVTHD@@PAUTABLE_LIST@@IPAD2@Z
?execute@Sql_cmd_alter_table@@UAE_NPAVTHD@@@Z
?execute@Sql_cmd_discard_import_tablespace@@UAE_NPAVTHD@@@Z
??$list_copy_and_replace_each_value@VAlter_drop@@@@YAXAAV?$List@VAlter_drop@@@@PAUst_mem_root@@@Z
??$list_copy_and_replace_each_value@VAlter_column@@@@YAXAAV?$List@VAlter_column@@@@PAUst_mem_root@@@Z
??$list_copy_and_replace_each_value@VKey@@@@YAXAAV?$List@VKey@@@@PAUst_mem_root@@@Z
??$list_copy_and_replace_each_value@VCreate_field@@@@YAXAAV?$List@VCreate_field@@@@PAUst_mem_root@@@Z
?replace@?$List_iterator@VAlter_drop@@@@QAEPAVAlter_drop@@PAV2@@Z
?replace@?$List_iterator@VAlter_column@@@@QAEPAVAlter_column@@PAV2@@Z
?replace@?$List_iterator@VKey@@@@QAEPAVKey@@PAV2@@Z
sql_alloc_error_handler
?is_ok@Diagnostics_area@@QBE_NXZ
?mysql_assign_to_keycache@@YA_NPAVTHD@@PAUTABLE_LIST@@PAUst_mysql_lex_string@@@Z
?mysql_preload_keys@@YA_NPAVTHD@@PAUTABLE_LIST@@@Z
?execute@Sql_cmd_analyze_table@@UAE_NPAVTHD@@@Z
?execute@Sql_cmd_check_table@@UAE_NPAVTHD@@@Z
?execute@Sql_cmd_optimize_table@@UAE_NPAVTHD@@@Z
?execute@Sql_cmd_repair_table@@UAE_NPAVTHD@@@Z
??_9handler@@$BBAA@AE
??_9handler@@$BBAE@AE
?mysql_db_table_def@@3Ust_table_field_def@@B DATA
?mysql_user_table_is_in_short_password_format@@3_NA DATA
?disconnect_on_expired_password@@3DA DATA
?command_array@@3PAPBDA DATA
?command_lengths@@3PAIA DATA
?validate_user_plugins@@3DA DATA
?sha256_password_plugin_name@@3Ust_mysql_lex_string@@A DATA
?default_auth_plugin_name@@3Ust_mysql_lex_string@@A DATA
builtin_mysql_password_plugin_interface_version DATA
builtin_mysql_password_sizeof_struct_st_plugin DATA
?memchr@@YAPAXPAXHI@Z
?push_back@?$List@Ust_lex_user@@@@QAE_NPAUst_lex_user@@@Z
?priv_host_name@Security_context@@QAEPADXZ
?handle_condition@Dummy_error_handler@@UAE_NPAVTHD@@IPBDW4enum_warning_level@Sql_condition@@1PAPAV4@@Z
??0Dummy_error_handler@@QAE@XZ
??1Dummy_error_handler@@UAE@XZ
?hostname_requires_resolving@@YA_NPBD@Z
?append_user@@YAXPAVTHD@@PAVString@@PAUst_lex_user@@_N3@Z
?acl_init@@YAD_N@Z
?acl_reload@@YADPAVTHD@@@Z
?acl_free@@YAX_N@Z
?acl_get@@YAKPBD000D@Z
?acl_authenticate@@YAHPAVTHD@@I@Z
?acl_getroot@@YA_NPAVSecurity_context@@PAD111@Z
?acl_check_host@@YA_NPBD0@Z
?check_change_password@@YAHPAVTHD@@PBD1PADI@Z
?change_password@@YA_NPAVTHD@@PBD1PAD@Z
?mysql_grant@@YA_NPAVTHD@@PBDAAV?$List@Ust_lex_user@@@@K_N3@Z
?mysql_table_grant@@YAHPAVTHD@@PAUTABLE_LIST@@AAV?$List@Ust_lex_user@@@@AAV?$List@VLEX_COLUMN@@@@K_N@Z
?mysql_routine_grant@@YA_NPAVTHD@@PAUTABLE_LIST@@_NAAV?$List@Ust_lex_user@@@@K22@Z
?grant_init@@YADXZ
?grant_free@@YAXXZ
?grant_reload@@YADPAVTHD@@@Z
?check_grant@@YA_NPAVTHD@@KPAUTABLE_LIST@@_NI2@Z
?check_grant_column@@YA_NPAVTHD@@PAUst_grant_info@@PBD22IPAVSecurity_context@@@Z
?check_column_grant_in_table_ref@@YA_NPAVTHD@@PAUTABLE_LIST@@PBDI@Z
?check_grant_all_columns@@YA_NPAVTHD@@KPAVField_iterator_table_ref@@@Z
?check_grant_routine@@YA_NPAVTHD@@KPAUTABLE_LIST@@_N2@Z
?check_grant_db@@YA_NPAVTHD@@PBD@Z
?get_table_grant@@YAKPAVTHD@@PAUTABLE_LIST@@@Z
?get_column_grant@@YAKPAVTHD@@PAUst_grant_info@@PBD22@Z
?mysql_show_grants@@YA_NPAVTHD@@PAUst_lex_user@@@Z
?get_privilege_desc@@YAXPADIK@Z
?get_mqh@@YAXPBD0PAUuser_conn@@@Z
?mysql_create_user@@YA_NPAVTHD@@AAV?$List@Ust_lex_user@@@@@Z
?mysql_drop_user@@YA_NPAVTHD@@AAV?$List@Ust_lex_user@@@@@Z
?mysql_rename_user@@YA_NPAVTHD@@AAV?$List@Ust_lex_user@@@@@Z
?mysql_user_password_expire@@YA_NPAVTHD@@AAV?$List@Ust_lex_user@@@@@Z
?mysql_revoke_all@@YA_NPAVTHD@@AAV?$List@Ust_lex_user@@@@@Z
?fill_effective_table_privileges@@YAXPAVTHD@@PAUst_grant_info@@PBD2@Z
?sp_revoke_privileges@@YA_NPAVTHD@@PBD1_N@Z
?sp_grant_privileges@@YA_NPAVTHD@@PBD1_N@Z
?check_routine_level_acl@@YA_NPAVTHD@@PBD1_N@Z
?is_acl_user@@YA_NPBD0@Z
?fill_schema_user_privileges@@YAHPAVTHD@@PAUTABLE_LIST@@PAVItem@@@Z
?fill_schema_schema_privileges@@YAHPAVTHD@@PAUTABLE_LIST@@PAVItem@@@Z
?fill_schema_table_privileges@@YAHPAVTHD@@PAUTABLE_LIST@@PAVItem@@@Z
?fill_schema_column_privileges@@YAHPAVTHD@@PAUTABLE_LIST@@PAVItem@@@Z
?wild_case_compare@@YAHPAUcharset_info_st@@PBD1@Z
?digest_password@@YAHPAVTHD@@PAUst_lex_user@@@Z
?check_password_strength@@YAHPAVString@@@Z
?check_password_policy@@YAHPAVString@@@Z
?close_acl_tables@@YAXPAVTHD@@@Z
?register_schema@ACL_internal_schema_registry@@SAXPBUst_mysql_lex_string@@PBVACL_internal_schema_access@@@Z
?lookup@ACL_internal_schema_registry@@SAPBVACL_internal_schema_access@@PBD@Z
?get_cached_schema_access@@YAPBVACL_internal_schema_access@@PAUst_grant_internal_info@@PBD@Z
?get_cached_table_access@@YAPBVACL_internal_table_access@@PAUst_grant_internal_info@@PBD1@Z
?acl_check_proxy_grant_access@@YA_NPAVTHD@@PBD1_N@Z
?init_default_auth_plugin@@YAXXZ
?set_default_auth_plugin@@YAHPADH@Z
??0hash_filo@@QAE@IIIP6APAEPBEPAID@ZP6AXPAX@ZPAUcharset_info_st@@@Z
??1hash_filo@@QAE@XZ
?clear@hash_filo@@QAEX_N@Z
?search@hash_filo@@QAEPAUhash_filo_element@@PAEI@Z
?add@hash_filo@@QAEDPAUhash_filo_element@@@Z
?auth_plugin_is_built_in@@YA_NPBD@Z
?auth_plugin_supports_expiration@@YA_NPBD@Z
?optimize_plugin_compare_by_pointer@@YAXPAUst_mysql_lex_string@@@Z
?calc_ip@ACL_HOST_AND_IP@@AAEPBDPBDPAJD@Z
?get_host@ACL_HOST_AND_IP@@QBEPBDXZ
?get_host_len@ACL_HOST_AND_IP@@QAEHXZ
?has_wildcard@ACL_HOST_AND_IP@@QAE_NXZ
?check_allow_all_hosts@ACL_HOST_AND_IP@@QAE_NXZ
?update_hostname@ACL_HOST_AND_IP@@QAEXPBD@Z
?compare_hostname@ACL_HOST_AND_IP@@QAE_NPBD0@Z
?copy@ACL_USER@@QAEPAV1@PAUst_mem_root@@@Z
??0ACL_PROXY_USER@@QAE@XZ
?init@ACL_PROXY_USER@@QAEXPBD000_N@Z
?init@ACL_PROXY_USER@@QAEXPAUst_mem_root@@PBD111_N@Z
?init@ACL_PROXY_USER@@QAEXPAUTABLE@@PAUst_mem_root@@@Z
?get_with_grant@ACL_PROXY_USER@@QAE_NXZ
?get_user@ACL_PROXY_USER@@QAEPBDXZ
?get_proxied_host@ACL_PROXY_USER@@QAEPBDXZ
?set_user@ACL_PROXY_USER@@QAEXPAUst_mem_root@@PBD@Z
?check_validity@ACL_PROXY_USER@@QAE_N_N@Z
?matches@ACL_PROXY_USER@@QAE_NPBD000@Z
?auth_element_equals@ACL_PROXY_USER@@SA_NPBD0@Z
?pk_equals@ACL_PROXY_USER@@QAE_NPAV1@@Z
?granted_on@ACL_PROXY_USER@@QAE_NPBD0@Z
?print_grant@ACL_PROXY_USER@@QAEXPAVString@@@Z
?set_data@ACL_PROXY_USER@@QAEXPAV1@@Z
?store_pk@ACL_PROXY_USER@@SAHPAUTABLE@@PBUst_mysql_lex_string@@111@Z
?store_data_record@ACL_PROXY_USER@@SAHPAUTABLE@@PBUst_mysql_lex_string@@111_NPBD@Z
?report_error@Acl_table_intact@@MAAXIPBDZZ
??0Acl_table_intact@@QAE@XZ
??1Acl_table_intact@@UAE@XZ
?escape_string_mysql@@YAKPAVTHD@@PADPBDK@Z
??0GRANT_COLUMN@@QAE@AAVString@@K@Z
??0GRANT_NAME@@QAE@PBD000K_N@Z
??0GRANT_NAME@@QAE@PAUTABLE@@_N@Z
??1GRANT_NAME@@UAE@XZ
?ok@GRANT_NAME@@UAE_NXZ
?set_user_details@GRANT_NAME@@QAEXPBD000_N@Z
??0GRANT_TABLE@@QAE@PBD000KK@Z
??0GRANT_TABLE@@QAE@PAUTABLE@@0@Z
??1GRANT_TABLE@@UAE@XZ
?ok@GRANT_TABLE@@UAE_NXZ
?free_grant_table@@YAXPAVGRANT_TABLE@@@Z
?routine_hash_search@@YAPAVGRANT_NAME@@PBD0000_N1@Z
?table_hash_search@@YAPAVGRANT_TABLE@@PBD0000_N@Z
?column_hash_search@@YAPAVGRANT_COLUMN@@PAVGRANT_TABLE@@PBDI@Z
??0?$Dynamic_array@PAVGRANT_NAME@@@@QAE@II@Z
?init@?$Dynamic_array@PAVGRANT_NAME@@@@QAEXII@Z
?at@?$Dynamic_array@PAVGRANT_NAME@@@@QAEAAPAVGRANT_NAME@@H@Z
?append@?$Dynamic_array@PAVGRANT_NAME@@@@QAE_NABQAVGRANT_NAME@@@Z
?elements@?$Dynamic_array@PAVGRANT_NAME@@@@QBEHXZ
??1?$Dynamic_array@PAVGRANT_NAME@@@@QAE@XZ
??0Silence_routine_definer_errors@@QAE@XZ
??1Silence_routine_definer_errors@@UAE@XZ
?handle_condition@Silence_routine_definer_errors@@UAE_NPAVTHD@@IPBDW4enum_warning_level@Sql_condition@@1PAPAV4@@Z
?has_errors@Silence_routine_definer_errors@@QAE_NXZ
??0Thd_charset_adapter@@QAE@PAVTHD@@@Z
?init_client_charset@Thd_charset_adapter@@QAE_NI@Z
?charset@Thd_charset_adapter@@QAEPBUcharset_info_st@@XZ
?can_authenticate@MPVIO_EXT@@QAE_NXZ
?decoy_user@@YAPAVACL_USER@@ABUst_mysql_lex_string@@PAUst_mem_root@@@Z
?assign_priv_user_host@@YAXPAVSecurity_context@@PBVACL_USER@@@Z
?my_vio_is_encrypted@@YAHPAUst_plugin_vio@@@Z
?init_sha256_password_handler@@YAHPAX@Z
builtin_mysql_password_plugin DATA
mysql_string_convert_to_char_ptr
mysql_string_get_iterator
mysql_string_iterator_next
mysql_string_iterator_isupper
mysql_string_iterator_islower
mysql_string_iterator_isdigit
mysql_string_to_lowercase
mysql_string_free
mysql_string_iterator_free
??3String@@SAXPAXI@Z
?ci_collection@Geometry@@2PAPAVClass_info@1@A DATA
?pow@@YANNH@Z
??$_Pow_int@N@@YANNH@Z
?q_append@String@@QAEXD@Z
?q_append@String@@QAEXI@Z
?q_append@String@@QAEXN@Z
?q_append@String@@QAEXPBDI@Z
?write_at_position@String@@QAEXHI@Z
?qs_append@String@@QAEXD@Z
?append@String@@QAE_NPBDII@Z
?skip_space@Gis_read_stream@@QAEXXZ
?skip_char@Gis_read_stream@@QAE_ND@Z
??0Gcalc_shape_status@@QAE@XZ
?result@Gcalc_result_receiver@@QAEPBDXZ
?length@Gcalc_result_receiver@@QAEIXZ
??0point_xy@@QAE@XZ
??0point_xy@@QAE@NN@Z
?distance@point_xy@@QAENV1@@Z
?eq@point_xy@@QAE_NV1@@Z
??0MBR@@QAE@XZ
?add_xy@MBR@@QAEXNN@Z
?add_xy@MBR@@QAEXVpoint_xy@@@Z
?add_xy@MBR@@QAEXPBD0@Z
??0Geometry@@QAE@XZ
??1Geometry@@UAE@XZ
??2Geometry@@SAPAXIPAX@Z
??3Geometry@@SAXPAX0@Z
??3Geometry@@SAXPAX@Z
??0wkb_container@Geometry@@QAE@XZ
?set@wkb_container@Geometry@@QAEXPBD0@Z
?data@wkb_container@Geometry@@QBEPBDXZ
?no_data@wkb_container@Geometry@@QBE_NI@Z
?not_enough_points@wkb_container@Geometry@@QBE_NII@Z
?get_uint4@wkb_parser@Geometry@@AAEXPAI@Z
?get_float8@wkb_parser@Geometry@@AAEXPAN@Z
??0wkb_parser@Geometry@@QAE@PBVwkb_container@1@@Z
?skip_unsafe@wkb_parser@Geometry@@QAEXI@Z
?skip@wkb_parser@Geometry@@QAE_NI@Z
?skip_wkb_header@wkb_parser@Geometry@@QAE_NXZ
?skip_coord@wkb_parser@Geometry@@QAE_NXZ
?scan_wkb_header@wkb_parser@Geometry@@QAE_NPAUwkb_header_st@@@Z
?scan_uint4@wkb_parser@Geometry@@QAE_NPAI@Z
?scan_non_zero_uint4@wkb_parser@Geometry@@QAE_NPAI@Z
?scan_n_points_and_check_data@wkb_parser@Geometry@@QAE_NPAII@Z
?scan_xy_unsafe@wkb_parser@Geometry@@QAEXPAVpoint_xy@@@Z
?scan_xy@wkb_parser@Geometry@@QAE_NPAVpoint_xy@@@Z
?scan_coord@wkb_parser@Geometry@@QAE_NPAN@Z
??0Class_info@Geometry@@QAE@PBDHP6APAV1@PAD@Z@Z
?init_from_opresult@Geometry@@UAEIPAVString@@PBDI@Z
?dimension@Geometry@@UBE_NPAIPAVwkb_parser@1@@Z
?get_x@Geometry@@UBEHPAN@Z
?get_y@Geometry@@UBEHPAN@Z
?geom_length@Geometry@@UBEHPAN@Z
?area@Geometry@@UBE_NPANPAVwkb_parser@1@@Z
?is_closed@Geometry@@UBEHPAH@Z
?num_interior_ring@Geometry@@UBEHPAI@Z
?num_points@Geometry@@UBEHPAI@Z
?num_geometries@Geometry@@UBEHPAI@Z
?start_point@Geometry@@UBEHPAVString@@@Z
?end_point@Geometry@@UBEHPAVString@@@Z
?exterior_ring@Geometry@@UBEHPAVString@@@Z
?centroid@Geometry@@UBEHPAVString@@@Z
?point_n@Geometry@@UBEHIPAVString@@@Z
?interior_ring_n@Geometry@@UBEHIPAVString@@@Z
?geometry_n@Geometry@@UBEHIPAVString@@@Z
?create_by_typeid@Geometry@@SAPAV1@PAUGeometry_buffer@@H@Z
?scan_header_and_create@Geometry@@SAPAV1@PAVwkb_parser@1@PAUGeometry_buffer@@@Z
?construct@Geometry@@SAPAV1@PAUGeometry_buffer@@PBDI@Z
?create_from_wkt@Geometry@@SAPAV1@PAUGeometry_buffer@@PAVGis_read_stream@@PAVString@@_N@Z
?create_from_wkb@Geometry@@SAPAV1@PAUGeometry_buffer@@PBDIPAVString@@@Z
?create_from_opresult@Geometry@@SAHPAUGeometry_buffer@@PAVString@@AAVGcalc_result_receiver@@@Z
?as_wkt@Geometry@@QAE_NPAVString@@PAVwkb_parser@1@@Z
?set_data_ptr@Geometry@@QAEXPBDI@Z
?set_data_ptr@Geometry@@QAEXPBVwkb_container@1@@Z
?envelope@Geometry@@QBE_NPAVString@@@Z
?find_class@Geometry@@KAPAVClass_info@1@H@Z
?find_class@Geometry@@KAPAVClass_info@1@PBDI@Z
?append_points@Geometry@@IBEXPAVString@@IPAVwkb_parser@1@I@Z
?create_point@Geometry@@IBE_NPAVString@@PAVwkb_parser@1@@Z
?create_point@Geometry@@IBE_NPAVString@@Vpoint_xy@@@Z
?get_mbr_for_points@Geometry@@IBE_NPAUMBR@@PAVwkb_parser@1@I@Z
?collection_store_shapes@Geometry@@IBEHPAVGcalc_shape_transporter@@PAVGcalc_shape_status@@PAV1@@Z
?collection_area@Geometry@@IBE_NPANPAVwkb_parser@1@PAV1@@Z
?collection_init_from_opresult@Geometry@@IAEIPAVString@@PBDIPAV1@@Z
??0Gis_point@@QAE@XZ
??1Gis_point@@UAE@XZ
?get_data_size@Gis_point@@UBEIXZ
?init_from_wkt@Gis_point@@UAE_NPAVGis_read_stream@@PAVString@@@Z
?init_from_wkb@Gis_point@@UAEIPBDIW4wkbByteOrder@Geometry@@PAVString@@@Z
?get_data_as_wkt@Gis_point@@UBE_NPAVString@@PAVwkb_parser@Geometry@@@Z
?get_mbr@Gis_point@@UBE_NPAUMBR@@PAVwkb_parser@Geometry@@@Z
?get_x@Gis_point@@UBEHPAN@Z
?get_y@Gis_point@@UBEHPAN@Z
?feature_dimension@Gis_point@@UBEIXZ
?store_shapes@Gis_point@@UBEHPAVGcalc_shape_transporter@@PAVGcalc_shape_status@@@Z
?get_class_info@Gis_point@@UBEPBVClass_info@Geometry@@XZ
??0Gis_line_string@@QAE@XZ
??1Gis_line_string@@UAE@XZ
?get_data_size@Gis_line_string@@UBEIXZ
?init_from_wkt@Gis_line_string@@UAE_NPAVGis_read_stream@@PAVString@@@Z
?init_from_wkb@Gis_line_string@@UAEIPBDIW4wkbByteOrder@Geometry@@PAVString@@@Z
?get_data_as_wkt@Gis_line_string@@UBE_NPAVString@@PAVwkb_parser@Geometry@@@Z
?get_mbr@Gis_line_string@@UBE_NPAUMBR@@PAVwkb_parser@Geometry@@@Z
?geom_length@Gis_line_string@@UBEHPAN@Z
?is_closed@Gis_line_string@@UBEHPAH@Z
?num_points@Gis_line_string@@UBEHPAI@Z
?start_point@Gis_line_string@@UBEHPAVString@@@Z
?end_point@Gis_line_string@@UBEHPAVString@@@Z
?point_n@Gis_line_string@@UBEHIPAVString@@@Z
?feature_dimension@Gis_line_string@@UBEIXZ
?store_shapes@Gis_line_string@@UBEHPAVGcalc_shape_transporter@@PAVGcalc_shape_status@@@Z
?get_class_info@Gis_line_string@@UBEPBVClass_info@Geometry@@XZ
??0Gis_polygon@@QAE@XZ
??1Gis_polygon@@UAE@XZ
?get_data_size@Gis_polygon@@UBEIXZ
?init_from_wkt@Gis_polygon@@UAE_NPAVGis_read_stream@@PAVString@@@Z
?init_from_wkb@Gis_polygon@@UAEIPBDIW4wkbByteOrder@Geometry@@PAVString@@@Z
?init_from_opresult@Gis_polygon@@UAEIPAVString@@PBDI@Z
?get_data_as_wkt@Gis_polygon@@UBE_NPAVString@@PAVwkb_parser@Geometry@@@Z
?get_mbr@Gis_polygon@@UBE_NPAUMBR@@PAVwkb_parser@Geometry@@@Z
?area@Gis_polygon@@UBE_NPANPAVwkb_parser@Geometry@@@Z
?exterior_ring@Gis_polygon@@UBEHPAVString@@@Z
?num_interior_ring@Gis_polygon@@UBEHPAI@Z
?interior_ring_n@Gis_polygon@@UBEHIPAVString@@@Z
?centroid_xy@Gis_polygon@@QBE_NPAVpoint_xy@@@Z
?centroid@Gis_polygon@@UBEHPAVString@@@Z
?feature_dimension@Gis_polygon@@UBEIXZ
?store_shapes@Gis_polygon@@UBEHPAVGcalc_shape_transporter@@PAVGcalc_shape_status@@@Z
?get_class_info@Gis_polygon@@UBEPBVClass_info@Geometry@@XZ
??0Gis_multi_point@@QAE@XZ
??1Gis_multi_point@@UAE@XZ
?get_data_size@Gis_multi_point@@UBEIXZ
?init_from_wkt@Gis_multi_point@@UAE_NPAVGis_read_stream@@PAVString@@@Z
?init_from_wkb@Gis_multi_point@@UAEIPBDIW4wkbByteOrder@Geometry@@PAVString@@@Z
?init_from_opresult@Gis_multi_point@@UAEIPAVString@@PBDI@Z
?get_data_as_wkt@Gis_multi_point@@UBE_NPAVString@@PAVwkb_parser@Geometry@@@Z
?get_mbr@Gis_multi_point@@UBE_NPAUMBR@@PAVwkb_parser@Geometry@@@Z
?num_geometries@Gis_multi_point@@UBEHPAI@Z
?geometry_n@Gis_multi_point@@UBEHIPAVString@@@Z
?feature_dimension@Gis_multi_point@@UBEIXZ
?store_shapes@Gis_multi_point@@UBEHPAVGcalc_shape_transporter@@PAVGcalc_shape_status@@@Z
?get_class_info@Gis_multi_point@@UBEPBVClass_info@Geometry@@XZ
??0Gis_multi_line_string@@QAE@XZ
??1Gis_multi_line_string@@UAE@XZ
?get_data_size@Gis_multi_line_string@@UBEIXZ
?init_from_wkt@Gis_multi_line_string@@UAE_NPAVGis_read_stream@@PAVString@@@Z
?init_from_wkb@Gis_multi_line_string@@UAEIPBDIW4wkbByteOrder@Geometry@@PAVString@@@Z
?init_from_opresult@Gis_multi_line_string@@UAEIPAVString@@PBDI@Z
?get_data_as_wkt@Gis_multi_line_string@@UBE_NPAVString@@PAVwkb_parser@Geometry@@@Z
?get_mbr@Gis_multi_line_string@@UBE_NPAUMBR@@PAVwkb_parser@Geometry@@@Z
?num_geometries@Gis_multi_line_string@@UBEHPAI@Z
?geometry_n@Gis_multi_line_string@@UBEHIPAVString@@@Z
?geom_length@Gis_multi_line_string@@UBEHPAN@Z
?is_closed@Gis_multi_line_string@@UBEHPAH@Z
?feature_dimension@Gis_multi_line_string@@UBEIXZ
?store_shapes@Gis_multi_line_string@@UBEHPAVGcalc_shape_transporter@@PAVGcalc_shape_status@@@Z
?get_class_info@Gis_multi_line_string@@UBEPBVClass_info@Geometry@@XZ
??0Gis_multi_polygon@@QAE@XZ
??1Gis_multi_polygon@@UAE@XZ
?get_data_size@Gis_multi_polygon@@UBEIXZ
?init_from_wkt@Gis_multi_polygon@@UAE_NPAVGis_read_stream@@PAVString@@@Z
?init_from_wkb@Gis_multi_polygon@@UAEIPBDIW4wkbByteOrder@Geometry@@PAVString@@@Z
?get_data_as_wkt@Gis_multi_polygon@@UBE_NPAVString@@PAVwkb_parser@Geometry@@@Z
?get_mbr@Gis_multi_polygon@@UBE_NPAUMBR@@PAVwkb_parser@Geometry@@@Z
?num_geometries@Gis_multi_polygon@@UBEHPAI@Z
?geometry_n@Gis_multi_polygon@@UBEHIPAVString@@@Z
?area@Gis_multi_polygon@@UBE_NPANPAVwkb_parser@Geometry@@@Z
?centroid@Gis_multi_polygon@@UBEHPAVString@@@Z
?feature_dimension@Gis_multi_polygon@@UBEIXZ
?store_shapes@Gis_multi_polygon@@UBEHPAVGcalc_shape_transporter@@PAVGcalc_shape_status@@@Z
?get_class_info@Gis_multi_polygon@@UBEPBVClass_info@Geometry@@XZ
?init_from_opresult@Gis_multi_polygon@@UAEIPAVString@@PBDI@Z
??0Gis_geometry_collection@@QAE@XZ
??1Gis_geometry_collection@@UAE@XZ
?get_data_size@Gis_geometry_collection@@UBEIXZ
?init_from_wkt@Gis_geometry_collection@@UAE_NPAVGis_read_stream@@PAVString@@@Z
?init_from_wkb@Gis_geometry_collection@@UAEIPBDIW4wkbByteOrder@Geometry@@PAVString@@@Z
?init_from_opresult@Gis_geometry_collection@@UAEIPAVString@@PBDI@Z
?get_data_as_wkt@Gis_geometry_collection@@UBE_NPAVString@@PAVwkb_parser@Geometry@@@Z
?get_mbr@Gis_geometry_collection@@UBE_NPAUMBR@@PAVwkb_parser@Geometry@@@Z
?area@Gis_geometry_collection@@UBE_NPANPAVwkb_parser@Geometry@@@Z
?num_geometries@Gis_geometry_collection@@UBEHPAI@Z
?geometry_n@Gis_geometry_collection@@UBEHIPAVString@@@Z
?dimension@Gis_geometry_collection@@UBE_NPAIPAVwkb_parser@Geometry@@@Z
?feature_dimension@Gis_geometry_collection@@UBEIXZ
?store_shapes@Gis_geometry_collection@@UBEHPAVGcalc_shape_transporter@@PAVGcalc_shape_status@@@Z
?get_class_info@Gis_geometry_collection@@UBEPBVClass_info@Geometry@@XZ
?bad_geometry_data@Geometry@@2VString@@A DATA
?mark_sql_conditions_for_removal@Diagnostics_area@@QAEXXZ
?get_error_condition@Diagnostics_area@@QBEPBVSql_condition@@XZ
?reset@?$Bounds_checked_array@PAVItem@@@@QAEXPAPAVItem@@I@Z
?get_level@sp_pcontext@@QBEHXZ
?max_var_index@sp_pcontext@@QBEIXZ
?get_num_case_exprs@sp_pcontext@@QBEHXZ
?max_cursor_index@sp_pcontext@@QBEIXZ
?elements@?$Dynamic_array@Ust_mysql_lex_string@@@@QBEHXZ
?create@sp_rcontext@@SAPAV1@PAVTHD@@PBVsp_pcontext@@PAVField@@@Z
??1sp_rcontext@@QAE@XZ
??0sp_rcontext@@AAE@PBVsp_pcontext@@PAVField@@_N@Z
??0sp_handler_entry@sp_rcontext@@QAE@PBVsp_handler@@I@Z
??0Sql_condition_info@sp_rcontext@@QAE@IPBDW4enum_warning_level@Sql_condition@@0@Z
??0Handler_call_frame@sp_rcontext@@QAE@PBVsp_handler@@IPBDW4enum_warning_level@Sql_condition@@1I@Z
?set_return_value@sp_rcontext@@QAE_NPAVTHD@@PAPAVItem@@@Z
?push_handler@sp_rcontext@@QAE_NPAVsp_handler@@I@Z
?pop_handlers@sp_rcontext@@QAEXPAVsp_pcontext@@@Z
?handle_sql_condition@sp_rcontext@@QAE_NPAVTHD@@PAIPBVsp_instr@@@Z
?exit_handler@sp_rcontext@@QAEXPAVsp_pcontext@@@Z
?push_cursor@sp_rcontext@@QAE_NPAVsp_instr_cpush@@@Z
?pop_cursors@sp_rcontext@@QAEXI@Z
?pop_all_cursors@sp_rcontext@@QAEXXZ
?set_case_expr@sp_rcontext@@QAE_NPAVTHD@@HPAPAVItem@@@Z
?alloc_arrays@sp_rcontext@@AAE_NPAVTHD@@@Z
?init_var_table@sp_rcontext@@AAE_NPAVTHD@@@Z
?init_var_items@sp_rcontext@@AAE_NPAVTHD@@@Z
?create_case_expr_holder@sp_rcontext@@ABEPAVItem_cache@@PAVTHD@@PBVItem@@@Z
?set_variable@sp_rcontext@@AAE_NPAVTHD@@PAVField@@PAPAVItem@@@Z
??0?$Dynamic_array@PAVsp_handler_entry@sp_rcontext@@@@QAE@II@Z
?init@?$Dynamic_array@PAVsp_handler_entry@sp_rcontext@@@@QAEXII@Z
?at@?$Dynamic_array@PAVsp_handler_entry@sp_rcontext@@@@QAEAAPAVsp_handler_entry@sp_rcontext@@H@Z
?append@?$Dynamic_array@PAVsp_handler_entry@sp_rcontext@@@@QAE_NABQAVsp_handler_entry@sp_rcontext@@@Z
?pop@?$Dynamic_array@PAVsp_handler_entry@sp_rcontext@@@@QAEAAPAVsp_handler_entry@sp_rcontext@@XZ
?elements@?$Dynamic_array@PAVsp_handler_entry@sp_rcontext@@@@QBEHXZ
??1?$Dynamic_array@PAVsp_handler_entry@sp_rcontext@@@@QAE@XZ
??0?$Dynamic_array@PAVHandler_call_frame@sp_rcontext@@@@QAE@II@Z
?init@?$Dynamic_array@PAVHandler_call_frame@sp_rcontext@@@@QAEXII@Z
?at@?$Dynamic_array@PAVHandler_call_frame@sp_rcontext@@@@QAEAAPAVHandler_call_frame@sp_rcontext@@H@Z
?append@?$Dynamic_array@PAVHandler_call_frame@sp_rcontext@@@@QAE_NABQAVHandler_call_frame@sp_rcontext@@@Z
?pop@?$Dynamic_array@PAVHandler_call_frame@sp_rcontext@@@@QAEAAPAVHandler_call_frame@sp_rcontext@@XZ
??1?$Dynamic_array@PAVHandler_call_frame@sp_rcontext@@@@QAE@XZ
??0?$Bounds_checked_array@PAVsp_cursor@@@@QAE@XZ
?reset@?$Bounds_checked_array@PAVsp_cursor@@@@QAEXPAPAVsp_cursor@@I@Z
??A?$Bounds_checked_array@PAVsp_cursor@@@@QAEAAPAVsp_cursor@@I@Z
?array@?$Bounds_checked_array@PAVsp_cursor@@@@QBEPAPAVsp_cursor@@XZ
??0?$Bounds_checked_array@PAVItem_cache@@@@QAE@XZ
?reset@?$Bounds_checked_array@PAVItem_cache@@@@QAEXPAPAVItem_cache@@I@Z
??A?$Bounds_checked_array@PAVItem_cache@@@@QAEAAPAVItem_cache@@I@Z
?array@?$Bounds_checked_array@PAVItem_cache@@@@QBEPAPAVItem_cache@@XZ
??0Select_fetch_into_spvars@sp_cursor@@QAE@XZ
?get_field_count@Select_fetch_into_spvars@sp_cursor@@QAEIXZ
?set_spvar_list@Select_fetch_into_spvars@sp_cursor@@QAEXPAV?$List@Vsp_variable@@@@@Z
?send_eof@Select_fetch_into_spvars@sp_cursor@@UAE_NXZ
?send_data@Select_fetch_into_spvars@sp_cursor@@UAE_NAAV?$List@VItem@@@@@Z
?prepare@Select_fetch_into_spvars@sp_cursor@@UAEHAAV?$List@VItem@@@@PAVst_select_lex_unit@@@Z
??1Select_fetch_into_spvars@sp_cursor@@UAE@XZ
??0sp_cursor@@QAE@PAVsp_instr_cpush@@@Z
??1sp_cursor@@UAE@XZ
?open@sp_cursor@@QAE_NPAVTHD@@@Z
?close@sp_cursor@@QAE_NPAVTHD@@@Z
?fetch@sp_cursor@@QAE_NPAVTHD@@PAV?$List@Vsp_variable@@@@@Z
?destroy@sp_cursor@@AAEXXZ
?get_parsing_ctx@sp_instr@@QBEPAVsp_pcontext@@XZ
??0?$List_iterator_fast@Vsp_variable@@@@QAE@AAV?$List@Vsp_variable@@@@@Z
??E?$List_iterator_fast@Vsp_variable@@@@QAEPAVsp_variable@@H@Z
?is_sqlstate_warning@@YA_NPBD@Z
?is_sqlstate_not_found@@YA_NPBD@Z
?is_sqlstate_exception@@YA_NPBD@Z
??0sp_variable@@QAE@Ust_mysql_lex_string@@W4enum_field_types@@W4enum_mode@0@I@Z
??0sp_label@@QAE@Ust_mysql_lex_string@@IW4enum_type@0@PAVsp_pcontext@@@Z
?equals@sp_condition_value@@QBE_NPBV1@@Z
??0sp_condition@@QAE@Ust_mysql_lex_string@@PAVsp_condition_value@@@Z
??0?$List@Vsp_condition_value@@@@QAE@XZ
??0sp_handler@@QAE@W4enum_type@0@PAVsp_pcontext@@@Z
??0sp_pcontext@@QAE@XZ
??1sp_pcontext@@QAE@XZ
?push_context@sp_pcontext@@QAEPAV1@PAVTHD@@W4enum_scope@1@@Z
?pop_context@sp_pcontext@@QAEPAV1@XZ
?parent_context@sp_pcontext@@QBEPAV1@XZ
?diff_handlers@sp_pcontext@@QBEIPBV1@_N@Z
?diff_cursors@sp_pcontext@@QBEIPBV1@_N@Z
?current_var_count@sp_pcontext@@QBEIXZ
?add_variable@sp_pcontext@@QAEPAVsp_variable@@PAVTHD@@Ust_mysql_lex_string@@W4enum_field_types@@W4enum_mode@2@@Z
?retrieve_field_definitions@sp_pcontext@@QBEXPAV?$List@VCreate_field@@@@@Z
?find_variable@sp_pcontext@@QBEPAVsp_variable@@Ust_mysql_lex_string@@_N@Z
?find_variable@sp_pcontext@@QBEPAVsp_variable@@I@Z
?push_label@sp_pcontext@@QAEPAVsp_label@@PAVTHD@@Ust_mysql_lex_string@@I@Z
?find_label@sp_pcontext@@QAEPAVsp_label@@Ust_mysql_lex_string@@@Z
?add_condition@sp_pcontext@@QAE_NPAVTHD@@Ust_mysql_lex_string@@PAVsp_condition_value@@@Z
?find_condition@sp_pcontext@@QBEPAVsp_condition_value@@Ust_mysql_lex_string@@_N@Z
?add_handler@sp_pcontext@@QAEPAVsp_handler@@PAVTHD@@W4enum_type@2@@Z
?check_duplicate_handler@sp_pcontext@@QBE_NPBVsp_condition_value@@@Z
?find_handler@sp_pcontext@@QBEPAVsp_handler@@PBDIW4enum_warning_level@Sql_condition@@@Z
?add_cursor@sp_pcontext@@QAE_NUst_mysql_lex_string@@@Z
?find_cursor@sp_pcontext@@QBE_NUst_mysql_lex_string@@PAI_N@Z
?find_cursor@sp_pcontext@@QBEPBUst_mysql_lex_string@@I@Z
?current_cursor_count@sp_pcontext@@QBEIXZ
??0sp_pcontext@@AAE@PAV0@W4enum_scope@0@@Z
?init@sp_pcontext@@AAEXIIH@Z
??0?$Dynamic_array@PAVsp_variable@@@@QAE@II@Z
?init@?$Dynamic_array@PAVsp_variable@@@@QAEXII@Z
?at@?$Dynamic_array@PAVsp_variable@@@@QBEABQAVsp_variable@@H@Z
?append@?$Dynamic_array@PAVsp_variable@@@@QAE_NABQAVsp_variable@@@Z
??1?$Dynamic_array@PAVsp_variable@@@@QAE@XZ
??0?$Dynamic_array@H@@QAE@II@Z
?init@?$Dynamic_array@H@@QAEXII@Z
??1?$Dynamic_array@H@@QAE@XZ
??0?$Dynamic_array@PAVsp_condition@@@@QAE@II@Z
?init@?$Dynamic_array@PAVsp_condition@@@@QAEXII@Z
?at@?$Dynamic_array@PAVsp_condition@@@@QBEABQAVsp_condition@@H@Z
?append@?$Dynamic_array@PAVsp_condition@@@@QAE_NABQAVsp_condition@@@Z
?elements@?$Dynamic_array@PAVsp_condition@@@@QBEHXZ
??1?$Dynamic_array@PAVsp_condition@@@@QAE@XZ
??0?$Dynamic_array@Ust_mysql_lex_string@@@@QAE@II@Z
?init@?$Dynamic_array@Ust_mysql_lex_string@@@@QAEXII@Z
?at@?$Dynamic_array@Ust_mysql_lex_string@@@@QBEABUst_mysql_lex_string@@H@Z
?append@?$Dynamic_array@Ust_mysql_lex_string@@@@QAE_NABUst_mysql_lex_string@@@Z
??1?$Dynamic_array@Ust_mysql_lex_string@@@@QAE@XZ
??0?$Dynamic_array@PAVsp_handler@@@@QAE@II@Z
?init@?$Dynamic_array@PAVsp_handler@@@@QAEXII@Z
?at@?$Dynamic_array@PAVsp_handler@@@@QBEABQAVsp_handler@@H@Z
?append@?$Dynamic_array@PAVsp_handler@@@@QAE_NABQAVsp_handler@@@Z
?elements@?$Dynamic_array@PAVsp_handler@@@@QBEHXZ
??1?$Dynamic_array@PAVsp_handler@@@@QAE@XZ
??0?$List@Vsp_label@@@@QAE@XZ
?push_front@?$List@Vsp_label@@@@QAE_NPAVsp_label@@@Z
??1?$List@Vsp_label@@@@QAE@XZ
??0?$Dynamic_array@PAVsp_pcontext@@@@QAE@II@Z
?init@?$Dynamic_array@PAVsp_pcontext@@@@QAEXII@Z
?at@?$Dynamic_array@PAVsp_pcontext@@@@QAEAAPAVsp_pcontext@@H@Z
?at@?$Dynamic_array@PAVsp_pcontext@@@@QBEABQAVsp_pcontext@@H@Z
?append@?$Dynamic_array@PAVsp_pcontext@@@@QAE_NABQAVsp_pcontext@@@Z
?elements@?$Dynamic_array@PAVsp_pcontext@@@@QBEHXZ
??1?$Dynamic_array@PAVsp_pcontext@@@@QAE@XZ
??0?$List_iterator_fast@Vsp_label@@@@QAE@AAV?$List@Vsp_label@@@@@Z
??E?$List_iterator_fast@Vsp_label@@@@QAEPAVsp_label@@H@Z
??0?$List_iterator_fast@Vsp_condition_value@@@@QAE@AAV?$List@Vsp_condition_value@@@@@Z
??E?$List_iterator_fast@Vsp_condition_value@@@@QAEPAVsp_condition_value@@H@Z
?append@String@@QAE_NVSimple_cstring@@@Z
?id@Warning_info@@ABE_KXZ
?warning_info_id@Diagnostics_area@@QBE_KXZ
?remove_marked_sql_conditions@Diagnostics_area@@QAEXXZ
??0Settable_routine_parameter@@QAE@XZ
??1Settable_routine_parameter@@UAE@XZ
?set_required_privilege@Settable_routine_parameter@@UAEX_N@Z
?set_out_param_info@Settable_routine_parameter@@UAEXPAVSend_field@@@Z
?get_out_param_info@Settable_routine_parameter@@UBEPBVSend_field@@XZ
?result_type@Item_field@@UBE?AW4Item_result@@XZ
?numeric_context_result_type@Item_field@@UBE?AW4Item_result@@XZ
?cast_to_int_type@Item_field@@UBE?AW4Item_result@@XZ
?field_type@Item_field@@UBE?AW4enum_field_types@@XZ
?get_monotonicity_info@Item_field@@UBE?AW4monotonicity_info@@XZ
?tmp_table_field@Item_field@@UAEPAVField@@PAUTABLE@@@Z
?is_null@Item_field@@UAE_NXZ
?check_partition_func_processor@Item_field@@UAE_NPAE@Z
?field_for_view_update@Item_field@@UAEPAV1@XZ
?is_outer_field@Item_field@@UBE_NXZ
?get_geometry_type@Item_field@@UBE?AW4geometry_type@Field@@XZ
?charset_for_protocol@Item_field@@UBEPBUcharset_info_st@@XZ
??1Item_field@@UAE@XZ
??0Item_trigger_field@@QAE@PAUName_resolution_context@@W4row_version_type@0@PBDK_N@Z
?type@Item_trigger_field@@UBE?AW4Type@Item@@XZ
?used_tables@Item_trigger_field@@UBE_KXZ
?get_tmp_table_field@Item_trigger_field@@UAEPAVField@@XZ
?copy_or_same@Item_trigger_field@@UAEPAVItem@@PAVTHD@@@Z
?get_tmp_table_item@Item_trigger_field@@UAEPAVItem@@PAVTHD@@@Z
?get_settable_routine_parameter@Item_trigger_field@@UAEPAVSettable_routine_parameter@@XZ
?set_value@Item_trigger_field@@QAE_NPAVTHD@@PAPAVItem@@@Z
??1Item_trigger_field@@UAE@XZ
?set_current_stmt_start_ptr@sp_parser_data@@QAEXPBD@Z
?empty@?$SQL_I_List@VItem_trigger_field@@@@QAEXXZ
?link_in_list@?$SQL_I_List@VItem_trigger_field@@@@QAEXPAVItem_trigger_field@@PAPAV2@@Z
?save_and_clear@?$SQL_I_List@VItem_trigger_field@@@@QAEXPAV1@@Z
?get_instr@sp_head@@QAEPAVsp_instr@@I@Z
?at@?$Dynamic_array@PAVsp_instr@@@@QAEAAPAVsp_instr@@H@Z
?elements@?$Dynamic_array@PAVsp_instr@@@@QBEHXZ
?get_ip@sp_instr@@QBEIXZ
?validate_lex_and_execute_core@sp_lex_instr@@QAE_NPAVTHD@@PAI_N@Z
?reset_lex_and_exec_core@sp_lex_instr@@AAE_NPAVTHD@@PAI_N@Z
?parse_expr@sp_lex_instr@@AAEPAULEX@@PAVTHD@@PAVsp_head@@@Z
?set_lex@sp_lex_instr@@AAEXPAULEX@@_N@Z
?free_lex@sp_lex_instr@@AAEXXZ
?get_query@sp_lex_instr@@MBEXPAVString@@@Z
?cleanup_before_parsing@sp_lex_instr@@MAEXPAVTHD@@@Z
?execute@sp_instr_stmt@@UAE_NPAVTHD@@PAI@Z
?print@sp_instr_stmt@@UAEXPAVString@@@Z
?exec_core@sp_instr_stmt@@UAE_NPAVTHD@@PAI@Z
?print@sp_instr_set@@UAEXPAVString@@@Z
?exec_core@sp_instr_set@@UAE_NPAVTHD@@PAI@Z
?print@sp_instr_set_trigger_field@@UAEXPAVString@@@Z
?exec_core@sp_instr_set_trigger_field@@UAE_NPAVTHD@@PAI@Z
?on_after_expr_parsing@sp_instr_set_trigger_field@@UAE_NPAVTHD@@@Z
?cleanup_before_parsing@sp_instr_set_trigger_field@@UAEXPAVTHD@@@Z
?print@sp_instr_freturn@@UAEXPAVString@@@Z
?exec_core@sp_instr_freturn@@UAE_NPAVTHD@@PAI@Z
?print@sp_instr_jump@@UAEXPAVString@@@Z
?opt_mark@sp_instr_jump@@UAEIPAVsp_head@@PAV?$List@Vsp_instr@@@@@Z
?opt_shortcut_jump@sp_instr_jump@@UAEIPAVsp_head@@PAVsp_instr@@@Z
?opt_move@sp_instr_jump@@UAEXIPAV?$List@Vsp_branch_instr@@@@@Z
?opt_mark@sp_lex_branch_instr@@UAEIPAVsp_head@@PAV?$List@Vsp_instr@@@@@Z
?opt_move@sp_lex_branch_instr@@UAEXIPAV?$List@Vsp_branch_instr@@@@@Z
?print@sp_instr_jump_if_not@@UAEXPAVString@@@Z
?exec_core@sp_instr_jump_if_not@@UAE_NPAVTHD@@PAI@Z
?print@sp_instr_set_case_expr@@UAEXPAVString@@@Z
?opt_mark@sp_instr_set_case_expr@@UAEIPAVsp_head@@PAV?$List@Vsp_instr@@@@@Z
?opt_move@sp_instr_set_case_expr@@UAEXIPAV?$List@Vsp_branch_instr@@@@@Z
?exec_core@sp_instr_set_case_expr@@UAE_NPAVTHD@@PAI@Z
?print@sp_instr_jump_case_when@@UAEXPAVString@@@Z
?exec_core@sp_instr_jump_case_when@@UAE_NPAVTHD@@PAI@Z
?build_expr_items@sp_instr_jump_case_when@@AAE_NPAVTHD@@@Z
?print@sp_instr_hpush_jump@@UAEXPAVString@@@Z
?execute@sp_instr_hpush_jump@@UAE_NPAVTHD@@PAI@Z
?opt_mark@sp_instr_hpush_jump@@UAEIPAVsp_head@@PAV?$List@Vsp_instr@@@@@Z
?execute@sp_instr_hpop@@UAE_NPAVTHD@@PAI@Z
?print@sp_instr_hreturn@@UAEXPAVString@@@Z
?execute@sp_instr_hreturn@@UAE_NPAVTHD@@PAI@Z
?opt_mark@sp_instr_hreturn@@UAEIPAVsp_head@@PAV?$List@Vsp_instr@@@@@Z
?print@sp_instr_cpush@@UAEXPAVString@@@Z
?execute@sp_instr_cpush@@UAE_NPAVTHD@@PAI@Z
?exec_core@sp_instr_cpush@@UAE_NPAVTHD@@PAI@Z
?print@sp_instr_cpop@@UAEXPAVString@@@Z
?execute@sp_instr_cpop@@UAE_NPAVTHD@@PAI@Z
?print@sp_instr_copen@@UAEXPAVString@@@Z
?execute@sp_instr_copen@@UAE_NPAVTHD@@PAI@Z
?print@sp_instr_cclose@@UAEXPAVString@@@Z
?execute@sp_instr_cclose@@UAE_NPAVTHD@@PAI@Z
?print@sp_instr_cfetch@@UAEXPAVString@@@Z
?execute@sp_instr_cfetch@@UAE_NPAVTHD@@PAI@Z
?print@sp_instr_error@@UAEXPAVString@@@Z
?get_last_handler_continue_ip@sp_rcontext@@QBEIXZ
?get_cursor@sp_rcontext@@QBEPAVsp_cursor@@I@Z
?get_case_expr@sp_rcontext@@QBEPAVItem@@H@Z
??A?$Bounds_checked_array@PAVsp_cursor@@@@QBEABQAVsp_cursor@@I@Z
??A?$Bounds_checked_array@PAVItem_cache@@@@QBEABQAVItem_cache@@I@Z
?get_push_instr@sp_cursor@@QAEPAVsp_instr_cpush@@XZ
??0?$Dynamic_array@PAVItem_splocal@@@@QAE@II@Z
?init@?$Dynamic_array@PAVItem_splocal@@@@QAEXII@Z
?front@?$Dynamic_array@PAVItem_splocal@@@@QAEPAPAVItem_splocal@@XZ
?back@?$Dynamic_array@PAVItem_splocal@@@@QAEPAPAVItem_splocal@@XZ
?append@?$Dynamic_array@PAVItem_splocal@@@@QAE_NABQAVItem_splocal@@@Z
?elements@?$Dynamic_array@PAVItem_splocal@@@@QBEHXZ
??1?$Dynamic_array@PAVItem_splocal@@@@QAE@XZ
?sort@?$Dynamic_array@PAVItem_splocal@@@@QAEXP6AHPBQAVItem_splocal@@0@Z@Z
??0SP_instr_error_handler@@QAE@XZ
?handle_condition@SP_instr_error_handler@@UAE_NPAVTHD@@IPBDW4enum_warning_level@Sql_condition@@1PAPAV4@@Z
??1SP_instr_error_handler@@UAE@XZ
?push_back@?$List@Vsp_branch_instr@@@@QAE_NPAVsp_branch_instr@@@Z
?db_name_length@MDL_key@@QBEIXZ
?name_length@MDL_key@@QBEIXZ
?warning_info_changed@Diagnostics_area@@QBE_NPBVWarning_info@@@Z
?copy_sql_conditions_to_wi@Diagnostics_area@@QBEXPAVTHD@@PAVWarning_info@@@Z
?copy_sql_conditions_from_wi@Diagnostics_area@@QAEXPAVTHD@@PBVWarning_info@@@Z
??1Create_field@@QAE@XZ
?store@Protocol@@QAE_N_J@Z
??A?$Bounds_checked_array@PAVItem@@@@QBEABQAVItem@@I@Z
?get_body_utf8_str@Lex_input_stream@@QAEPBDXZ
?get_body_utf8_length@Lex_input_stream@@QAEIXZ
?get_sp_current_parsing_ctx@LEX@@QAEPAVsp_pcontext@@XZ
?reset_before_substatement@Yacc_state@@QAEXXZ
??0sp_name@@QAE@PBVMDL_key@@PAD@Z
?init_qname@sp_name@@QAEXPAVTHD@@@Z
??0sp_parser_data@@QAE@XZ
?start_parsing_sp_body@sp_parser_data@@QAEXPAVTHD@@PAVsp_head@@@Z
?process_new_sp_instr@sp_parser_data@@QAEXPAVTHD@@PAVsp_instr@@@Z
?get_parameter_start_ptr@sp_parser_data@@QBEPBDXZ
?get_parameter_end_ptr@sp_parser_data@@QBEPBDXZ
?get_body_start_ptr@sp_parser_data@@QBEPBDXZ
?set_body_start_ptr@sp_parser_data@@QAEXPBD@Z
?push_lex@sp_parser_data@@QAEXPAULEX@@@Z
?pop_lex@sp_parser_data@@QAEPAULEX@@XZ
?add_backpatch_entry@sp_parser_data@@QAE_NPAVsp_branch_instr@@PAVsp_label@@@Z
?do_backpatch@sp_parser_data@@QAEXPAVsp_label@@I@Z
?add_cont_backpatch_entry@sp_parser_data@@QAE_NPAVsp_lex_branch_instr@@@Z
?do_cont_backpatch@sp_parser_data@@QAEXI@Z
??0?$List@ULEX@@@@QAE@XZ
?push_front@?$List@ULEX@@@@QAE_NPAULEX@@@Z
?pop@?$List@ULEX@@@@QAEPAULEX@@XZ
??1?$List@ULEX@@@@QAE@XZ
??0?$List@UBackpatch_info@sp_parser_data@@@@QAE@XZ
?push_front@?$List@UBackpatch_info@sp_parser_data@@@@QAE_NPAUBackpatch_info@sp_parser_data@@@Z
??1?$List@UBackpatch_info@sp_parser_data@@@@QAE@XZ
??0?$List@Vsp_lex_branch_instr@@@@QAE@XZ
?push_front@?$List@Vsp_lex_branch_instr@@@@QAE_NPAVsp_lex_branch_instr@@@Z
?head@?$List@Vsp_lex_branch_instr@@@@QAEPAVsp_lex_branch_instr@@XZ
?pop@?$List@Vsp_lex_branch_instr@@@@QAEPAVsp_lex_branch_instr@@XZ
??1?$List@Vsp_lex_branch_instr@@@@QAE@XZ
??1sp_parser_data@@QAE@XZ
??0?$SQL_I_List@V?$SQL_I_List@VItem_trigger_field@@@@@@QAE@XZ
?empty@?$SQL_I_List@V?$SQL_I_List@VItem_trigger_field@@@@@@QAEXXZ
?link_in_list@?$SQL_I_List@V?$SQL_I_List@VItem_trigger_field@@@@@@QAEXPAV?$SQL_I_List@VItem_trigger_field@@@@PAPAV2@@Z
??1?$SQL_I_List@V?$SQL_I_List@VItem_trigger_field@@@@@@QAE@XZ
??0?$SQL_I_List@VItem_trigger_field@@@@QAE@XZ
??1?$SQL_I_List@VItem_trigger_field@@@@QAE@XZ
??2sp_head@@SAPAXI@Z
??3sp_head@@SAXPAXI@Z
??1sp_head@@UAE@XZ
?set_body_start@sp_head@@QAEXPAVTHD@@PBD@Z
?set_body_end@sp_head@@QAEXPAVTHD@@@Z
?execute_trigger@sp_head@@QAE_NPAVTHD@@PBUst_mysql_lex_string@@1PAUst_grant_info@@@Z
?execute_function@sp_head@@QAE_NPAVTHD@@PAPAVItem@@IPAVField@@@Z
?execute_procedure@sp_head@@QAE_NPAVTHD@@PAV?$List@VItem@@@@@Z
?show_create_routine@sp_head@@QAE_NPAVTHD@@W4enum_sp_type@@@Z
?add_instr@sp_head@@QAE_NPAVTHD@@PAVsp_instr@@@Z
?reset_lex@sp_head@@QAE_NPAVTHD@@@Z
?restore_lex@sp_head@@QAE_NPAVTHD@@@Z
?create_result_field@sp_head@@QAEPAVField@@IPBDPAUTABLE@@@Z
?set_info@sp_head@@QAEX_J0PAUst_sp_chistics@@_K@Z
?set_definer@sp_head@@QAEXPBDI@Z
?set_definer@sp_head@@QAEXPBUst_mysql_lex_string@@0@Z
?optimize@sp_head@@QAEXXZ
?add_mark_lead@sp_head@@QAEXIPAV?$List@Vsp_instr@@@@@Z
?add_used_tables_to_table_list@sp_head@@QAE_NPAVTHD@@PAPAPAUTABLE_LIST@@PAU3@@Z
?show_routine_code@sp_head@@QAE_NPAVTHD@@@Z
?get_persistent_mem_root@sp_head@@QBEPAUst_mem_root@@XZ
?check_show_access@sp_head@@QAE_NPAVTHD@@PA_N@Z
?set_security_ctx@sp_head@@QAE_NPAVTHD@@PAPAVSecurity_context@@@Z
??0sp_head@@AAE@W4enum_sp_type@@@Z
??0?$Dynamic_array@PAVsp_instr@@@@QAE@II@Z
?init@?$Dynamic_array@PAVsp_instr@@@@QAEXII@Z
?append@?$Dynamic_array@PAVsp_instr@@@@QAE_NABQAVsp_instr@@@Z
?elements@?$Dynamic_array@PAVsp_instr@@@@QAEXI@Z
?set@?$Dynamic_array@PAVsp_instr@@@@QAEXIABQAVsp_instr@@@Z
??1?$Dynamic_array@PAVsp_instr@@@@QAE@XZ
?init_sp_name@sp_head@@AAEXPAVTHD@@PAVsp_name@@@Z
?execute@sp_head@@AAE_NPAVTHD@@_N@Z
?opt_mark@sp_head@@AAEXXZ
?merge_table_list@sp_head@@AAE_NPAVTHD@@PAUTABLE_LIST@@PAULEX@@@Z
?opt_is_marked@sp_instr@@QBE_NXZ
?set_cont_dest@sp_lex_branch_instr@@QAEXI@Z
?get_item@sp_rcontext@@QBEPAVItem@@I@Z
?get_item_addr@sp_rcontext@@QBEPAPAVItem@@I@Z
?is_return_value_set@sp_rcontext@@QBE_NXZ
?sp_table_key@@YAPAEPBEPAID@Z
??0?$List@Vsp_branch_instr@@@@QAE@XZ
??1?$List@Vsp_branch_instr@@@@QAE@XZ
??0?$List_iterator_fast@Vsp_branch_instr@@@@QAE@AAV?$List@Vsp_branch_instr@@@@@Z
??E?$List_iterator_fast@Vsp_branch_instr@@@@QAEPAVsp_branch_instr@@H@Z
??0?$List@Vsp_instr@@@@QAE@XZ
?push_front@?$List@Vsp_instr@@@@QAE_NPAVsp_instr@@@Z
?pop@?$List@Vsp_instr@@@@QAEPAVsp_instr@@XZ
??1?$List@Vsp_instr@@@@QAE@XZ
??0?$List_iterator_fast@UBackpatch_info@sp_parser_data@@@@QAE@AAV?$List@UBackpatch_info@sp_parser_data@@@@@Z
??E?$List_iterator_fast@UBackpatch_info@sp_parser_data@@@@QAEPAUBackpatch_info@sp_parser_data@@H@Z
?sp_cache_init@@YAXXZ
?sp_cache_clear@@YAXPAPAVsp_cache@@@Z
?sp_cache_insert@@YAXPAPAVsp_cache@@PAVsp_head@@@Z
?sp_cache_lookup@@YAPAVsp_head@@PAPAVsp_cache@@PAVsp_name@@@Z
?sp_cache_invalidate@@YAXXZ
?sp_cache_flush_obsolete@@YAXPAPAVsp_cache@@PAPAVsp_head@@@Z
?sp_cache_version@@YAKXZ
?sp_cache_enforce_limit@@YAXPAVsp_cache@@K@Z
?set_sp_cache_version@sp_head@@QAEXK@Z
??0sp_cache@@QAE@XZ
??1sp_cache@@QAE@XZ
?insert@sp_cache@@QAE_NPAVsp_head@@@Z
?lookup@sp_cache@@QAEPAVsp_head@@PADI@Z
?remove@sp_cache@@QAEXPAVsp_head@@@Z
?enforce_limit@sp_cache@@QAEXK@Z
?init@sp_cache@@AAEXXZ
?cleanup@sp_cache@@AAEXXZ
hash_get_key_for_sp_head
hash_free_sp_head
?link_in_list@?$SQL_I_List@VSroutine_hash_entry@@@@QAEXPAVSroutine_hash_entry@@PAPAV2@@Z
?set_unsafe_rollback_flags@THD_TRANS@@QAEXI@Z
??0sp_name@@QAE@Ust_mysql_lex_string@@0_N@Z
??1sp_name@@QAE@XZ
?sp_start_parsing@@YAPAVsp_head@@PAVTHD@@W4enum_sp_type@@PAVsp_name@@@Z
?sp_drop_db_routines@@YAHPAVTHD@@PAD@Z
?lock_db_routines@@YA_NPAVTHD@@PAD@Z
?sp_find_routine@@YAPAVsp_head@@PAVTHD@@W4enum_sp_type@@PAVsp_name@@PAPAVsp_cache@@_N@Z
?sp_cache_routine@@YAHPAVTHD@@PAVSroutine_hash_entry@@_NPAPAVsp_head@@@Z
?sp_cache_routine@@YAHPAVTHD@@W4enum_sp_type@@PAVsp_name@@_NPAPAVsp_head@@@Z
?sp_exist_routines@@YA_NPAVTHD@@PAUTABLE_LIST@@_N@Z
?sp_show_create_routine@@YA_NPAVTHD@@W4enum_sp_type@@PAVsp_name@@@Z
?sp_create_routine@@YAHPAVTHD@@PAVsp_head@@@Z
?sp_update_routine@@YAHPAVTHD@@W4enum_sp_type@@PAVsp_name@@PAUst_sp_chistics@@@Z
?sp_drop_routine@@YAHPAVTHD@@W4enum_sp_type@@PAVsp_name@@@Z
?sp_add_used_routine@@YAXPAVQuery_tables_list@@PAVQuery_arena@@PAVsp_name@@W4enum_sp_type@@@Z
?sp_add_used_routine@@YA_NPAVQuery_tables_list@@PAVQuery_arena@@PBVMDL_key@@PAUTABLE_LIST@@@Z
?sp_remove_not_own_routines@@YAXPAVQuery_tables_list@@@Z
?sp_update_stmt_used_routines@@YAXPAVTHD@@PAVQuery_tables_list@@PAUst_hash@@PAUTABLE_LIST@@@Z
?sp_update_stmt_used_routines@@YAXPAVTHD@@PAVQuery_tables_list@@PAV?$SQL_I_List@VSroutine_hash_entry@@@@PAUTABLE_LIST@@@Z
sp_sroutine_key
?open_proc_table_for_read@@YAPAUTABLE@@PAVTHD@@PAVOpen_tables_backup@@@Z
?sp_load_for_information_schema@@YAPAVsp_head@@PAVTHD@@PAUTABLE@@PAVString@@2_KW4enum_sp_type@@PBD5PA_N@Z
?load_charset@@YA_NPAUst_mem_root@@PAVField@@PBUcharset_info_st@@PAPBU3@@Z
?load_collation@@YA_NPAUst_mem_root@@PAVField@@PBUcharset_info_st@@PAPBU3@@Z
?sp_finish_parsing@@YAXPAVTHD@@@Z
?sp_map_result_type@@YA?AW4Item_result@@W4enum_field_types@@@Z
?sp_map_item_type@@YA?AW4Type@Item@@W4enum_field_types@@@Z
?sp_get_flags_for_command@@YAIPAULEX@@@Z
?sp_check_name@@YA_NPAUst_mysql_lex_string@@@Z
?sp_add_to_query_tables@@YAPAUTABLE_LIST@@PAVTHD@@PAULEX@@PBD2W4thr_lock_type@@W4enum_mdl_type@@@Z
?sp_prepare_func_item@@YAPAVItem@@PAVTHD@@PAPAV1@@Z
?sp_eval_expr@@YA_NPAVTHD@@PAVField@@PAPAVItem@@@Z
?sp_get_item_value@@YAPAVString@@PAVTHD@@PAVItem@@PAV1@@Z
?load_from_db@Stored_routine_creation_ctx@@SAPAV1@PAVTHD@@PBVsp_name@@PAUTABLE@@@Z
?clone@Stored_routine_creation_ctx@@UAEPAVStored_program_creation_ctx@@PAUst_mem_root@@@Z
?create_backup_ctx@Stored_routine_creation_ctx@@MBEPAVObject_creation_ctx@@PAVTHD@@@Z
??0Stored_routine_creation_ctx@@AAE@PAVTHD@@@Z
??0Stored_routine_creation_ctx@@AAE@PBUcharset_info_st@@00@Z
??1Stored_routine_creation_ctx@@UAE@XZ
??0Proc_table_intact@@QAE@XZ
?report_error@Proc_table_intact@@MAAXIPBDZZ
??1Proc_table_intact@@UAE@XZ
?handle_condition@Silence_deprecated_warning@@UAE_NPAVTHD@@IPBDW4enum_warning_level@Sql_condition@@1PAPAV4@@Z
??0Silence_deprecated_warning@@QAE@XZ
??1Silence_deprecated_warning@@UAE@XZ
??0Bad_db_error_handler@@QAE@XZ
?handle_condition@Bad_db_error_handler@@UAE_NPAVTHD@@IPBDW4enum_warning_level@Sql_condition@@1PAPAV4@@Z
?error_caught@Bad_db_error_handler@@QBE_NXZ
??1Bad_db_error_handler@@UAE@XZ
?handle_condition@Lock_db_routines_error_handler@@UAE_NPAVTHD@@IPBDW4enum_warning_level@Sql_condition@@1PAPAV4@@Z
??0Lock_db_routines_error_handler@@QAE@XZ
??1Lock_db_routines_error_handler@@UAE@XZ
handle_fatal_signal
?all_sys_vars@@3Usys_var_chain@@A DATA
?mysql_add_sys_var_chain@@YAHPAVsys_var@@@Z
?mysql_del_sys_var_chain@@YAHPAVsys_var@@@Z
??0sys_var@@QAE@PAUsys_var_chain@@PBD1HHHW4get_opt_arg_type@@W4enum_mysql_show_type@@_JPAVPolyLock@@W4binlog_status_enum@0@P6A_NPAV0@PAVTHD@@PAVset_var@@@ZP6A_N78W4enum_var_type@@@Z1H@Z
?check@sys_var@@QAE_NPAVTHD@@PAVset_var@@@Z
?value_ptr@sys_var@@QAEPAEPAVTHD@@W4enum_var_type@@PAUst_mysql_lex_string@@@Z
?set_default@sys_var@@QAE_NPAVTHD@@PAVset_var@@@Z
?update@sys_var@@QAE_NPAVTHD@@PAVset_var@@@Z
?charset@sys_var@@QAEPBUcharset_info_st@@PAVTHD@@@Z
?not_visible@sys_var@@QBE_NXZ
?check_type@sys_var@@QAE_NW4enum_var_type@@@Z
?register_option@sys_var@@QAE_NPAV?$vector@Umy_option@@V?$allocator@Umy_option@@@std@@@std@@H@Z
?do_deprecated_warning@sys_var@@QAEXPAVTHD@@@Z
?session_value_ptr@sys_var@@MAEPAEPAVTHD@@PAUst_mysql_lex_string@@@Z
?global_value_ptr@sys_var@@MAEPAEPAVTHD@@PAUst_mysql_lex_string@@@Z
?check@set_var@@UAEHPAVTHD@@@Z
?update@set_var@@UAEHPAVTHD@@@Z
?light_check@set_var@@UAEHPAVTHD@@@Z
?print@set_var@@UAEXPAVTHD@@PAVString@@@Z
?check@set_var_user@@UAEHPAVTHD@@@Z
?update@set_var_user@@UAEHPAVTHD@@@Z
?light_check@set_var_user@@UAEHPAVTHD@@@Z
?print@set_var_user@@UAEXPAVTHD@@PAVString@@@Z
?check@set_var_password@@UAEHPAVTHD@@@Z
?update@set_var_password@@UAEHPAVTHD@@@Z
?print@set_var_password@@UAEXPAVTHD@@PAVString@@@Z
?check@set_var_collation_client@@UAEHPAVTHD@@@Z
?update@set_var_collation_client@@UAEHPAVTHD@@@Z
?print@set_var_collation_client@@UAEXPAVTHD@@PAVString@@@Z
?enumerate_sys_vars@@YAPAUst_mysql_show_var@@PAVTHD@@_NW4enum_var_type@@@Z
?sql_set_variables@@YAHPAVTHD@@PAV?$List@Vset_var_base@@@@@Z
?get_old_charset_by_name@@YAPBUcharset_info_st@@PBD@Z
?sys_var_init@@YAHXZ
?sys_var_add_options@@YAHPAV?$vector@Umy_option@@V?$allocator@Umy_option@@@std@@@std@@H@Z
?sys_var_end@@YAXXZ
?throw_bounds_warning@@YA_NPAVTHD@@PBD_N2_J@Z
?throw_bounds_warning@@YA_NPAVTHD@@PBD_NN@Z
?intern_find_sys_var@@YAPAVsys_var@@PBDI@Z
??0AutoWLock@@QAE@PAVPolyLock@@@Z
??1AutoWLock@@QAE@XZ
??0AutoRLock@@QAE@PAVPolyLock@@@Z
??1AutoRLock@@QAE@XZ
?rewind@?$List_iterator_fast@Vset_var_base@@@@QAEXXZ
?thread_scheduler@@3PAUscheduler_functions@@A DATA
my_thread_scheduler_set
my_thread_scheduler_reset
?one_thread_per_connection_scheduler@@YAXXZ
?one_thread_scheduler@@YAXXZ
??0thd_scheduler@@QAE@XZ
??1thd_scheduler@@QAE@XZ
?transaction_delegate@@3PAVTrans_delegate@@A DATA
?binlog_storage_delegate@@3PAVBinlog_storage_delegate@@A DATA
?binlog_transmit_delegate@@3PAVBinlog_transmit_delegate@@A DATA
?binlog_relay_io_delegate@@3PAVBinlog_relay_IO_delegate@@A DATA
?get_trans_fixed_pos@THD@@QBEXPAPBDPA_K@Z
?get_user@Master_info@@QBEPBDXZ
?get_master_log_name@Master_info@@QAEPBDXZ
?get_master_log_pos@Master_info@@QAE_KXZ
?should_observe@Binlog_transmit_param@@QAE_NXZ
register_trans_observer
unregister_trans_observer
register_binlog_storage_observer
unregister_binlog_storage_observer
register_binlog_transmit_observer
unregister_binlog_transmit_observer
register_binlog_relay_io_observer
unregister_binlog_relay_io_observer
get_user_var_int
get_user_var_real
??0Observer_info@@QAE@PAXPAUst_plugin_int@@@Z
?add_observer@Delegate@@QAEHPAXPAUst_plugin_int@@@Z
?remove_observer@Delegate@@QAEHPAXPAUst_plugin_int@@@Z
?observer_info_iter@Delegate@@QAE?AV?$List_iterator@VObserver_info@@@@XZ
?read_lock@Delegate@@QAEHXZ
?write_lock@Delegate@@QAEHXZ
?unlock@Delegate@@QAEHXZ
?is_inited@Delegate@@QAE_NXZ
??0Delegate@@QAE@I@Z
??1Delegate@@QAE@XZ
??0?$List@VObserver_info@@@@QAE@XZ
?push_back@?$List@VObserver_info@@@@QAE_NPAVObserver_info@@PAUst_mem_root@@@Z
??1?$List@VObserver_info@@@@QAE@XZ
??0?$List_iterator@VObserver_info@@@@QAE@AAV?$List@VObserver_info@@@@@Z
??E?$List_iterator@VObserver_info@@@@QAEPAVObserver_info@@H@Z
?remove@?$List_iterator@VObserver_info@@@@QAEXXZ
??0Trans_delegate@@QAE@XZ
?after_commit@Trans_delegate@@QAEHPAVTHD@@_N@Z
?after_rollback@Trans_delegate@@QAEHPAVTHD@@_N@Z
??1Trans_delegate@@QAE@XZ
??0Binlog_storage_delegate@@QAE@XZ
?after_flush@Binlog_storage_delegate@@QAEHPAVTHD@@PBD_K@Z
??1Binlog_storage_delegate@@QAE@XZ
??0Binlog_transmit_delegate@@QAE@XZ
?transmit_start@Binlog_transmit_delegate@@QAEHPAVTHD@@GPBD_KPA_N@Z
?transmit_stop@Binlog_transmit_delegate@@QAEHPAVTHD@@G@Z
?reserve_header@Binlog_transmit_delegate@@QAEHPAVTHD@@GPAVString@@@Z
?before_send_event@Binlog_transmit_delegate@@QAEHPAVTHD@@GPAVString@@PBD_K@Z
?after_send_event@Binlog_transmit_delegate@@QAEHPAVTHD@@GPAVString@@PBD_K@Z
?after_reset_master@Binlog_transmit_delegate@@QAEHPAVTHD@@G@Z
??1Binlog_transmit_delegate@@QAE@XZ
??0Binlog_relay_IO_delegate@@QAE@XZ
?thread_start@Binlog_relay_IO_delegate@@QAEHPAVTHD@@PAVMaster_info@@@Z
?thread_stop@Binlog_relay_IO_delegate@@QAEHPAVTHD@@PAVMaster_info@@@Z
?before_request_transmit@Binlog_relay_IO_delegate@@QAEHPAVTHD@@PAVMaster_info@@G@Z
?after_read_event@Binlog_relay_IO_delegate@@QAEHPAVTHD@@PAVMaster_info@@PBDKPAPBDPAK@Z
?after_queue_event@Binlog_relay_IO_delegate@@QAEHPAVTHD@@PAVMaster_info@@PBDK_N@Z
?after_reset_slave@Binlog_relay_IO_delegate@@QAEHPAVTHD@@PAVMaster_info@@@Z
?init_param@Binlog_relay_IO_delegate@@AAEXPAUBinlog_relay_IO_param@@PAVMaster_info@@@Z
??1Binlog_relay_IO_delegate@@QAE@XZ
?delegates_init@@YAHXZ
?delegates_destroy@@YAXXZ
?get_user_var_str@@YAHPBDPADIIPAH@Z
?init_read_record@@YA_NPAUREAD_RECORD@@PAVTHD@@PAUTABLE@@PAVSQL_SELECT@@H_N4@Z
?init_read_record_idx@@YA_NPAUREAD_RECORD@@PAVTHD@@PAUTABLE@@_NI3@Z
?end_read_record@@YAXPAUREAD_RECORD@@@Z
?rr_unlock_row@@YAXPAUst_join_table@@@Z
?rr_sequential@@YAHPAUREAD_RECORD@@@Z
?prep_append@String@@QAEPADII@Z
?is_sent@Diagnostics_area@@QBE_NXZ
?status@Diagnostics_area@@QBE?AW4enum_diagnostics_status@1@XZ
?affected_rows@Diagnostics_area@@QBE_KXZ
?last_insert_id@Diagnostics_area@@QBE_KXZ
?statement_warn_count@Diagnostics_area@@QBEIXZ
?is_temporal_type_with_date_and_time@@YA_NW4enum_field_types@@@Z
?net_store_data@Protocol@@IAE_NPBEI@Z
?net_store_data@Protocol@@MAE_NPBEIPBUcharset_info_st@@1@Z
?store_string_aux@Protocol@@IAE_NPBDIPBUcharset_info_st@@1@Z
?send_ok@Protocol@@MAE_NII_K0PBD@Z
?send_eof@Protocol@@MAE_NII@Z
?send_error@Protocol@@MAE_NIPBD0@Z
?init@Protocol@@QAEXPAVTHD@@@Z
?send_result_set_metadata@Protocol@@UAE_NPAV?$List@VItem@@@@I@Z
?send_result_set_row@Protocol@@QAE_NPAV?$List@VItem@@@@@Z
?store@Protocol@@QAE_NPAV?$I_List@Vi_string@@@@@Z
?store@Protocol@@QAE_NPBDPBUcharset_info_st@@@Z
?storage_packet@Protocol@@QAEPAVString@@XZ
?free@Protocol@@QAEXXZ
?write@Protocol@@UAE_NXZ
?flush@Protocol@@UAE_NXZ
?end_partial_result_set@Protocol@@UAEXPAVTHD@@@Z
?end_statement@Protocol@@QAEXXZ
??0Protocol_text@@QAE@PAVTHD@@@Z
?prepare_for_resend@Protocol_text@@UAEXXZ
?store_null@Protocol_text@@UAE_NXZ
?store_tiny@Protocol_text@@UAE_N_J@Z
?store_short@Protocol_text@@UAE_N_J@Z
?store_long@Protocol_text@@UAE_N_J@Z
?store_longlong@Protocol_text@@UAE_N_J_N@Z
?store_decimal@Protocol_text@@UAE_NPBVmy_decimal@@@Z
?store@Protocol_text@@UAE_NPBDIPBUcharset_info_st@@@Z
?store@Protocol_text@@UAE_NPBDIPBUcharset_info_st@@1@Z
?store@Protocol_text@@UAE_NPAUst_mysql_time@@I@Z
?store_date@Protocol_text@@UAE_NPAUst_mysql_time@@@Z
?store_time@Protocol_text@@UAE_NPAUst_mysql_time@@I@Z
?store@Protocol_text@@UAE_NMIPAVString@@@Z
?store@Protocol_text@@UAE_NNIPAVString@@@Z
?store@Protocol_text@@UAE_NPAVField@@@Z
?send_out_parameters@Protocol_text@@UAE_NPAV?$List@VItem_param@@@@@Z
?prepare_for_send@Protocol_binary@@UAE_NI@Z
?prepare_for_resend@Protocol_binary@@UAEXXZ
?store_null@Protocol_binary@@UAE_NXZ
?store_tiny@Protocol_binary@@UAE_N_J@Z
?store_short@Protocol_binary@@UAE_N_J@Z
?store_long@Protocol_binary@@UAE_N_J@Z
?store_longlong@Protocol_binary@@UAE_N_J_N@Z
?store_decimal@Protocol_binary@@UAE_NPBVmy_decimal@@@Z
?store@Protocol_binary@@UAE_NPBDIPBUcharset_info_st@@@Z
?store@Protocol_binary@@UAE_NPBDIPBUcharset_info_st@@1@Z
?store@Protocol_binary@@UAE_NPAUst_mysql_time@@I@Z
?store_date@Protocol_binary@@UAE_NPAUst_mysql_time@@@Z
?store_time@Protocol_binary@@UAE_NPAUst_mysql_time@@I@Z
?store@Protocol_binary@@UAE_NMIPAVString@@@Z
?store@Protocol_binary@@UAE_NNIPAVString@@@Z
?store@Protocol_binary@@UAE_NPAVField@@@Z
?send_out_parameters@Protocol_binary@@UAE_NPAV?$List@VItem_param@@@@@Z
?net_send_error@@YA_NPAVTHD@@IPBD1@Z
?net_store_data@@YAPAEPAEPBEI@Z
?net_store_data@@YAPAEPAEH@Z
?net_store_data@@YAPAEPAE_J@Z
?net_send_error_packet@@YA_NPAVTHD@@IPBD1@Z
?net_send_ok@@YA_NPAVTHD@@II_K1PBD@Z
?net_send_eof@@YA_NPAVTHD@@II@Z
??0?$List_iterator_fast@VItem_param@@@@QAE@AAV?$List@VItem_param@@@@@Z
??E?$List_iterator_fast@VItem_param@@@@QAEPAVItem_param@@H@Z
?string2my_decimal@@YAHIPBVString@@PAVmy_decimal@@@Z
?val_decimal@Item_proc_int@@UAEPAVmy_decimal@@PAV2@@Z
?val_decimal@Item_proc_string@@UAEPAVmy_decimal@@PAV2@@Z
my_make_scrambled_password_323
my_make_scrambled_password
my_make_scrambled_password_sha1
hash_password
randominit
create_random_string
make_scrambled_password_323
scramble_323
check_scramble_323
get_salt_from_password_323
make_password_from_salt_323
make_scrambled_password
scramble
check_scramble
get_salt_from_password
make_password_from_salt
octet2hex
check_scramble_sha1
??0?$List@Up_elem_val@@@@QAE@XZ
?push_back@?$List@Up_elem_val@@@@QAE_NPAUp_elem_val@@@Z
??0partition_element@@QAE@XZ
??0partition_element@@QAE@PAV0@@Z
?function_defaults_apply_on_columns@COPY_INFO@@QAE_NPAUst_bitmap@@@Z
?get_clone@partition_info@@QAEPAV1@_N@Z
?get_full_clone@partition_info@@QAEPAV1@XZ
?set_named_partition_bitmap@partition_info@@QAE_NPBDI@Z
?set_partition_bitmaps@partition_info@@QAE_NPAUTABLE_LIST@@@Z
?set_up_defaults_for_partitioning@partition_info@@QAE_NPAVhandler@@PAUst_ha_create_information@@I@Z
?find_duplicate_field@partition_info@@QAEPADXZ
?find_duplicate_name@partition_info@@QAEPADXZ
?check_engine_mix@partition_info@@QAE_NPAUhandlerton@@_N@Z
?check_range_constants@partition_info@@QAE_NPAVTHD@@@Z
?check_list_constants@partition_info@@QAE_NPAVTHD@@@Z
?check_partition_info@partition_info@@QAE_NPAVTHD@@PAPAUhandlerton@@PAVhandler@@PAUst_ha_create_information@@_N@Z
?print_no_partition_found@partition_info@@QAEXPAUTABLE@@@Z
?print_debug@partition_info@@QAEXPBDPAI@Z
?get_column_item@partition_info@@QAEPAVItem@@PAV2@PAVField@@@Z
?fix_partition_values@partition_info@@QAE_NPAVTHD@@PAUp_elem_val@@PAVpartition_element@@I@Z
?fix_column_value_functions@partition_info@@QAE_NPAVTHD@@PAUp_elem_val@@I@Z
?fix_parser_data@partition_info@@QAE_NPAVTHD@@@Z
?add_max_value@partition_info@@QAE_NXZ
?init_col_val@partition_info@@QAEXPAUp_column_list_val@@PAVItem@@@Z
?reorganize_into_single_field_col_val@partition_info@@QAE_NXZ
?add_column_value@partition_info@@QAEPAUp_column_list_val@@XZ
?set_part_expr@partition_info@@QAE_NPADPAVItem@@0_N@Z
?compare_column_values@partition_info@@SAHPBX0@Z
?set_up_charset_field_preps@partition_info@@QAE_NXZ
?check_partition_field_length@partition_info@@QAE_NXZ
?init_column_part@partition_info@@QAE_NXZ
?add_column_list_value@partition_info@@QAE_NPAVTHD@@PAVItem@@@Z
?set_show_version_string@partition_info@@QAEXPAVString@@@Z
?get_part_elem@partition_info@@QAEPAVpartition_element@@PBDPADPAI@Z
?report_part_expr_error@partition_info@@QAEX_N@Z
?set_used_partition@partition_info@@QAE_NAAV?$List@VItem@@@@0AAVCOPY_INFO@@_NPAUst_bitmap@@@Z
?can_prune_insert@partition_info@@QAE_NPAVTHD@@W4enum_duplicates@@AAVCOPY_INFO@@AAV?$List@VItem@@@@3_NPAW4enum_can_prune@1@PA_NPAUst_bitmap@@@Z
?has_same_partitioning@partition_info@@QAE_NPAV1@@Z
?list_part_cmp@partition_info@@CAHPBX0@Z
?set_up_default_partitions@partition_info@@AAE_NPAVhandler@@PAUst_ha_create_information@@I@Z
?set_up_default_subpartitions@partition_info@@AAE_NPAVhandler@@PAUst_ha_create_information@@@Z
?create_default_partition_names@partition_info@@AAEPADIII@Z
?create_default_subpartition_name@partition_info@@AAEPADIPBD@Z
?prune_partition_bitmaps@partition_info@@AAE_NPAUTABLE_LIST@@@Z
?add_named_partition@partition_info@@AAE_NPBDI@Z
?is_field_in_part_expr@partition_info@@AAE_NAAV?$List@VItem@@@@@Z
?is_full_part_expr_in_fields@partition_info@@AAE_NAAV?$List@VItem@@@@@Z
?check_partition_dirs@@YA_NPAVpartition_info@@@Z
?has_external_data_or_index_dir@@YA_NAAVpartition_info@@@Z
?rewind@?$List_iterator@Vpartition_element@@@@QAEXXZ
?remove@?$List_iterator@Up_elem_val@@@@QAEXXZ
??_9Item@@$BBDE@AE
partition_info_list_part_cmp
partition_info_compare_column_values
??_9Item@@$BBII@AE
?process_unknown_string@File_parser_dummy_hook@@UAE_NAAPBDPAEPAUst_mem_root@@PBD@Z
?get_file_options_ulllist@@YA_NAAPBDPBD1PAEPAUFile_option@@PAUst_mem_root@@@Z
?parse_escaped_string@@YAPBDPBD0PAUst_mem_root@@PAUst_mysql_lex_string@@@Z
?sql_parse_prepare@@YAPAVFile_parser@@PBUst_mysql_lex_string@@PAUst_mem_root@@_N@Z
?sql_create_definition_file@@YADPBUst_mysql_lex_string@@00PAEPAUFile_option@@@Z
?rename_in_schema_file@@YADPAVTHD@@PBD111@Z
??0File_parser@@QAE@XZ
?parse@File_parser@@QBEDPAEPAUst_mem_root@@PAUFile_option@@IPAVUnknown_key_hook@@@Z
?read_escaped_string@@YADPBD0PAUst_mysql_lex_string@@@Z
?optimizer_trace_info@@3PAUst_field_info@@A DATA
?at_end@Opt_trace_iterator@@QBE_NXZ
??0Opt_trace_start@@QAE@PAVTHD@@PAUTABLE_LIST@@W4enum_sql_command@@PAV?$List@Vset_var_base@@@@PBDIPAVsp_printable@@PBUcharset_info_st@@@Z
??1Opt_trace_start@@QAE@XZ
?opt_trace_print_expanded_query@@YAXPAVTHD@@PAVst_select_lex@@PAVOpt_trace_object@@@Z
?opt_trace_disable_if_no_security_context_access@@YAXPAVTHD@@@Z
?opt_trace_disable_if_no_view_access@@YAXPAVTHD@@PAUTABLE_LIST@@1@Z
?opt_trace_disable_if_no_stored_proc_func_access@@YAXPAVTHD@@PAVsp_head@@@Z
?fill_optimizer_trace_info@@YAHPAVTHD@@PAUTABLE_LIST@@PAVItem@@@Z
?list_has_optimizer_trace_table@?A0x19ec3463@@YA_NPBUTABLE_LIST@@@Z
?sql_command_can_be_traced@?A0x19ec3463@@YA_NW4enum_sql_command@@@Z
?sets_var_optimizer_trace@?A0x19ec3463@@YA_NW4enum_sql_command@@PAV?$List@Vset_var_base@@@@@Z
?opt_trace_disable_if_no_tables_access@?A0x19ec3463@@YAXPAVTHD@@PAUTABLE_LIST@@@Z
?flag_names@Opt_trace_context@@2PAPBDA DATA
?feature_names@Opt_trace_context@@2PAPBDA DATA
?default_features@Opt_trace_context@@2W4feature_value@1@B DATA
?bool_as_text@?A0x7fd49493@@3PAUst_mysql_const_lex_string@@A DATA
??1Opt_trace_context@@QAE@XZ
?start@Opt_trace_context@@QAE_N_N000JJK_K@Z
?end@Opt_trace_context@@QAEXXZ
?support_I_S@Opt_trace_context@@QBE_NXZ
?set_query@Opt_trace_context@@QAEXPBDIPBUcharset_info_st@@@Z
?reset@Opt_trace_context@@QAEXXZ
?get_end_marker@Opt_trace_context@@QBE_NXZ
?get_one_line@Opt_trace_context@@QBE_NXZ
?missing_privilege@Opt_trace_context@@QAEXXZ
?get_current_stmt_in_gen@Opt_trace_context@@QAEPAVOpt_trace_stmt@@XZ
?get_next_stmt_for_I_S@Opt_trace_context@@QBEPBVOpt_trace_stmt@@PAJ@Z
??0Opt_trace_context_impl@Opt_trace_context@@QAE@XZ
?disable_I_S_for_this_and_children@Opt_trace_context_impl@Opt_trace_context@@QAEXXZ
?restore_I_S@Opt_trace_context_impl@Opt_trace_context@@QAEXXZ
??0?$Dynamic_array@PAVOpt_trace_stmt@@@@QAE@II@Z
?init@?$Dynamic_array@PAVOpt_trace_stmt@@@@QAEXII@Z
?at@?$Dynamic_array@PAVOpt_trace_stmt@@@@QAEAAPAVOpt_trace_stmt@@H@Z
?back@?$Dynamic_array@PAVOpt_trace_stmt@@@@QAEPAPAVOpt_trace_stmt@@XZ
?append@?$Dynamic_array@PAVOpt_trace_stmt@@@@QAE_NABQAVOpt_trace_stmt@@@Z
?pop@?$Dynamic_array@PAVOpt_trace_stmt@@@@QAEAAPAVOpt_trace_stmt@@XZ
?del@?$Dynamic_array@PAVOpt_trace_stmt@@@@QAEXI@Z
?elements@?$Dynamic_array@PAVOpt_trace_stmt@@@@QBEHXZ
??1?$Dynamic_array@PAVOpt_trace_stmt@@@@QAE@XZ
??1Opt_trace_context_impl@Opt_trace_context@@QAE@XZ
?purge_stmts@Opt_trace_context@@AAEX_N@Z
?allowed_mem_size_for_current_stmt@Opt_trace_context@@ABEIXZ
??0Opt_trace_iterator@@QAE@PAVOpt_trace_context@@@Z
?next@Opt_trace_iterator@@QAEXXZ
?get_value@Opt_trace_iterator@@QBEXPAUOpt_trace_info@@@Z
?set_not_empty@Opt_trace_struct@@QAE_NXZ
?check_key@Opt_trace_struct@@QAEPBDPBD@Z
?do_construct@Opt_trace_struct@@AAEXPAVOpt_trace_context@@_NPBDW4feature_value@2@@Z
?do_destruct@Opt_trace_struct@@AAEXXZ
?do_add@Opt_trace_struct@@AAEAAV1@PBD0I_N@Z
?do_add@Opt_trace_struct@@AAEAAV1@PBDPAVItem@@@Z
?do_add@Opt_trace_struct@@AAEAAV1@PBD_N@Z
?do_add@Opt_trace_struct@@AAEAAV1@PBD_J@Z
?do_add@Opt_trace_struct@@AAEAAV1@PBD_K@Z
?do_add@Opt_trace_struct@@AAEAAV1@PBDN@Z
?do_add_hex@Opt_trace_struct@@AAEAAV1@PBD_K@Z
?do_add_null@Opt_trace_struct@@AAEAAV1@PBD@Z
?do_add_utf8_table@Opt_trace_struct@@AAEAAV1@PBUTABLE@@@Z
??0Buffer@random_name_to_avoid_gcc_bug_29365@@QAE@XZ
?alloced_length@Buffer@random_name_to_avoid_gcc_bug_29365@@QBEIXZ
?length@Buffer@random_name_to_avoid_gcc_bug_29365@@QBEIXZ
?prealloc@Buffer@random_name_to_avoid_gcc_bug_29365@@QAEXXZ
?c_ptr_safe@Buffer@random_name_to_avoid_gcc_bug_29365@@QAEPADXZ
?ptr@Buffer@random_name_to_avoid_gcc_bug_29365@@QBEPBDXZ
?charset@Buffer@random_name_to_avoid_gcc_bug_29365@@QBEPBUcharset_info_st@@XZ
?set_charset@Buffer@random_name_to_avoid_gcc_bug_29365@@QAEXPBUcharset_info_st@@@Z
?append@Buffer@random_name_to_avoid_gcc_bug_29365@@QAEXPBDI@Z
?append@Buffer@random_name_to_avoid_gcc_bug_29365@@QAEXPBD@Z
?append_escaped@Buffer@random_name_to_avoid_gcc_bug_29365@@QAEXPBDI@Z
?append@Buffer@random_name_to_avoid_gcc_bug_29365@@QAEXD@Z
?get_allowed_mem_size@Buffer@random_name_to_avoid_gcc_bug_29365@@QBEIXZ
?get_missing_bytes@Buffer@random_name_to_avoid_gcc_bug_29365@@QBEIXZ
?set_allowed_mem_size@Buffer@random_name_to_avoid_gcc_bug_29365@@QAEXI@Z
??1Buffer@random_name_to_avoid_gcc_bug_29365@@QAE@XZ
??0Opt_trace_stmt@@QAE@PAVOpt_trace_context@@@Z
?end@Opt_trace_stmt@@QAEXXZ
?has_ended@Opt_trace_stmt@@QBE_NXZ
?set_allowed_mem_size@Opt_trace_stmt@@QAEXI@Z
?set_query@Opt_trace_stmt@@QAEXPBDIPBUcharset_info_st@@@Z
?open_struct@Opt_trace_stmt@@QAE_NPBDPAVOpt_trace_struct@@_ND@Z
?close_struct@Opt_trace_stmt@@QAEXPBD_ND@Z
?separator@Opt_trace_stmt@@QAEXXZ
?next_line@Opt_trace_stmt@@QAEXXZ
?add@Opt_trace_stmt@@QAEXPBD0I_N1@Z
?fill_info@Opt_trace_stmt@@QBEXPAUOpt_trace_info@@@Z
?trace_buffer_tail@Opt_trace_stmt@@QAEPBDI@Z
?alloced_length@Opt_trace_stmt@@QBEIXZ
?assert_current_struct@Opt_trace_stmt@@QBEXPBVOpt_trace_struct@@@Z
?missing_privilege@Opt_trace_stmt@@QAEXXZ
?support_I_S@Opt_trace_stmt@@QBE_NXZ
?disable_I_S@Opt_trace_stmt@@QAEXXZ
?restore_I_S@Opt_trace_stmt@@QAEXXZ
?make_unknown_key@Opt_trace_stmt@@QAEPBDXZ
??0?$Dynamic_array@PAVOpt_trace_struct@@@@QAE@II@Z
?init@?$Dynamic_array@PAVOpt_trace_struct@@@@QAEXII@Z
?back@?$Dynamic_array@PAVOpt_trace_struct@@@@QAEPAPAVOpt_trace_struct@@XZ
?append@?$Dynamic_array@PAVOpt_trace_struct@@@@QAE_NABQAVOpt_trace_struct@@@Z
?pop@?$Dynamic_array@PAVOpt_trace_struct@@@@QAEAAPAVOpt_trace_struct@@XZ
?elements@?$Dynamic_array@PAVOpt_trace_struct@@@@QBEHXZ
??1?$Dynamic_array@PAVOpt_trace_struct@@@@QAE@XZ
??1Opt_trace_stmt@@QAE@XZ
?opening_bracket@?A0x7fd49493@@YAD_N@Z
?closing_bracket@?A0x7fd49493@@YAD_N@Z
??$new_nothrow_w_my_error@VOpt_trace_context_impl@Opt_trace_context@@@@YAPAVOpt_trace_context_impl@Opt_trace_context@@XZ
??$new_nothrow_w_my_error@VOpt_trace_stmt@@PAVOpt_trace_context@@@@YAPAVOpt_trace_stmt@@PAVOpt_trace_context@@@Z
?make_const@Item_sum@@QAEXXZ
?make_const@Item_sum_count@@QAEX_J@Z
?simple_pred@@YA_NPAVItem_func@@PAPAVItem@@PA_N@Z
?opt_sum_query@@YAHPAVTHD@@PAUTABLE_LIST@@AAV?$List@VItem@@@@PAVItem@@@Z
?to_ulonglong@?$Bitmap@$0EA@@@QBE_KXZ
?mrr_persistent_flag_storage@@YAAAGPAXI@Z
?mrr_get_ptr_by_idx@@YAAAPADPAXI@Z
?dbug_print@Field@@QAEXXZ
?compare_elems@in_vector@@QAE_NII@Z
?get_cost_calc_buff_size@Unique@@SAHKI_K@Z
?get_size@Unique@@QBEIXZ
?get_max_in_memory_size@Unique@@QBE_KXZ
??0QUICK_RANGE@@QAE@XZ
??0QUICK_RANGE@@QAE@PBEIK0IKI@Z
?make_min_endpoint@QUICK_RANGE@@QAEXPAUst_key_range@@IK@Z
?make_min_endpoint@QUICK_RANGE@@QAEXPAUst_key_range@@@Z
?make_max_endpoint@QUICK_RANGE@@QAEXPAUst_key_range@@IK@Z
?make_max_endpoint@QUICK_RANGE@@QAEXPAUst_key_range@@@Z
??0QUICK_SELECT_I@@QAE@XZ
??1QUICK_SELECT_I@@UAE@XZ
?range_end@QUICK_SELECT_I@@UAEXXZ
?unique_key_range@QUICK_SELECT_I@@UAE_NXZ
?clustered_pk_range@QUICK_SELECT_I@@UAE_NXZ
?init_ror_merged_scan@QUICK_SELECT_I@@UAEH_N@Z
?save_last_pos@QUICK_SELECT_I@@UAEXXZ
?add_info_string@QUICK_SELECT_I@@UAEXPAVString@@@Z
?is_keys_used@QUICK_SELECT_I@@UAE_NPBUst_bitmap@@@Z
?is_valid@QUICK_SELECT_I@@UAE_NXZ
?make_reverse@QUICK_SELECT_I@@UAEPAV1@I@Z
?set_handler@QUICK_SELECT_I@@UAEXPAVhandler@@@Z
??0QUICK_SELECT_I@@QAE@ABV0@@Z
?quick_range_seq_init@@YAPAXPAXII@Z
?quick_range_seq_next@@YAIPAXPAUst_key_multi_range@@@Z
?get_quick_select_for_ref@@YAPAVQUICK_RANGE_SELECT@@PAVTHD@@PAUTABLE@@PAUst_table_ref@@_K@Z
?get_quick_keys@@YA_NPAVPARAM@@PAVQUICK_RANGE_SELECT@@PAUst_key_part@@PAVSEL_ARG@@PAEI4I@Z
?get_quick_select@@YAPAVQUICK_RANGE_SELECT@@PAVPARAM@@IPAVSEL_ARG@@IIPAUst_mem_root@@@Z
?cmp_next@QUICK_RANGE_SELECT@@IAEHPAVQUICK_RANGE@@@Z
?cmp_prev@QUICK_RANGE_SELECT@@IAEHPAVQUICK_RANGE@@@Z
?row_in_ranges@QUICK_RANGE_SELECT@@IAE_NXZ
??0QUICK_RANGE_SELECT@@QAE@PAVTHD@@PAUTABLE@@I_NPAUst_mem_root@@PA_N@Z
??1QUICK_RANGE_SELECT@@UAE@XZ
?need_sorted_output@QUICK_RANGE_SELECT@@UAEXXZ
?init@QUICK_RANGE_SELECT@@UAEHXZ
?reset@QUICK_RANGE_SELECT@@UAEHXZ
?get_next@QUICK_RANGE_SELECT@@UAEHXZ
?range_end@QUICK_RANGE_SELECT@@UAEXXZ
?get_next_prefix@QUICK_RANGE_SELECT@@QAEHIIPAE@Z
?reverse_sorted@QUICK_RANGE_SELECT@@UBE_NXZ
?reverse_sort_possible@QUICK_RANGE_SELECT@@UBE_NXZ
?unique_key_range@QUICK_RANGE_SELECT@@UAE_NXZ
?init_ror_merged_scan@QUICK_RANGE_SELECT@@UAEH_N@Z
?save_last_pos@QUICK_RANGE_SELECT@@UAEXXZ
?get_type@QUICK_RANGE_SELECT@@UAEHXZ
?add_keys_and_lengths@QUICK_RANGE_SELECT@@UAEXPAVString@@0@Z
?add_info_string@QUICK_RANGE_SELECT@@UAEXPAVString@@@Z
?dbug_dump@QUICK_RANGE_SELECT@@UAEXH_N@Z
?make_reverse@QUICK_RANGE_SELECT@@UAEPAVQUICK_SELECT_I@@I@Z
?set_handler@QUICK_RANGE_SELECT@@UAEXPAVhandler@@@Z
??0QUICK_RANGE_SELECT@@QAE@ABV0@@Z
??0QUICK_RANGE_SELECT_GEOM@@QAE@PAVTHD@@PAUTABLE@@I_NPAUst_mem_root@@PA_N@Z
?get_next@QUICK_RANGE_SELECT_GEOM@@UAEHXZ
??1QUICK_RANGE_SELECT_GEOM@@UAE@XZ
??0QUICK_INDEX_MERGE_SELECT@@QAE@PAVTHD@@PAUTABLE@@@Z
??1QUICK_INDEX_MERGE_SELECT@@UAE@XZ
?init@QUICK_INDEX_MERGE_SELECT@@UAEHXZ
?need_sorted_output@QUICK_INDEX_MERGE_SELECT@@UAEXXZ
?reset@QUICK_INDEX_MERGE_SELECT@@UAEHXZ
?get_next@QUICK_INDEX_MERGE_SELECT@@UAEHXZ
?reverse_sorted@QUICK_INDEX_MERGE_SELECT@@UBE_NXZ
?reverse_sort_possible@QUICK_INDEX_MERGE_SELECT@@UBE_NXZ
?unique_key_range@QUICK_INDEX_MERGE_SELECT@@UAE_NXZ
?get_type@QUICK_INDEX_MERGE_SELECT@@UAEHXZ
?add_keys_and_lengths@QUICK_INDEX_MERGE_SELECT@@UAEXPAVString@@0@Z
?add_info_string@QUICK_INDEX_MERGE_SELECT@@UAEXPAVString@@@Z
?is_keys_used@QUICK_INDEX_MERGE_SELECT@@UAE_NPBUst_bitmap@@@Z
?dbug_dump@QUICK_INDEX_MERGE_SELECT@@UAEXH_N@Z
?push_quick_back@QUICK_INDEX_MERGE_SELECT@@QAE_NPAVQUICK_RANGE_SELECT@@@Z
??0?$List@VQUICK_RANGE_SELECT@@@@QAE@XZ
?push_back@?$List@VQUICK_RANGE_SELECT@@@@QAE_NPAVQUICK_RANGE_SELECT@@@Z
?delete_elements@?$List@VQUICK_RANGE_SELECT@@@@QAEXXZ
??1?$List@VQUICK_RANGE_SELECT@@@@QAE@XZ
?read_keys_and_merge@QUICK_INDEX_MERGE_SELECT@@QAEHXZ
?clustered_pk_range@QUICK_INDEX_MERGE_SELECT@@UAE_NXZ
?is_valid@QUICK_INDEX_MERGE_SELECT@@UAE_NXZ
??0?$List_iterator_fast@VQUICK_RANGE_SELECT@@@@QAE@AAV?$List@VQUICK_RANGE_SELECT@@@@@Z
??E?$List_iterator_fast@VQUICK_RANGE_SELECT@@@@QAEPAVQUICK_RANGE_SELECT@@H@Z
?rewind@?$List_iterator_fast@VQUICK_RANGE_SELECT@@@@QAEXXZ
??0QUICK_ROR_INTERSECT_SELECT@@QAE@PAVTHD@@PAUTABLE@@_NPAUst_mem_root@@@Z
??1QUICK_ROR_INTERSECT_SELECT@@UAE@XZ
?init@QUICK_ROR_INTERSECT_SELECT@@UAEHXZ
?need_sorted_output@QUICK_ROR_INTERSECT_SELECT@@UAEXXZ
?reset@QUICK_ROR_INTERSECT_SELECT@@UAEHXZ
?get_next@QUICK_ROR_INTERSECT_SELECT@@UAEHXZ
?reverse_sorted@QUICK_ROR_INTERSECT_SELECT@@UBE_NXZ
?reverse_sort_possible@QUICK_ROR_INTERSECT_SELECT@@UBE_NXZ
?unique_key_range@QUICK_ROR_INTERSECT_SELECT@@UAE_NXZ
?get_type@QUICK_ROR_INTERSECT_SELECT@@UAEHXZ
?add_keys_and_lengths@QUICK_ROR_INTERSECT_SELECT@@UAEXPAVString@@0@Z
?add_info_string@QUICK_ROR_INTERSECT_SELECT@@UAEXPAVString@@@Z
?is_keys_used@QUICK_ROR_INTERSECT_SELECT@@UAE_NPBUst_bitmap@@@Z
?dbug_dump@QUICK_ROR_INTERSECT_SELECT@@UAEXH_N@Z
?init_ror_merged_scan@QUICK_ROR_INTERSECT_SELECT@@UAEH_N@Z
?push_quick_back@QUICK_ROR_INTERSECT_SELECT@@QAE_NPAVQUICK_RANGE_SELECT@@@Z
?is_valid@QUICK_ROR_INTERSECT_SELECT@@UAE_NXZ
??0QUICK_ROR_UNION_SELECT@@QAE@PAVTHD@@PAUTABLE@@@Z
??1QUICK_ROR_UNION_SELECT@@UAE@XZ
?init@QUICK_ROR_UNION_SELECT@@UAEHXZ
?need_sorted_output@QUICK_ROR_UNION_SELECT@@UAEXXZ
?reset@QUICK_ROR_UNION_SELECT@@UAEHXZ
?get_next@QUICK_ROR_UNION_SELECT@@UAEHXZ
?reverse_sorted@QUICK_ROR_UNION_SELECT@@UBE_NXZ
?reverse_sort_possible@QUICK_ROR_UNION_SELECT@@UBE_NXZ
?unique_key_range@QUICK_ROR_UNION_SELECT@@UAE_NXZ
?get_type@QUICK_ROR_UNION_SELECT@@UAEHXZ
?add_keys_and_lengths@QUICK_ROR_UNION_SELECT@@UAEXPAVString@@0@Z
?add_info_string@QUICK_ROR_UNION_SELECT@@UAEXPAVString@@@Z
?is_keys_used@QUICK_ROR_UNION_SELECT@@UAE_NPBUst_bitmap@@@Z
?dbug_dump@QUICK_ROR_UNION_SELECT@@UAEXH_N@Z
?push_quick_back@QUICK_ROR_UNION_SELECT@@QAE_NPAVQUICK_SELECT_I@@@Z
??0?$List@VQUICK_SELECT_I@@@@QAE@XZ
?push_back@?$List@VQUICK_SELECT_I@@@@QAE_NPAVQUICK_SELECT_I@@@Z
?delete_elements@?$List@VQUICK_SELECT_I@@@@QAEXXZ
??1?$List@VQUICK_SELECT_I@@@@QAE@XZ
?is_valid@QUICK_ROR_UNION_SELECT@@UAE_NXZ
??0?$List_iterator_fast@VQUICK_SELECT_I@@@@QAE@AAV?$List@VQUICK_SELECT_I@@@@@Z
??E?$List_iterator_fast@VQUICK_SELECT_I@@@@QAEPAVQUICK_SELECT_I@@H@Z
?next_prefix@QUICK_GROUP_MIN_MAX_SELECT@@AAEHXZ
?next_min_in_range@QUICK_GROUP_MIN_MAX_SELECT@@AAEHXZ
?next_max_in_range@QUICK_GROUP_MIN_MAX_SELECT@@AAEHXZ
?next_min@QUICK_GROUP_MIN_MAX_SELECT@@AAEHXZ
?next_max@QUICK_GROUP_MIN_MAX_SELECT@@AAEHXZ
?update_min_result@QUICK_GROUP_MIN_MAX_SELECT@@AAEXXZ
?update_max_result@QUICK_GROUP_MIN_MAX_SELECT@@AAEXXZ
??0QUICK_GROUP_MIN_MAX_SELECT@@QAE@PAUTABLE@@PAVJOIN@@_N22PAVKEY_PART_INFO@@IIIPAUst_key@@IN_KIPAEPAUst_mem_root@@2@Z
??1QUICK_GROUP_MIN_MAX_SELECT@@UAE@XZ
?add_range@QUICK_GROUP_MIN_MAX_SELECT@@QAE_NPAVSEL_ARG@@@Z
?update_key_stat@QUICK_GROUP_MIN_MAX_SELECT@@QAEXXZ
?adjust_prefix_ranges@QUICK_GROUP_MIN_MAX_SELECT@@QAEXXZ
?init@QUICK_GROUP_MIN_MAX_SELECT@@UAEHXZ
?need_sorted_output@QUICK_GROUP_MIN_MAX_SELECT@@UAEXXZ
?reset@QUICK_GROUP_MIN_MAX_SELECT@@UAEHXZ
?get_next@QUICK_GROUP_MIN_MAX_SELECT@@UAEHXZ
?reverse_sorted@QUICK_GROUP_MIN_MAX_SELECT@@UBE_NXZ
?reverse_sort_possible@QUICK_GROUP_MIN_MAX_SELECT@@UBE_NXZ
?unique_key_range@QUICK_GROUP_MIN_MAX_SELECT@@UAE_NXZ
?get_type@QUICK_GROUP_MIN_MAX_SELECT@@UAEHXZ
?add_keys_and_lengths@QUICK_GROUP_MIN_MAX_SELECT@@UAEXPAVString@@0@Z
?dbug_dump@QUICK_GROUP_MIN_MAX_SELECT@@UAEXH_N@Z
?append_loose_scan_type@QUICK_GROUP_MIN_MAX_SELECT@@UAEXPAVString@@@Z
??0QUICK_SELECT_DESC@@QAE@PAVQUICK_RANGE_SELECT@@IPA_N@Z
?get_next@QUICK_SELECT_DESC@@UAEHXZ
?reverse_sorted@QUICK_SELECT_DESC@@UBE_NXZ
?reverse_sort_possible@QUICK_SELECT_DESC@@UBE_NXZ
?get_type@QUICK_SELECT_DESC@@UAEHXZ
?make_reverse@QUICK_SELECT_DESC@@UAEPAVQUICK_SELECT_I@@I@Z
?range_reads_after_key@QUICK_SELECT_DESC@@AAE_NPAVQUICK_RANGE@@@Z
?reset@QUICK_SELECT_DESC@@EAEHXZ
??0?$List@VQUICK_RANGE@@@@QAE@XZ
?push_front@?$List@VQUICK_RANGE@@@@QAE_NPAVQUICK_RANGE@@@Z
??1?$List@VQUICK_RANGE@@@@QAE@XZ
??0?$List_iterator@VQUICK_RANGE@@@@QAE@AAV?$List@VQUICK_RANGE@@@@@Z
??E?$List_iterator@VQUICK_RANGE@@@@QAEPAVQUICK_RANGE@@H@Z
?rewind@?$List_iterator@VQUICK_RANGE@@@@QAEXXZ
?ref@?$List_iterator@VQUICK_RANGE@@@@QAEPAPAVQUICK_RANGE@@XZ
??1QUICK_SELECT_DESC@@UAE@XZ
??0SQL_SELECT@@QAE@XZ
??1SQL_SELECT@@QAE@XZ
?cleanup@SQL_SELECT@@QAEXXZ
?test_quick_select@SQL_SELECT@@QAEHPAVTHD@@V?$Bitmap@$0EA@@@_K2_NW4enum_order@st_order@@@Z
??0FT_SELECT@@QAE@PAVTHD@@PAUTABLE@@IPA_N@Z
??1FT_SELECT@@UAE@XZ
?init@FT_SELECT@@UAEHXZ
?reset@FT_SELECT@@UAEHXZ
?get_next@FT_SELECT@@UAEHXZ
?get_type@FT_SELECT@@UAEHXZ
?get_ft_select@@YAPAVFT_SELECT@@PAVTHD@@PAUTABLE@@I@Z
?make_select@@YAPAVSQL_SELECT@@PAUTABLE@@_K1PAVItem@@_NPAH@Z
?prune_partitions@@YA_NPAVTHD@@PAUTABLE@@PAVItem@@@Z
?store_key_image_to_rec@@YAXPAVField@@PAEI@Z
?add_null@Opt_trace_struct@@QAEAAV1@PBD@Z
??0SEL_ARG@@QAE@XZ
??0SEL_ARG@@QAE@AAV0@@Z
??0SEL_ARG@@QAE@PAVField@@PBE1@Z
??0SEL_ARG@@QAE@PAVField@@EPAE1EEE@Z
??0SEL_ARG@@QAE@W4Type@0@@Z
?is_same@SEL_ARG@@QBE_NPBV1@@Z
?all_same@SEL_ARG@@QBE_NPBV1@@Z
?merge_flags@SEL_ARG@@QAEXPAV1@@Z
?maybe_smaller@SEL_ARG@@QAEXXZ
?is_null_interval@SEL_ARG@@QAE_NXZ
?cmp_min_to_min@SEL_ARG@@QBEHPBV1@@Z
?cmp_min_to_max@SEL_ARG@@QBEHPBV1@@Z
?cmp_max_to_max@SEL_ARG@@QBEHPBV1@@Z
?cmp_max_to_min@SEL_ARG@@QBEHPBV1@@Z
?clone_and@SEL_ARG@@QAEPAV1@PAV1@@Z
?clone_first@SEL_ARG@@QAEPAV1@PAV1@@Z
?clone_last@SEL_ARG@@QAEPAV1@PAV1@@Z
?clone@SEL_ARG@@QAEPAV1@PAVRANGE_OPT_PARAM@@PAV1@PAPAV1@@Z
?copy_min@SEL_ARG@@QAE_NPAV1@@Z
?copy_max@SEL_ARG@@QAE_NPAV1@@Z
?copy_min_to_min@SEL_ARG@@QAEXPAV1@@Z
?copy_min_to_max@SEL_ARG@@QAEXPAV1@@Z
?copy_max_to_min@SEL_ARG@@QAEXPAV1@@Z
?store_min@SEL_ARG@@QAEHIPAPAEI@Z
?store_max@SEL_ARG@@QAEHIPAPAEI@Z
?store_min_key@SEL_ARG@@QAEHPAUst_key_part@@PAPAEPAII@Z
?store_max_key@SEL_ARG@@QAEHPAUst_key_part@@PAPAEPAII@Z
?insert@SEL_ARG@@QAEPAV1@PAV1@@Z
?tree_delete@SEL_ARG@@QAEPAV1@PAV1@@Z
?find_range@SEL_ARG@@QAEPAV1@PAV1@@Z
?rb_insert@SEL_ARG@@QAEPAV1@PAV1@@Z
?rb_delete_fixup@@YAPAVSEL_ARG@@PAV1@00@Z
?test_rb_tree@@YAHPAVSEL_ARG@@0@Z
?test_use_count@SEL_ARG@@QAEXPAV1@@Z
?first@SEL_ARG@@QAEPAV1@XZ
?first@SEL_ARG@@QBEPBV1@XZ
?last@SEL_ARG@@QAEPAV1@XZ
?make_root@SEL_ARG@@QAEXXZ
?simple_key@SEL_ARG@@QAE_NXZ
?increment_use_count@SEL_ARG@@QAEXJ@Z
?free_tree@SEL_ARG@@QAEXXZ
?parent_ptr@SEL_ARG@@QAEPAPAV1@XZ
?is_singlepoint@SEL_ARG@@QBE_NXZ
?clone_tree@SEL_ARG@@QAEPAV1@PAVRANGE_OPT_PARAM@@@Z
??1SEL_ARG@@QAE@XZ
??0SEL_TREE@@QAE@W4Type@0@@Z
??0SEL_TREE@@QAE@XZ
??0SEL_TREE@@QAE@PAV0@PAVRANGE_OPT_PARAM@@@Z
??0?$List@VSEL_IMERGE@@@@QAE@XZ
?push_back@?$List@VSEL_IMERGE@@@@QAE_NPAVSEL_IMERGE@@@Z
?head@?$List@VSEL_IMERGE@@@@QAEPAVSEL_IMERGE@@XZ
?concat@?$List@VSEL_IMERGE@@@@QAEXPAV1@@Z
??1?$List@VSEL_IMERGE@@@@QAE@XZ
?statement_should_be_aborted@RANGE_OPT_PARAM@@QBE_NXZ
?append_range@@YAXPAVString@@PBVKEY_PART_INFO@@PBE2I@Z
?sel_trees_can_be_ored@@YA_NPAVSEL_TREE@@0PAVRANGE_OPT_PARAM@@@Z
??0SEL_IMERGE@@QAE@XZ
??0SEL_IMERGE@@QAE@PAV0@PAVRANGE_OPT_PARAM@@@Z
?or_sel_tree@SEL_IMERGE@@QAEHPAVRANGE_OPT_PARAM@@PAVSEL_TREE@@@Z
?or_sel_tree_with_checks@SEL_IMERGE@@QAEHPAVRANGE_OPT_PARAM@@PAVSEL_TREE@@@Z
?or_sel_imerge_with_checks@SEL_IMERGE@@QAEHPAVRANGE_OPT_PARAM@@PAV1@@Z
??0?$List_iterator@VSEL_IMERGE@@@@QAE@AAV?$List@VSEL_IMERGE@@@@@Z
??E?$List_iterator@VSEL_IMERGE@@@@QAEPAVSEL_IMERGE@@H@Z
?remove@?$List_iterator@VSEL_IMERGE@@@@QAEXXZ
?imerge_list_and_list@@YAXPAV?$List@VSEL_IMERGE@@@@0@Z
?imerge_list_or_list@@YAHPAVRANGE_OPT_PARAM@@PAV?$List@VSEL_IMERGE@@@@1@Z
??2TABLE_READ_PLAN@@SAPAXIPAUst_mem_root@@@Z
??3TABLE_READ_PLAN@@SAXPAXI@Z
??3TABLE_READ_PLAN@@SAXPAXPAUst_mem_root@@@Z
??1TABLE_READ_PLAN@@UAE@XZ
??0TABLE_READ_PLAN@@QAE@XZ
??0TRP_RANGE@@QAE@PAVSEL_ARG@@II@Z
??1TRP_RANGE@@UAE@XZ
?make_quick@TRP_RANGE@@UAEPAVQUICK_SELECT_I@@PAVPARAM@@_NPAUst_mem_root@@@Z
?trace_basic_info@TRP_RANGE@@UBEXPBVPARAM@@PAVOpt_trace_object@@@Z
??0TRP_ROR_INTERSECT@@QAE@XZ
??1TRP_ROR_INTERSECT@@UAE@XZ
?make_quick@TRP_ROR_INTERSECT@@UAEPAVQUICK_SELECT_I@@PAVPARAM@@_NPAUst_mem_root@@@Z
?trace_basic_info@TRP_ROR_INTERSECT@@UBEXPBVPARAM@@PAVOpt_trace_object@@@Z
??0TRP_ROR_UNION@@QAE@XZ
??1TRP_ROR_UNION@@UAE@XZ
?make_quick@TRP_ROR_UNION@@UAEPAVQUICK_SELECT_I@@PAVPARAM@@_NPAUst_mem_root@@@Z
?trace_basic_info@TRP_ROR_UNION@@UBEXPBVPARAM@@PAVOpt_trace_object@@@Z
??0TRP_INDEX_MERGE@@QAE@XZ
??1TRP_INDEX_MERGE@@UAE@XZ
?make_quick@TRP_INDEX_MERGE@@UAEPAVQUICK_SELECT_I@@PAVPARAM@@_NPAUst_mem_root@@@Z
?trace_basic_info@TRP_INDEX_MERGE@@UBEXPBVPARAM@@PAVOpt_trace_object@@@Z
?trace_basic_info@TRP_GROUP_MIN_MAX@@UBEXPBVPARAM@@PAVOpt_trace_object@@@Z
??0TRP_GROUP_MIN_MAX@@QAE@_N00PAVKEY_PART_INFO@@IIIPAUst_key@@IIPAEPAVSEL_TREE@@PAVSEL_ARG@@I_K@Z
??1TRP_GROUP_MIN_MAX@@UAE@XZ
?make_quick@TRP_GROUP_MIN_MAX@@UAEPAVQUICK_SELECT_I@@PAVPARAM@@_NPAUst_mem_root@@@Z
?use_index_scan@TRP_GROUP_MIN_MAX@@QAEXXZ
??0?$List_iterator_fast@VSEL_IMERGE@@@@QAE@AAV?$List@VSEL_IMERGE@@@@@Z
??E?$List_iterator_fast@VSEL_IMERGE@@@@QAEPAVSEL_IMERGE@@H@Z
?ror_intersect_cpy@@YAXPAUROR_INTERSECT_INFO@@PBU1@@Z
??0?$List_iterator@VItem@@@@QAE@XZ
?is_spatial_operator@@YA_NW4Functype@Item_func@@@Z
??0Sel_arg_range_sequence@@QAE@PAVPARAM@@@Z
?reset@Sel_arg_range_sequence@@QAEXXZ
?stack_empty@Sel_arg_range_sequence@@QBE_NXZ
?stack_push_range@Sel_arg_range_sequence@@QAEXPAVSEL_ARG@@@Z
?stack_pop_range@Sel_arg_range_sequence@@QAEXXZ
?stack_size@Sel_arg_range_sequence@@QBEHXZ
?stack_top@Sel_arg_range_sequence@@QAEPAUst_range_seq_entry@@XZ
?sel_arg_range_seq_init@@YAPAXPAXII@Z
?sel_arg_range_seq_next@@YAIPAXPAUst_key_multi_range@@@Z
??_9Item@@$BBFA@AE
??0?$List@VItem_sum@@@@QAE@XZ
?push_back@?$List@VItem_sum@@@@QAE_NPAVItem_sum@@@Z
??0?$List_iterator@VItem_sum@@@@QAE@AAV?$List@VItem_sum@@@@@Z
??E?$List_iterator@VItem_sum@@@@QAEPAVItem_sum@@H@Z
?rewind@?$List_iterator@VItem_sum@@@@QAEXXZ
?add@Opt_trace_struct@@QAEAAV1@PBD_J@Z
??0Explain_context@@QAE@W4Explain_context_enum@@@Z
??1Explain_context@@QAE@XZ
??0mem_root_str@qep_row@@QAE@XZ
?cleanup@mem_root_str@qep_row@@QAEXXZ
?is_empty@mem_root_str@qep_row@@QAE_NXZ
?set@mem_root_str@qep_row@@QAE_NABVString@@@Z
?set@mem_root_str@qep_row@@QAE_NPBDI@Z
?strndup_root@mem_root_str@qep_row@@SAPADPAUst_mem_root@@PBDI@Z
??0?$column@I@qep_row@@QAE@XZ
?is_empty@?$column@I@qep_row@@QBE_NXZ
?cleanup@?$column@I@qep_row@@QAEXXZ
??0?$column@W4type_enum@st_select_lex@@@qep_row@@QAE@XZ
?cleanup@?$column@W4type_enum@st_select_lex@@@qep_row@@QAEXXZ
??0?$List@$$CBD@@QAE@XZ
??1?$List@$$CBD@@QAE@XZ
??0?$column@_J@qep_row@@QAE@XZ
?is_empty@?$column@_J@qep_row@@QBE_NXZ
?cleanup@?$column@_J@qep_row@@QAEXXZ
??0?$column@M@qep_row@@QAE@XZ
?is_empty@?$column@M@qep_row@@QBE_NXZ
?cleanup@?$column@M@qep_row@@QAEXXZ
??0?$List@Uextra@qep_row@@@@QAE@XZ
??1?$List@Uextra@qep_row@@@@QAE@XZ
??0?$List@Vcontext@opt_explain_json_namespace@@@@QAE@XZ
?push_back@?$List@Vcontext@opt_explain_json_namespace@@@@QAE_NPAVcontext@opt_explain_json_namespace@@@Z
?head@?$List@Vcontext@opt_explain_json_namespace@@@@QAEPAVcontext@opt_explain_json_namespace@@XZ
??1?$List@Vcontext@opt_explain_json_namespace@@@@QAE@XZ
??0qep_row@@QAE@XZ
??1qep_row@@UAE@XZ
?register_where_subquery@qep_row@@UAEXPAVst_select_lex_unit@@@Z
??0?$StringBuffer@$0IA@@@QAE@PBUcharset_info_st@@@Z
??1?$StringBuffer@$0IA@@@QAE@XZ
?get@Explain_format_flags@@QBE_NW4Explain_sort_clause@@W4Explain_sort_property@@@Z
?send_headers@Explain_format@@UAE_NPAVselect_result@@@Z
?send_headers@Explain_format_JSON@@UAE_NPAVselect_result@@@Z
?begin_context@Explain_format_JSON@@UAE_NW4Explain_context_enum@@PAVst_select_lex_unit@@PBVExplain_format_flags@@@Z
?end_context@Explain_format_JSON@@UAE_NW4Explain_context_enum@@@Z
?entry@Explain_format_JSON@@UAEPAVqep_row@@XZ
??0context@opt_explain_json_namespace@@QAE@W4Explain_context_enum@@PBDPAV01@@Z
??1context@opt_explain_json_namespace@@UAE@XZ
?format@context@opt_explain_json_namespace@@UAE_NPAVOpt_trace_context@@@Z
?is_query_block@context@opt_explain_json_namespace@@QBE_NXZ
?cacheable@context@opt_explain_json_namespace@@UAE_NXZ
?dependent@context@opt_explain_json_namespace@@UAE_NXZ
?entry@context@opt_explain_json_namespace@@UAEPAVqep_row@@XZ
?set_child@context@opt_explain_json_namespace@@UAEXPAV12@@Z
?set_union_result@context@opt_explain_json_namespace@@UAEXPAVunion_result_ctx@2@@Z
?add_subquery@context@opt_explain_json_namespace@@UAE_NW4subquery_list_enum@2@PAVsubquery_ctx@2@@Z
?format_nested_loop@context@opt_explain_json_namespace@@UAE_NPAVOpt_trace_context@@@Z
?add_join_tab@context@opt_explain_json_namespace@@UAE_NPAVjoinable_ctx@2@@Z
?set_sort@context@opt_explain_json_namespace@@UAEXPAVsort_ctx@2@@Z
?add_query_spec@context@opt_explain_json_namespace@@UAE_NPAV12@@Z
?find_and_set_derived@context@opt_explain_json_namespace@@UAE_NPAV12@@Z
?add_where_subquery@context@opt_explain_json_namespace@@UAE_NPAVsubquery_ctx@2@PAVst_select_lex_unit@@@Z
?format_derived@context@opt_explain_json_namespace@@UAE_NPAVOpt_trace_context@@@Z
?format_where@context@opt_explain_json_namespace@@UAE_NPAVOpt_trace_context@@@Z
?format_unit@context@opt_explain_json_namespace@@UAE_NPAVOpt_trace_context@@@Z
??0subquery_ctx@opt_explain_json_namespace@@QAE@W4Explain_context_enum@@PBDPAVcontext@1@@Z
?entry@subquery_ctx@opt_explain_json_namespace@@UAEPAVqep_row@@XZ
?cacheable@subquery_ctx@opt_explain_json_namespace@@UAE_NXZ
?dependent@subquery_ctx@opt_explain_json_namespace@@UAE_NXZ
?format@subquery_ctx@opt_explain_json_namespace@@UAE_NPAVOpt_trace_context@@@Z
?format_body@subquery_ctx@opt_explain_json_namespace@@EAE_NPAVOpt_trace_context@@PAVOpt_trace_object@@@Z
?format_query_block@subquery_ctx@opt_explain_json_namespace@@AAE_NPAVOpt_trace_context@@@Z
?set_child@subquery_ctx@opt_explain_json_namespace@@UAEXPAVcontext@2@@Z
?id@subquery_ctx@opt_explain_json_namespace@@UAEI_N@Z
??1subquery_ctx@opt_explain_json_namespace@@UAE@XZ
??_Dsubquery_ctx@opt_explain_json_namespace@@QAEXXZ
??0?$List@Vsubquery_ctx@opt_explain_json_namespace@@@@QAE@XZ
?push_back@?$List@Vsubquery_ctx@opt_explain_json_namespace@@@@QAE_NPAVsubquery_ctx@opt_explain_json_namespace@@@Z
??1?$List@Vsubquery_ctx@opt_explain_json_namespace@@@@QAE@XZ
??0?$List_iterator@Vsubquery_ctx@opt_explain_json_namespace@@@@QAE@AAV?$List@Vsubquery_ctx@opt_explain_json_namespace@@@@@Z
??E?$List_iterator@Vsubquery_ctx@opt_explain_json_namespace@@@@QAEPAVsubquery_ctx@opt_explain_json_namespace@@H@Z
??0unit_ctx@opt_explain_json_namespace@@QAE@W4Explain_context_enum@@PBDPAVcontext@1@@Z
?format_unit@unit_ctx@opt_explain_json_namespace@@UAE_NPAVOpt_trace_context@@@Z
?add_subquery@unit_ctx@opt_explain_json_namespace@@UAE_NW4subquery_list_enum@2@PAVsubquery_ctx@2@@Z
??1unit_ctx@opt_explain_json_namespace@@UAE@XZ
??_Dunit_ctx@opt_explain_json_namespace@@QAEXXZ
??0table_base_ctx@opt_explain_json_namespace@@QAE@W4Explain_context_enum@@PBDPAVcontext@1@@Z
?entry@table_base_ctx@opt_explain_json_namespace@@UAEPAVqep_row@@XZ
?format_body@table_base_ctx@opt_explain_json_namespace@@MAE_NPAVOpt_trace_context@@PAVOpt_trace_object@@@Z
?id@table_base_ctx@opt_explain_json_namespace@@UAEI_N@Z
?cacheable@table_base_ctx@opt_explain_json_namespace@@UAE_NXZ
?dependent@table_base_ctx@opt_explain_json_namespace@@UAE_NXZ
??1table_base_ctx@opt_explain_json_namespace@@UAE@XZ
??_Dtable_base_ctx@opt_explain_json_namespace@@QAEXXZ
??0?$List_iterator@$$CBD@@QAE@AAV?$List@$$CBD@@@Z
??E?$List_iterator@$$CBD@@QAEPBDH@Z
??0?$StringBuffer@$0EA@@@QAE@XZ
??1?$StringBuffer@$0EA@@@QAE@XZ
??0?$List_iterator@Uextra@qep_row@@@@QAE@AAV?$List@Uextra@qep_row@@@@@Z
??E?$List_iterator@Uextra@qep_row@@@@QAEPAUextra@qep_row@@H@Z
??0union_result_ctx@opt_explain_json_namespace@@QAE@PAVcontext@1@@Z
?id@union_result_ctx@opt_explain_json_namespace@@UAEI_N@Z
?cacheable@union_result_ctx@opt_explain_json_namespace@@UAE_NXZ
?dependent@union_result_ctx@opt_explain_json_namespace@@UAE_NXZ
?entry@union_result_ctx@opt_explain_json_namespace@@UAEPAVqep_row@@XZ
?format_unit@union_result_ctx@opt_explain_json_namespace@@UAE_NPAVOpt_trace_context@@@Z
?push_down_query_specs@union_result_ctx@opt_explain_json_namespace@@QAEXPAV?$List@Vcontext@opt_explain_json_namespace@@@@@Z
?add_subquery@union_result_ctx@opt_explain_json_namespace@@UAE_NW4subquery_list_enum@2@PAVsubquery_ctx@2@@Z
?format@union_result_ctx@opt_explain_json_namespace@@UAE_NPAVOpt_trace_context@@@Z
?format_body@union_result_ctx@opt_explain_json_namespace@@UAE_NPAVOpt_trace_context@@PAVOpt_trace_object@@@Z
??1union_result_ctx@opt_explain_json_namespace@@UAE@XZ
??_Dunion_result_ctx@opt_explain_json_namespace@@QAEXXZ
??0?$List_iterator@Vcontext@opt_explain_json_namespace@@@@QAE@AAV?$List@Vcontext@opt_explain_json_namespace@@@@@Z
??E?$List_iterator@Vcontext@opt_explain_json_namespace@@@@QAEPAVcontext@opt_explain_json_namespace@@H@Z
??0table_with_where_and_derived@opt_explain_json_namespace@@QAE@W4Explain_context_enum@@PBDPAVcontext@1@@Z
?id@table_with_where_and_derived@opt_explain_json_namespace@@UAEI_N@Z
?format_where@table_with_where_and_derived@opt_explain_json_namespace@@UAE_NPAVOpt_trace_context@@@Z
?format_derived@table_with_where_and_derived@opt_explain_json_namespace@@UAE_NPAVOpt_trace_context@@@Z
??1table_with_where_and_derived@opt_explain_json_namespace@@UAE@XZ
??_Dtable_with_where_and_derived@opt_explain_json_namespace@@QAEXXZ
??0joinable_ctx@opt_explain_json_namespace@@QAE@W4Explain_context_enum@@PBDPAVcontext@1@@Z
??1joinable_ctx@opt_explain_json_namespace@@UAE@XZ
??_Djoinable_ctx@opt_explain_json_namespace@@QAEXXZ
??0message_ctx@opt_explain_json_namespace@@QAE@PAVcontext@1@@Z
?format_body@message_ctx@opt_explain_json_namespace@@UAE_NPAVOpt_trace_context@@PAVOpt_trace_object@@@Z
?id@message_ctx@opt_explain_json_namespace@@UAEI_N@Z
?cacheable@message_ctx@opt_explain_json_namespace@@UAE_NXZ
?dependent@message_ctx@opt_explain_json_namespace@@UAE_NXZ
?entry@message_ctx@opt_explain_json_namespace@@UAEPAVqep_row@@XZ
?format_derived@message_ctx@opt_explain_json_namespace@@UAE_NPAVOpt_trace_context@@@Z
?format_where@message_ctx@opt_explain_json_namespace@@UAE_NPAVOpt_trace_context@@@Z
?find_and_set_derived@message_ctx@opt_explain_json_namespace@@UAE_NPAVcontext@2@@Z
?add_where_subquery@message_ctx@opt_explain_json_namespace@@UAE_NPAVsubquery_ctx@2@PAVst_select_lex_unit@@@Z
??1message_ctx@opt_explain_json_namespace@@UAE@XZ
??_Dmessage_ctx@opt_explain_json_namespace@@QAEXXZ
??0?$List@Vst_select_lex_unit@@@@QAE@XZ
?push_back@?$List@Vst_select_lex_unit@@@@QAE_NPAVst_select_lex_unit@@@Z
??1?$List@Vst_select_lex_unit@@@@QAE@XZ
??0join_tab_ctx@opt_explain_json_namespace@@QAE@W4Explain_context_enum@@PAVcontext@1@@Z
?format_body@join_tab_ctx@opt_explain_json_namespace@@UAE_NPAVOpt_trace_context@@PAVOpt_trace_object@@@Z
?id@join_tab_ctx@opt_explain_json_namespace@@UAEI_N@Z
?cacheable@join_tab_ctx@opt_explain_json_namespace@@UAE_NXZ
?dependent@join_tab_ctx@opt_explain_json_namespace@@UAE_NXZ
?entry@join_tab_ctx@opt_explain_json_namespace@@UAEPAVqep_row@@XZ
?format_derived@join_tab_ctx@opt_explain_json_namespace@@UAE_NPAVOpt_trace_context@@@Z
?format_where@join_tab_ctx@opt_explain_json_namespace@@UAE_NPAVOpt_trace_context@@@Z
?register_where_subquery@join_tab_ctx@opt_explain_json_namespace@@UAEXPAVst_select_lex_unit@@@Z
?add_where_subquery@join_tab_ctx@opt_explain_json_namespace@@UAE_NPAVsubquery_ctx@2@PAVst_select_lex_unit@@@Z
?find_and_set_derived@join_tab_ctx@opt_explain_json_namespace@@UAE_NPAVcontext@2@@Z
??1join_tab_ctx@opt_explain_json_namespace@@UAE@XZ
??_Djoin_tab_ctx@opt_explain_json_namespace@@QAEXXZ
??0?$List_iterator@Vst_select_lex_unit@@@@QAE@AAV?$List@Vst_select_lex_unit@@@@@Z
??E?$List_iterator@Vst_select_lex_unit@@@@QAEPAVst_select_lex_unit@@H@Z
??0simple_sort_ctx@opt_explain_json_namespace@@QAE@W4Explain_context_enum@@PBDPAVcontext@1@PBVExplain_format_flags@@W4Explain_sort_clause@@@Z
?add_join_tab@simple_sort_ctx@opt_explain_json_namespace@@UAE_NPAVjoinable_ctx@2@@Z
?add_where_subquery@simple_sort_ctx@opt_explain_json_namespace@@UAE_NPAVsubquery_ctx@2@PAVst_select_lex_unit@@@Z
?find_and_set_derived@simple_sort_ctx@opt_explain_json_namespace@@UAE_NPAVcontext@2@@Z
?id@simple_sort_ctx@opt_explain_json_namespace@@UAEI_N@Z
?cacheable@simple_sort_ctx@opt_explain_json_namespace@@UAE_NXZ
?dependent@simple_sort_ctx@opt_explain_json_namespace@@UAE_NXZ
?format_body@simple_sort_ctx@opt_explain_json_namespace@@MAE_NPAVOpt_trace_context@@PAVOpt_trace_object@@@Z
??1simple_sort_ctx@opt_explain_json_namespace@@UAE@XZ
??_Dsimple_sort_ctx@opt_explain_json_namespace@@QAEXXZ
??0simple_sort_with_subqueries_ctx@opt_explain_json_namespace@@QAE@W4Explain_context_enum@@PBDPAVcontext@1@W4subquery_list_enum@1@PBVExplain_format_flags@@W4Explain_sort_clause@@@Z
?add_subquery@simple_sort_with_subqueries_ctx@opt_explain_json_namespace@@UAE_NW4subquery_list_enum@2@PAVsubquery_ctx@2@@Z
?format_body@simple_sort_with_subqueries_ctx@opt_explain_json_namespace@@EAE_NPAVOpt_trace_context@@PAVOpt_trace_object@@@Z
??1simple_sort_with_subqueries_ctx@opt_explain_json_namespace@@UAE@XZ
??_Dsimple_sort_with_subqueries_ctx@opt_explain_json_namespace@@QAEXXZ
??0?$List@Vjoinable_ctx@opt_explain_json_namespace@@@@QAE@XZ
?push_back@?$List@Vjoinable_ctx@opt_explain_json_namespace@@@@QAE_NPAVjoinable_ctx@opt_explain_json_namespace@@@Z
?head@?$List@Vjoinable_ctx@opt_explain_json_namespace@@@@QAEPAVjoinable_ctx@opt_explain_json_namespace@@XZ
??1?$List@Vjoinable_ctx@opt_explain_json_namespace@@@@QAE@XZ
??0join_ctx@opt_explain_json_namespace@@QAE@W4Explain_context_enum@@PBDPAVcontext@1@@Z
?add_join_tab@join_ctx@opt_explain_json_namespace@@UAE_NPAVjoinable_ctx@2@@Z
?set_sort@join_ctx@opt_explain_json_namespace@@UAEXPAVsort_ctx@2@@Z
?find_and_set_derived@join_ctx@opt_explain_json_namespace@@UAE_NPAVcontext@2@@Z
?add_subquery@join_ctx@opt_explain_json_namespace@@UAE_NW4subquery_list_enum@2@PAVsubquery_ctx@2@@Z
?format_body@join_ctx@opt_explain_json_namespace@@MAE_NPAVOpt_trace_context@@PAVOpt_trace_object@@@Z
?format_nested_loop@join_ctx@opt_explain_json_namespace@@UAE_NPAVOpt_trace_context@@@Z
?id@join_ctx@opt_explain_json_namespace@@UAEI_N@Z
?cacheable@join_ctx@opt_explain_json_namespace@@UAE_NXZ
?dependent@join_ctx@opt_explain_json_namespace@@UAE_NXZ
?add_where_subquery@join_ctx@opt_explain_json_namespace@@UAE_NPAVsubquery_ctx@2@PAVst_select_lex_unit@@@Z
??1join_ctx@opt_explain_json_namespace@@UAE@XZ
??_Djoin_ctx@opt_explain_json_namespace@@QAEXXZ
??0sort_ctx@opt_explain_json_namespace@@QAE@W4Explain_context_enum@@PBDPAVcontext@1@PBVExplain_format_flags@@W4Explain_sort_clause@@@Z
?format_body@sort_ctx@opt_explain_json_namespace@@MAE_NPAVOpt_trace_context@@PAVOpt_trace_object@@@Z
??1sort_ctx@opt_explain_json_namespace@@UAE@XZ
??_Dsort_ctx@opt_explain_json_namespace@@QAEXXZ
??0sort_with_subqueries_ctx@opt_explain_json_namespace@@QAE@W4Explain_context_enum@@PBDPAVcontext@1@W4subquery_list_enum@1@PBVExplain_format_flags@@W4Explain_sort_clause@@@Z
?add_subquery@sort_with_subqueries_ctx@opt_explain_json_namespace@@UAE_NW4subquery_list_enum@2@PAVsubquery_ctx@2@@Z
?format_body@sort_with_subqueries_ctx@opt_explain_json_namespace@@EAE_NPAVOpt_trace_context@@PAVOpt_trace_object@@@Z
??1sort_with_subqueries_ctx@opt_explain_json_namespace@@UAE@XZ
??_Dsort_with_subqueries_ctx@opt_explain_json_namespace@@QAEXXZ
??0?$List_iterator@Vjoinable_ctx@opt_explain_json_namespace@@@@QAE@AAV?$List@Vjoinable_ctx@opt_explain_json_namespace@@@@@Z
??E?$List_iterator@Vjoinable_ctx@opt_explain_json_namespace@@@@QAEPAVjoinable_ctx@opt_explain_json_namespace@@H@Z
??0materialize_ctx@opt_explain_json_namespace@@QAE@PAVcontext@1@@Z
?id@materialize_ctx@opt_explain_json_namespace@@UAEI_N@Z
?cacheable@materialize_ctx@opt_explain_json_namespace@@UAE_NXZ
?dependent@materialize_ctx@opt_explain_json_namespace@@UAE_NXZ
?entry@materialize_ctx@opt_explain_json_namespace@@UAEPAVqep_row@@XZ
?add_subquery@materialize_ctx@opt_explain_json_namespace@@UAE_NW4subquery_list_enum@2@PAVsubquery_ctx@2@@Z
?add_join_tab@materialize_ctx@opt_explain_json_namespace@@UAE_NPAVjoinable_ctx@2@@Z
?add_where_subquery@materialize_ctx@opt_explain_json_namespace@@UAE_NPAVsubquery_ctx@2@PAVst_select_lex_unit@@@Z
?find_and_set_derived@materialize_ctx@opt_explain_json_namespace@@UAE_NPAVcontext@2@@Z
?format_unit@materialize_ctx@opt_explain_json_namespace@@UAE_NPAVOpt_trace_context@@@Z
?format_nested_loop@materialize_ctx@opt_explain_json_namespace@@UAE_NPAVOpt_trace_context@@@Z
?set_sort@materialize_ctx@opt_explain_json_namespace@@UAEXPAVsort_ctx@2@@Z
?format_body@materialize_ctx@opt_explain_json_namespace@@EAE_NPAVOpt_trace_context@@PAVOpt_trace_object@@@Z
??1materialize_ctx@opt_explain_json_namespace@@UAE@XZ
??_Dmaterialize_ctx@opt_explain_json_namespace@@QAEXXZ
??0duplication_weedout_ctx@opt_explain_json_namespace@@QAE@PAVcontext@1@@Z
?id@duplication_weedout_ctx@opt_explain_json_namespace@@UAEI_N@Z
?cacheable@duplication_weedout_ctx@opt_explain_json_namespace@@UAE_NXZ
?dependent@duplication_weedout_ctx@opt_explain_json_namespace@@UAE_NXZ
?add_join_tab@duplication_weedout_ctx@opt_explain_json_namespace@@UAE_NPAVjoinable_ctx@2@@Z
?add_subquery@duplication_weedout_ctx@opt_explain_json_namespace@@UAE_NW4subquery_list_enum@2@PAVsubquery_ctx@2@@Z
?add_where_subquery@duplication_weedout_ctx@opt_explain_json_namespace@@UAE_NPAVsubquery_ctx@2@PAVst_select_lex_unit@@@Z
?find_and_set_derived@duplication_weedout_ctx@opt_explain_json_namespace@@UAE_NPAVcontext@2@@Z
?format_nested_loop@duplication_weedout_ctx@opt_explain_json_namespace@@UAE_NPAVOpt_trace_context@@@Z
?format_unit@duplication_weedout_ctx@opt_explain_json_namespace@@UAE_NPAVOpt_trace_context@@@Z
?set_sort@duplication_weedout_ctx@opt_explain_json_namespace@@UAEXPAVsort_ctx@2@@Z
?format_body@duplication_weedout_ctx@opt_explain_json_namespace@@EAE_NPAVOpt_trace_context@@PAVOpt_trace_object@@@Z
??1duplication_weedout_ctx@opt_explain_json_namespace@@UAE@XZ
??_Dduplication_weedout_ctx@opt_explain_json_namespace@@QAEXXZ
??0union_ctx@opt_explain_json_namespace@@QAE@PAVcontext@1@@Z
?format_body@union_ctx@opt_explain_json_namespace@@EAE_NPAVOpt_trace_context@@PAVOpt_trace_object@@@Z
?id@union_ctx@opt_explain_json_namespace@@UAEI_N@Z
?cacheable@union_ctx@opt_explain_json_namespace@@UAE_NXZ
?dependent@union_ctx@opt_explain_json_namespace@@UAE_NXZ
?set_union_result@union_ctx@opt_explain_json_namespace@@UAEXPAVunion_result_ctx@2@@Z
?add_query_spec@union_ctx@opt_explain_json_namespace@@UAE_NPAVcontext@2@@Z
??1union_ctx@opt_explain_json_namespace@@UAE@XZ
??_Dunion_ctx@opt_explain_json_namespace@@QAEXXZ
?format_body@sort_ctx@opt_explain_json_namespace@@$2PPPPPPPM@A@AE_NPAVOpt_trace_context@@PAVOpt_trace_object@@@Z
?id@join_ctx@opt_explain_json_namespace@@$4PPPPPPPM@3AEI_N@Z
?cacheable@join_ctx@opt_explain_json_namespace@@$4PPPPPPPM@3AE_NXZ
?dependent@join_ctx@opt_explain_json_namespace@@$4PPPPPPPM@3AE_NXZ
?add_subquery@join_ctx@opt_explain_json_namespace@@$4PPPPPPPM@3AE_NW4subquery_list_enum@2@PAVsubquery_ctx@2@@Z
?format_nested_loop@join_ctx@opt_explain_json_namespace@@$4PPPPPPPM@3AE_NPAVOpt_trace_context@@@Z
?add_join_tab@join_ctx@opt_explain_json_namespace@@$4PPPPPPPM@3AE_NPAVjoinable_ctx@2@@Z
?set_sort@join_ctx@opt_explain_json_namespace@@$4PPPPPPPM@3AEXPAVsort_ctx@2@@Z
?find_and_set_derived@join_ctx@opt_explain_json_namespace@@$4PPPPPPPM@3AE_NPAVcontext@2@@Z
?add_where_subquery@join_ctx@opt_explain_json_namespace@@$4PPPPPPPM@3AE_NPAVsubquery_ctx@2@PAVst_select_lex_unit@@@Z
?format_unit@unit_ctx@opt_explain_json_namespace@@$4PPPPPPPM@BE@AE_NPAVOpt_trace_context@@@Z
?format@subquery_ctx@opt_explain_json_namespace@@$4PPPPPPPM@A@AE_NPAVOpt_trace_context@@@Z
?format_body@subquery_ctx@opt_explain_json_namespace@@$0PPPPPPPM@A@AE_NPAVOpt_trace_context@@PAVOpt_trace_object@@@Z
?id@subquery_ctx@opt_explain_json_namespace@@$4PPPPPPPM@A@AEI_N@Z
?cacheable@subquery_ctx@opt_explain_json_namespace@@$4PPPPPPPM@A@AE_NXZ
?dependent@subquery_ctx@opt_explain_json_namespace@@$4PPPPPPPM@A@AE_NXZ
?entry@subquery_ctx@opt_explain_json_namespace@@$4PPPPPPPM@A@AEPAVqep_row@@XZ
?set_child@subquery_ctx@opt_explain_json_namespace@@$4PPPPPPPM@A@AEXPAVcontext@2@@Z
?format@union_result_ctx@opt_explain_json_namespace@@$4PPPPPPPM@A@AE_NPAVOpt_trace_context@@@Z
?format_body@union_result_ctx@opt_explain_json_namespace@@$4PPPPPPPM@A@AE_NPAVOpt_trace_context@@PAVOpt_trace_object@@@Z
?id@union_result_ctx@opt_explain_json_namespace@@$4PPPPPPPM@A@AEI_N@Z
?cacheable@union_result_ctx@opt_explain_json_namespace@@$4PPPPPPPM@A@AE_NXZ
?dependent@union_result_ctx@opt_explain_json_namespace@@$4PPPPPPPM@A@AE_NXZ
?entry@union_result_ctx@opt_explain_json_namespace@@$4PPPPPPPM@A@AEPAVqep_row@@XZ
?add_subquery@union_result_ctx@opt_explain_json_namespace@@$4PPPPPPPM@A@AE_NW4subquery_list_enum@2@PAVsubquery_ctx@2@@Z
?format_unit@union_result_ctx@opt_explain_json_namespace@@$4PPPPPPPM@A@AE_NPAVOpt_trace_context@@@Z
?add_subquery@unit_ctx@opt_explain_json_namespace@@$4PPPPPPPM@A@AE_NW4subquery_list_enum@2@PAVsubquery_ctx@2@@Z
?format_unit@unit_ctx@opt_explain_json_namespace@@$4PPPPPPPM@A@AE_NPAVOpt_trace_context@@@Z
?format_body@table_base_ctx@opt_explain_json_namespace@@$2PPPPPPPM@A@AE_NPAVOpt_trace_context@@PAVOpt_trace_object@@@Z
?id@table_base_ctx@opt_explain_json_namespace@@$4PPPPPPPM@A@AEI_N@Z
?cacheable@table_base_ctx@opt_explain_json_namespace@@$4PPPPPPPM@A@AE_NXZ
?dependent@table_base_ctx@opt_explain_json_namespace@@$4PPPPPPPM@A@AE_NXZ
?entry@table_base_ctx@opt_explain_json_namespace@@$4PPPPPPPM@A@AEPAVqep_row@@XZ
?format_body@table_base_ctx@opt_explain_json_namespace@@$2PPPPPPPM@BA@AE_NPAVOpt_trace_context@@PAVOpt_trace_object@@@Z
?id@table_with_where_and_derived@opt_explain_json_namespace@@$4PPPPPPPM@A@AEI_N@Z
?cacheable@table_base_ctx@opt_explain_json_namespace@@$4PPPPPPPM@BA@AE_NXZ
?dependent@table_base_ctx@opt_explain_json_namespace@@$4PPPPPPPM@BA@AE_NXZ
?entry@table_base_ctx@opt_explain_json_namespace@@$4PPPPPPPM@BA@AEPAVqep_row@@XZ
?format_derived@table_with_where_and_derived@opt_explain_json_namespace@@$4PPPPPPPM@A@AE_NPAVOpt_trace_context@@@Z
?format_where@table_with_where_and_derived@opt_explain_json_namespace@@$4PPPPPPPM@A@AE_NPAVOpt_trace_context@@@Z
?format_body@message_ctx@opt_explain_json_namespace@@$4PPPPPPPM@A@AE_NPAVOpt_trace_context@@PAVOpt_trace_object@@@Z
?id@message_ctx@opt_explain_json_namespace@@$4PPPPPPPM@A@AEI_N@Z
?cacheable@message_ctx@opt_explain_json_namespace@@$4PPPPPPPM@A@AE_NXZ
?dependent@message_ctx@opt_explain_json_namespace@@$4PPPPPPPM@A@AE_NXZ
?entry@message_ctx@opt_explain_json_namespace@@$4PPPPPPPM@A@AEPAVqep_row@@XZ
?find_and_set_derived@message_ctx@opt_explain_json_namespace@@$4PPPPPPPM@A@AE_NPAVcontext@2@@Z
?add_where_subquery@message_ctx@opt_explain_json_namespace@@$4PPPPPPPM@A@AE_NPAVsubquery_ctx@2@PAVst_select_lex_unit@@@Z
?format_derived@message_ctx@opt_explain_json_namespace@@$4PPPPPPPM@A@AE_NPAVOpt_trace_context@@@Z
?format_where@message_ctx@opt_explain_json_namespace@@$4PPPPPPPM@A@AE_NPAVOpt_trace_context@@@Z
?format_body@join_tab_ctx@opt_explain_json_namespace@@$4PPPPPPPM@A@AE_NPAVOpt_trace_context@@PAVOpt_trace_object@@@Z
?id@join_tab_ctx@opt_explain_json_namespace@@$4PPPPPPPM@A@AEI_N@Z
?cacheable@join_tab_ctx@opt_explain_json_namespace@@$4PPPPPPPM@A@AE_NXZ
?dependent@join_tab_ctx@opt_explain_json_namespace@@$4PPPPPPPM@A@AE_NXZ
?entry@join_tab_ctx@opt_explain_json_namespace@@$4PPPPPPPM@A@AEPAVqep_row@@XZ
?find_and_set_derived@join_tab_ctx@opt_explain_json_namespace@@$4PPPPPPPM@A@AE_NPAVcontext@2@@Z
?add_where_subquery@join_tab_ctx@opt_explain_json_namespace@@$4PPPPPPPM@A@AE_NPAVsubquery_ctx@2@PAVst_select_lex_unit@@@Z
?format_derived@join_tab_ctx@opt_explain_json_namespace@@$4PPPPPPPM@A@AE_NPAVOpt_trace_context@@@Z
?format_where@join_tab_ctx@opt_explain_json_namespace@@$4PPPPPPPM@A@AE_NPAVOpt_trace_context@@@Z
?format_body@simple_sort_ctx@opt_explain_json_namespace@@$2PPPPPPPM@A@AE_NPAVOpt_trace_context@@PAVOpt_trace_object@@@Z
?id@simple_sort_ctx@opt_explain_json_namespace@@$4PPPPPPPM@A@AEI_N@Z
?cacheable@simple_sort_ctx@opt_explain_json_namespace@@$4PPPPPPPM@A@AE_NXZ
?dependent@simple_sort_ctx@opt_explain_json_namespace@@$4PPPPPPPM@A@AE_NXZ
?add_join_tab@simple_sort_ctx@opt_explain_json_namespace@@$4PPPPPPPM@A@AE_NPAVjoinable_ctx@2@@Z
?find_and_set_derived@simple_sort_ctx@opt_explain_json_namespace@@$4PPPPPPPM@A@AE_NPAVcontext@2@@Z
?add_where_subquery@simple_sort_ctx@opt_explain_json_namespace@@$4PPPPPPPM@A@AE_NPAVsubquery_ctx@2@PAVst_select_lex_unit@@@Z
?format_body@simple_sort_with_subqueries_ctx@opt_explain_json_namespace@@$0PPPPPPPM@A@AE_NPAVOpt_trace_context@@PAVOpt_trace_object@@@Z
?id@simple_sort_ctx@opt_explain_json_namespace@@$4PPPPPPPM@BA@AEI_N@Z
?cacheable@simple_sort_ctx@opt_explain_json_namespace@@$4PPPPPPPM@BA@AE_NXZ
?dependent@simple_sort_ctx@opt_explain_json_namespace@@$4PPPPPPPM@BA@AE_NXZ
?add_subquery@simple_sort_with_subqueries_ctx@opt_explain_json_namespace@@$4PPPPPPPM@A@AE_NW4subquery_list_enum@2@PAVsubquery_ctx@2@@Z
?add_join_tab@simple_sort_ctx@opt_explain_json_namespace@@$4PPPPPPPM@BA@AE_NPAVjoinable_ctx@2@@Z
?find_and_set_derived@simple_sort_ctx@opt_explain_json_namespace@@$4PPPPPPPM@BA@AE_NPAVcontext@2@@Z
?add_where_subquery@simple_sort_ctx@opt_explain_json_namespace@@$4PPPPPPPM@BA@AE_NPAVsubquery_ctx@2@PAVst_select_lex_unit@@@Z
?format_body@join_ctx@opt_explain_json_namespace@@$2PPPPPPPM@A@AE_NPAVOpt_trace_context@@PAVOpt_trace_object@@@Z
?id@join_ctx@opt_explain_json_namespace@@$4PPPPPPPM@A@AEI_N@Z
?cacheable@join_ctx@opt_explain_json_namespace@@$4PPPPPPPM@A@AE_NXZ
?dependent@join_ctx@opt_explain_json_namespace@@$4PPPPPPPM@A@AE_NXZ
?add_subquery@join_ctx@opt_explain_json_namespace@@$4PPPPPPPM@A@AE_NW4subquery_list_enum@2@PAVsubquery_ctx@2@@Z
?format_nested_loop@join_ctx@opt_explain_json_namespace@@$4PPPPPPPM@A@AE_NPAVOpt_trace_context@@@Z
?add_join_tab@join_ctx@opt_explain_json_namespace@@$4PPPPPPPM@A@AE_NPAVjoinable_ctx@2@@Z
?set_sort@join_ctx@opt_explain_json_namespace@@$4PPPPPPPM@A@AEXPAVsort_ctx@2@@Z
?find_and_set_derived@join_ctx@opt_explain_json_namespace@@$4PPPPPPPM@A@AE_NPAVcontext@2@@Z
?add_where_subquery@join_ctx@opt_explain_json_namespace@@$4PPPPPPPM@A@AE_NPAVsubquery_ctx@2@PAVst_select_lex_unit@@@Z
?format_unit@unit_ctx@opt_explain_json_namespace@@$4PPPPPPPM@BA@AE_NPAVOpt_trace_context@@@Z
?format_body@sort_with_subqueries_ctx@opt_explain_json_namespace@@$0PPPPPPPM@A@AE_NPAVOpt_trace_context@@PAVOpt_trace_object@@@Z
?id@join_ctx@opt_explain_json_namespace@@$4PPPPPPPM@BE@AEI_N@Z
?cacheable@join_ctx@opt_explain_json_namespace@@$4PPPPPPPM@BE@AE_NXZ
?dependent@join_ctx@opt_explain_json_namespace@@$4PPPPPPPM@BE@AE_NXZ
?add_subquery@sort_with_subqueries_ctx@opt_explain_json_namespace@@$4PPPPPPPM@A@AE_NW4subquery_list_enum@2@PAVsubquery_ctx@2@@Z
?format_nested_loop@join_ctx@opt_explain_json_namespace@@$4PPPPPPPM@BE@AE_NPAVOpt_trace_context@@@Z
?add_join_tab@join_ctx@opt_explain_json_namespace@@$4PPPPPPPM@BE@AE_NPAVjoinable_ctx@2@@Z
?set_sort@join_ctx@opt_explain_json_namespace@@$4PPPPPPPM@BE@AEXPAVsort_ctx@2@@Z
?find_and_set_derived@join_ctx@opt_explain_json_namespace@@$4PPPPPPPM@BE@AE_NPAVcontext@2@@Z
?add_where_subquery@join_ctx@opt_explain_json_namespace@@$4PPPPPPPM@BE@AE_NPAVsubquery_ctx@2@PAVst_select_lex_unit@@@Z
?format_unit@unit_ctx@opt_explain_json_namespace@@$4PPPPPPPM@CE@AE_NPAVOpt_trace_context@@@Z
?format_body@materialize_ctx@opt_explain_json_namespace@@$0PPPPPPPM@A@AE_NPAVOpt_trace_context@@PAVOpt_trace_object@@@Z
?id@materialize_ctx@opt_explain_json_namespace@@$4PPPPPPPM@A@AEI_N@Z
?cacheable@materialize_ctx@opt_explain_json_namespace@@$4PPPPPPPM@A@AE_NXZ
?dependent@materialize_ctx@opt_explain_json_namespace@@$4PPPPPPPM@A@AE_NXZ
?entry@materialize_ctx@opt_explain_json_namespace@@$4PPPPPPPM@A@AEPAVqep_row@@XZ
?add_subquery@materialize_ctx@opt_explain_json_namespace@@$4PPPPPPPM@A@AE_NW4subquery_list_enum@2@PAVsubquery_ctx@2@@Z
?format_nested_loop@materialize_ctx@opt_explain_json_namespace@@$4PPPPPPPM@A@AE_NPAVOpt_trace_context@@@Z
?add_join_tab@materialize_ctx@opt_explain_json_namespace@@$4PPPPPPPM@A@AE_NPAVjoinable_ctx@2@@Z
?set_sort@materialize_ctx@opt_explain_json_namespace@@$4PPPPPPPM@A@AEXPAVsort_ctx@2@@Z
?find_and_set_derived@materialize_ctx@opt_explain_json_namespace@@$4PPPPPPPM@A@AE_NPAVcontext@2@@Z
?add_where_subquery@materialize_ctx@opt_explain_json_namespace@@$4PPPPPPPM@A@AE_NPAVsubquery_ctx@2@PAVst_select_lex_unit@@@Z
?format_unit@materialize_ctx@opt_explain_json_namespace@@$4PPPPPPPM@A@AE_NPAVOpt_trace_context@@@Z
?format_body@duplication_weedout_ctx@opt_explain_json_namespace@@$0PPPPPPPM@A@AE_NPAVOpt_trace_context@@PAVOpt_trace_object@@@Z
?id@duplication_weedout_ctx@opt_explain_json_namespace@@$4PPPPPPPM@A@AEI_N@Z
?cacheable@duplication_weedout_ctx@opt_explain_json_namespace@@$4PPPPPPPM@A@AE_NXZ
?dependent@duplication_weedout_ctx@opt_explain_json_namespace@@$4PPPPPPPM@A@AE_NXZ
?add_subquery@duplication_weedout_ctx@opt_explain_json_namespace@@$4PPPPPPPM@A@AE_NW4subquery_list_enum@2@PAVsubquery_ctx@2@@Z
?format_nested_loop@duplication_weedout_ctx@opt_explain_json_namespace@@$4PPPPPPPM@A@AE_NPAVOpt_trace_context@@@Z
?add_join_tab@duplication_weedout_ctx@opt_explain_json_namespace@@$4PPPPPPPM@A@AE_NPAVjoinable_ctx@2@@Z
?set_sort@duplication_weedout_ctx@opt_explain_json_namespace@@$4PPPPPPPM@A@AEXPAVsort_ctx@2@@Z
?find_and_set_derived@duplication_weedout_ctx@opt_explain_json_namespace@@$4PPPPPPPM@A@AE_NPAVcontext@2@@Z
?add_where_subquery@duplication_weedout_ctx@opt_explain_json_namespace@@$4PPPPPPPM@A@AE_NPAVsubquery_ctx@2@PAVst_select_lex_unit@@@Z
?format_unit@duplication_weedout_ctx@opt_explain_json_namespace@@$4PPPPPPPM@A@AE_NPAVOpt_trace_context@@@Z
?format_body@union_ctx@opt_explain_json_namespace@@$0PPPPPPPM@A@AE_NPAVOpt_trace_context@@PAVOpt_trace_object@@@Z
?id@union_ctx@opt_explain_json_namespace@@$4PPPPPPPM@A@AEI_N@Z
?cacheable@union_ctx@opt_explain_json_namespace@@$4PPPPPPPM@A@AE_NXZ
?dependent@union_ctx@opt_explain_json_namespace@@$4PPPPPPPM@A@AE_NXZ
?set_union_result@union_ctx@opt_explain_json_namespace@@$4PPPPPPPM@A@AEXPAVunion_result_ctx@2@@Z
?add_subquery@unit_ctx@opt_explain_json_namespace@@$4PPPPPPPM@BA@AE_NW4subquery_list_enum@2@PAVsubquery_ctx@2@@Z
?add_query_spec@union_ctx@opt_explain_json_namespace@@$4PPPPPPPM@A@AE_NPAVcontext@2@@Z
??_8subquery_ctx@opt_explain_json_namespace@@7B@ DATA
??_8unit_ctx@opt_explain_json_namespace@@7B@ DATA
??_8table_base_ctx@opt_explain_json_namespace@@7B@ DATA
??_8union_result_ctx@opt_explain_json_namespace@@7Btable_base_ctx@1@@ DATA
??_8union_result_ctx@opt_explain_json_namespace@@7Bunit_ctx@1@@ DATA
??_8table_with_where_and_derived@opt_explain_json_namespace@@7B@ DATA
??_8joinable_ctx@opt_explain_json_namespace@@7B@ DATA
??_8message_ctx@opt_explain_json_namespace@@7Bjoinable_ctx@1@@ DATA
??_8message_ctx@opt_explain_json_namespace@@7Btable_with_where_and_derived@1@@ DATA
??_8join_tab_ctx@opt_explain_json_namespace@@7Bjoinable_ctx@1@@ DATA
??_8join_tab_ctx@opt_explain_json_namespace@@7Btable_with_where_and_derived@1@@ DATA
??_8simple_sort_ctx@opt_explain_json_namespace@@7B@ DATA
??_8simple_sort_with_subqueries_ctx@opt_explain_json_namespace@@7B@ DATA
??_8join_ctx@opt_explain_json_namespace@@7B@ DATA
??_8sort_ctx@opt_explain_json_namespace@@7B@ DATA
??_8sort_with_subqueries_ctx@opt_explain_json_namespace@@7B@ DATA
??_8materialize_ctx@opt_explain_json_namespace@@7Bjoinable_ctx@1@@ DATA
??_8materialize_ctx@opt_explain_json_namespace@@7Bjoin_ctx@1@@ DATA
??_8materialize_ctx@opt_explain_json_namespace@@7Btable_base_ctx@1@@ DATA
??_8duplication_weedout_ctx@opt_explain_json_namespace@@7Bjoinable_ctx@1@@ DATA
??_8duplication_weedout_ctx@opt_explain_json_namespace@@7Bjoin_ctx@1@@ DATA
??_8union_ctx@opt_explain_json_namespace@@7B@ DATA
??0Item_float@@QAE@NI@Z
?get_type_str@st_select_lex@@SAPBDW4type_enum@1@@Z
?get@?$column@I@qep_row@@QBEIXZ
?is_empty@?$column@W4type_enum@st_select_lex@@@qep_row@@QBE_NXZ
?get@?$column@W4type_enum@st_select_lex@@@qep_row@@QBE?AW4type_enum@st_select_lex@@XZ
?get@?$column@_J@qep_row@@QBE_JXZ
?get@?$column@M@qep_row@@QBEMXZ
?cleanup@qep_row@@QAEXXZ
?send_headers@Explain_format_traditional@@UAE_NPAVselect_result@@@Z
?flush_entry@Explain_format_traditional@@UAE_NXZ
?push_select_type@Explain_format_traditional@@AAE_NPAV?$List@VItem@@@@@Z
??0?$StringBuffer@$0EAA@@@QAE@XZ
??1?$StringBuffer@$0EAA@@@QAE@XZ
??0?$StringBuffer@$0EA@@@QAE@PBUcharset_info_st@@@Z
?join_type_str@@3PAPBDA DATA
?explain_no_table@@YA_NPAVTHD@@PAVJOIN@@PBD@Z
?explain_no_table@@YA_NPAVTHD@@PBD_K@Z
?explain_single_table_modification@@YA_NPAVTHD@@PAUTABLE@@PBVSQL_SELECT@@I_K_N444@Z
?explain_query_specification@@YA_NPAVTHD@@PAVJOIN@@@Z
?explain_multi_table_modification@@YA_NPAVTHD@@PAVselect_result_interceptor@@@Z
?explain_query_expression@@YA_NPAVTHD@@PAVselect_result@@@Z
?get_engine_for_explain@Item_subselect@@QBEPBVsubselect_engine@@XZ
?get_join_tab@subselect_hash_sj_engine@@QBEPBUst_join_table@@XZ
?last_select@st_select_lex@@QAEPAV1@XZ
?get_type_str@st_select_lex@@QAEPBDPBVTHD@@@Z
?is_dependent@st_select_lex@@QBE_NXZ
?reset_offset_limit_cnt@select_result@@QAEXXZ
??1Lazy@@UAE@XZ
??0Lazy@@QAE@XZ
?set@mem_root_str@qep_row@@QAE_NPBD@Z
?set@mem_root_str@qep_row@@QAEXPAVLazy@@@Z
?set_const@mem_root_str@qep_row@@QAEXPBD@Z
?set_const@mem_root_str@qep_row@@QAEXPBDI@Z
??0extra@qep_row@@QAE@W4Extra_tag@@PBD@Z
?set@?$column@I@qep_row@@QAEXI@Z
?set@?$column@W4type_enum@st_select_lex@@@qep_row@@QAEXW4type_enum@st_select_lex@@@Z
?set@?$column@_J@qep_row@@QAEX_J@Z
?set@?$column@M@qep_row@@QAEXM@Z
?push_back@?$List@Uextra@qep_row@@@@QAE_NPAUextra@qep_row@@@Z
??0Explain_subquery_marker@@QAE@PAVqep_row@@W4Explain_context_enum@@@Z
?any@Explain_format_flags@@QBE_NW4Explain_sort_property@@@Z
??0Lazy_condition@Explain@@QAE@PAVItem@@@Z
?eval@Lazy_condition@Explain@@UAE_NPAVString@@@Z
??1Lazy_condition@Explain@@UAE@XZ
??0Explain@@IAE@W4Explain_context_enum@@PAVTHD@@PAVJOIN@@@Z
??1Explain@@UAE@XZ
?send@Explain@@QAE_NXZ
?shallow_explain@Explain@@MAE_NXZ
?explain_subqueries@Explain@@IAE_NPAVselect_result@@@Z
?mark_subqueries@Explain@@IAE_NPAVItem@@PAVqep_row@@W4Explain_context_enum@@@Z
?mark_order_subqueries@Explain@@IAE_NABVORDER_with_src@JOIN@@@Z
?prepare_columns@Explain@@IAE_NXZ
?describe@Explain@@IBE_NE@Z
?select_lex@Explain@@IBEPAVst_select_lex@@XZ
?prepare@Explain@@IAE_NPAVselect_result@@@Z
?push_extra@Explain@@IAE_NW4Extra_tag@@@Z
?push_extra@Explain@@IAE_NW4Extra_tag@@ABVString@@@Z
?push_extra@Explain@@IAE_NW4Extra_tag@@PBD@Z
?explain_id@Explain@@MAE_NXZ
?explain_select_type@Explain@@MAE_NXZ
?explain_table_name@Explain@@MAE_NXZ
?explain_partitions@Explain@@MAE_NXZ
?explain_join_type@Explain@@MAE_NXZ
?explain_possible_keys@Explain@@MAE_NXZ
?explain_key_and_len@Explain@@MAE_NXZ
?explain_ref@Explain@@MAE_NXZ
?explain_rows_and_filtered@Explain@@MAE_NXZ
?explain_extra@Explain@@MAE_NXZ
?explain_modify_flags@Explain@@MAE_NXZ
??0Explain_no_table@@QAE@PAVTHD@@PAVJOIN@@PBD@Z
??0Explain_no_table@@QAE@PAVTHD@@PBD_K@Z
?shallow_explain@Explain_no_table@@MAE_NXZ
?explain_rows_and_filtered@Explain_no_table@@MAE_NXZ
?explain_extra@Explain_no_table@@MAE_NXZ
??1Explain_no_table@@UAE@XZ
??0Explain_union_result@@QAE@PAVTHD@@PAVJOIN@@@Z
?explain_id@Explain_union_result@@MAE_NXZ
?explain_table_name@Explain_union_result@@MAE_NXZ
?explain_join_type@Explain_union_result@@MAE_NXZ
?explain_extra@Explain_union_result@@MAE_NXZ
??1Explain_union_result@@UAE@XZ
??0Explain_table_base@@IAE@W4Explain_context_enum@@QAVTHD@@QAVJOIN@@@Z
??0Explain_table_base@@IAE@W4Explain_context_enum@@QAVTHD@@QAUTABLE@@@Z
?explain_partitions@Explain_table_base@@MAE_NXZ
?explain_possible_keys@Explain_table_base@@MAE_NXZ
?explain_key_parts@Explain_table_base@@IAE_NHI@Z
?explain_key_and_len_quick@Explain_table_base@@IAE_NPBVSQL_SELECT@@@Z
?explain_key_and_len_index@Explain_table_base@@IAE_NH@Z
?explain_key_and_len_index@Explain_table_base@@IAE_NHII@Z
?explain_extra_common@Explain_table_base@@IAE_NPBVSQL_SELECT@@PBUst_join_table@@HI@Z
?explain_tmptable_and_filesort@Explain_table_base@@IAE_N_N0@Z
?explain_modify_flags@Explain_table_base@@MAE_NXZ
??1Explain_table_base@@UAE@XZ
??0Explain_join@@QAE@PAVTHD@@PAVJOIN@@_N22@Z
?begin_sort_context@Explain_join@@AAE_NW4Explain_sort_clause@@W4Explain_context_enum@@@Z
?end_sort_context@Explain_join@@AAE_NW4Explain_sort_clause@@W4Explain_context_enum@@@Z
?begin_simple_sort_context@Explain_join@@AAE_NW4Explain_sort_clause@@W4Explain_context_enum@@@Z
?end_simple_sort_context@Explain_join@@AAE_NW4Explain_sort_clause@@W4Explain_context_enum@@@Z
?explain_join_tab@Explain_join@@AAE_NI@Z
?shallow_explain@Explain_join@@MAE_NXZ
?explain_table_name@Explain_join@@MAE_NXZ
?explain_join_type@Explain_join@@MAE_NXZ
?explain_key_and_len@Explain_join@@MAE_NXZ
?explain_ref@Explain_join@@MAE_NXZ
?explain_rows_and_filtered@Explain_join@@MAE_NXZ
?explain_extra@Explain_join@@MAE_NXZ
?explain_select_type@Explain_join@@MAE_NXZ
?explain_id@Explain_join@@MAE_NXZ
??1Explain_join@@UAE@XZ
??0Explain_table@@QAE@QAVTHD@@QAUTABLE@@PBVSQL_SELECT@@I_K_N444@Z
?explain_modify_flags@Explain_table@@UAE_NXZ
?explain_tmptable_and_filesort@Explain_table@@EAE_N_N0@Z
?shallow_explain@Explain_table@@EAE_NXZ
?explain_ref@Explain_table@@EAE_NXZ
?explain_table_name@Explain_table@@EAE_NXZ
?explain_join_type@Explain_table@@EAE_NXZ
?explain_key_and_len@Explain_table@@EAE_NXZ
?explain_rows_and_filtered@Explain_table@@EAE_NXZ
?explain_extra@Explain_table@@EAE_NXZ
??1Explain_table@@UAE@XZ
??_9Item@@$BBJA@AE
??_9Item@@$BBJE@AE
??0?$StringBuffer@$0CAA@@@QAE@PBUcharset_info_st@@@Z
??1?$StringBuffer@$0CAA@@@QAE@XZ
??0?$StringBuffer@$0KA@@@QAE@PBUcharset_info_st@@@Z
??1?$StringBuffer@$0KA@@@QAE@XZ
??0?$StringBuffer@$0CA@@@QAE@PBUcharset_info_st@@@Z
??0?$StringBuffer@$0EA@@@QAE@PBDIPBUcharset_info_st@@@Z
??0explain_send@@QAE@PAVselect_result_interceptor@@@Z
?prepare@explain_send@@MAEHAAV?$List@VItem@@@@PAVst_select_lex_unit@@@Z
?prepare2@explain_send@@MAEHXZ
?initialize_tables@explain_send@@MAE_NPAVJOIN@@@Z
?cleanup@explain_send@@MAEXXZ
??1explain_send@@UAE@XZ
my_net_init
net_end
net_clear
net_realloc
net_flush
my_net_write
net_write_command
net_write_packet
my_net_read
my_net_set_write_timeout
my_net_set_read_timeout
?print_decimal@@YAXPBVmy_decimal@@@Z
?print_decimal_buff@@YAXPBVmy_decimal@@PBEH@Z
?dbug_decimal_as_string@@YAPBDPADPBVmy_decimal@@@Z
?str_set_decimal@@YA_NIPBVmy_decimal@@IIDPAVString@@PBUcharset_info_st@@@Z
?decimal_operation_results@@YAHH@Z
?my_decimal2decimal@@YAXPBVmy_decimal@@PAV1@@Z
?my_decimal2binary@@YAHIPBVmy_decimal@@PAEHH@Z
?my_decimal2string@@YAHIPBVmy_decimal@@IIDPAVString@@@Z
?str2my_decimal@@YAHIPBDIPBUcharset_info_st@@PAVmy_decimal@@@Z
?date2my_decimal@@YAPAVmy_decimal@@PBUst_mysql_time@@PAV1@@Z
?time2my_decimal@@YAPAVmy_decimal@@PBUst_mysql_time@@PAV1@@Z
?timeval2my_decimal@@YAPAVmy_decimal@@PBUtimeval@@PAV1@@Z
?my_decimal_trim@@YAXPAKPAI@Z
_my_b_net_read
?MAX_SEARCH_DEPTH@Deadlock_detection_visitor@@0IB DATA
?m_namespace_to_wait_state_name@MDL_key@@0PAUPSI_stage_info_v1@@A DATA
?m_granted_incompatible@MDL_scoped_lock@@0QBGB DATA
?m_waiting_incompatible@MDL_scoped_lock@@0QBGB DATA
?m_granted_incompatible@MDL_object_lock@@0QBGB DATA
?m_waiting_incompatible@MDL_object_lock@@0QBGB DATA
?mdl_locks_cache_size@@3KA DATA
?mdl_locks_hash_partitions@@3KA DATA
?swap@I_P_List_null_counter@@IAEXAAV1@@Z
?init_psi_keys@MDL_key@@SAXXZ
?mdl_key_init@MDL_key@@QAEXPBV1@@Z
?is_equal@MDL_key@@QBE_NPBV1@@Z
?cmp@MDL_key@@QBEHPBV1@@Z
??0MDL_key@@QAE@PBV0@@Z
?get_wait_state_name@MDL_key@@QBEPBUPSI_stage_info_v1@@XZ
??$min@G@std@@YAABGABG0@Z
?init@MDL_request@@QAEXW4enum_mdl_namespace@MDL_key@@PBD1W4enum_mdl_type@@W4enum_mdl_duration@@@Z
?init@MDL_request@@QAEXPBVMDL_key@@W4enum_mdl_type@@W4enum_mdl_duration@@@Z
??1MDL_wait_for_graph_visitor@@UAE@XZ
??0MDL_wait_for_graph_visitor@@QAE@XZ
??1MDL_wait_for_subgraph@@UAE@XZ
?has_pending_conflicting_lock@MDL_ticket@@QBE_NXZ
?get_ctx@MDL_ticket@@QBEPAVMDL_context@@XZ
?get_type@MDL_ticket@@QBE?AW4enum_mdl_type@@XZ
?get_lock@MDL_ticket@@QBEPAVMDL_lock@@XZ
?downgrade_lock@MDL_ticket@@QAEXW4enum_mdl_type@@@Z
?has_stronger_or_equal_type@MDL_ticket@@QBE_NW4enum_mdl_type@@@Z
?is_incompatible_when_granted@MDL_ticket@@QBE_NW4enum_mdl_type@@@Z
?is_incompatible_when_waiting@MDL_ticket@@QBE_NW4enum_mdl_type@@@Z
?accept_visitor@MDL_ticket@@UAE_NPAVMDL_wait_for_graph_visitor@@@Z
?get_deadlock_weight@MDL_ticket@@UBEIXZ
??0MDL_ticket@@AAE@PAVMDL_context@@W4enum_mdl_type@@W4enum_mdl_duration@@@Z
?create@MDL_ticket@@CAPAV1@PAVMDL_context@@W4enum_mdl_type@@W4enum_mdl_duration@@@Z
?destroy@MDL_ticket@@CAXPAV1@@Z
??1MDL_ticket@@UAE@XZ
??0MDL_wait@@QAE@XZ
??1MDL_wait@@QAE@XZ
?set_status@MDL_wait@@QAE_NW4enum_wait_status@1@@Z
?get_status@MDL_wait@@QAE?AW4enum_wait_status@1@XZ
?reset_status@MDL_wait@@QAEXXZ
?timed_wait@MDL_wait@@QAE?AW4enum_wait_status@1@PAVMDL_context_owner@@PAUtimespec@@_NPBUPSI_stage_info_v1@@@Z
??0?$I_P_List_no_push_back@VMDL_ticket@@@@IAE@PAPAVMDL_ticket@@@Z
?set_last@?$I_P_List_no_push_back@VMDL_ticket@@@@IAEXPAPAVMDL_ticket@@@Z
?swap@?$I_P_List_no_push_back@VMDL_ticket@@@@IAEXAAV1@@Z
??0?$I_P_List@VMDL_ticket@@U?$I_P_List_adapter@VMDL_ticket@@$03$07@@VI_P_List_null_counter@@V?$I_P_List_no_push_back@VMDL_ticket@@@@@@QAE@XZ
?push_front@?$I_P_List@VMDL_ticket@@U?$I_P_List_adapter@VMDL_ticket@@$03$07@@VI_P_List_null_counter@@V?$I_P_List_no_push_back@VMDL_ticket@@@@@@QAEXPAVMDL_ticket@@@Z
?remove@?$I_P_List@VMDL_ticket@@U?$I_P_List_adapter@VMDL_ticket@@$03$07@@VI_P_List_null_counter@@V?$I_P_List_no_push_back@VMDL_ticket@@@@@@QAEXPAVMDL_ticket@@@Z
?swap@?$I_P_List@VMDL_ticket@@U?$I_P_List_adapter@VMDL_ticket@@$03$07@@VI_P_List_null_counter@@V?$I_P_List_no_push_back@VMDL_ticket@@@@@@QAEXAAV1@@Z
??0MDL_context@@QAE@XZ
?destroy@MDL_context@@QAEXXZ
?try_acquire_lock@MDL_context@@QAE_NPAVMDL_request@@@Z
?acquire_lock@MDL_context@@QAE_NPAVMDL_request@@K@Z
?acquire_locks@MDL_context@@QAE_NPAV?$I_P_List@VMDL_request@@U?$I_P_List_adapter@VMDL_request@@$07$0M@@@VI_P_List_counter@@V?$I_P_List_no_push_back@VMDL_request@@@@@@K@Z
?upgrade_shared_lock@MDL_context@@QAE_NPAVMDL_ticket@@W4enum_mdl_type@@K@Z
?clone_ticket@MDL_context@@QAE_NPAVMDL_request@@@Z
?release_all_locks_for_name@MDL_context@@QAEXPAVMDL_ticket@@@Z
?release_lock@MDL_context@@QAEXPAVMDL_ticket@@@Z
?is_lock_owner@MDL_context@@QAE_NW4enum_mdl_namespace@MDL_key@@PBD1W4enum_mdl_type@@@Z
?has_lock@MDL_context@@QAE_NABVMDL_savepoint@@PAVMDL_ticket@@@Z
?set_explicit_duration_for_all_locks@MDL_context@@QAEXXZ
?set_transaction_duration_for_all_locks@MDL_context@@QAEXXZ
?set_lock_duration@MDL_context@@QAEXPAVMDL_ticket@@W4enum_mdl_duration@@@Z
?release_statement_locks@MDL_context@@QAEXXZ
?release_transactional_locks@MDL_context@@QAEXXZ
?rollback_to_savepoint@MDL_context@@QAEXABVMDL_savepoint@@@Z
?get_owner@MDL_context@@QAEPAVMDL_context_owner@@XZ
?get_deadlock_weight@MDL_context@@QBEIXZ
?get_needs_thr_lock_abort@MDL_context@@QBE_NXZ
?get_thd@MDL_context@@ABEPAVTHD@@XZ
?find_ticket@MDL_context@@AAEPAVMDL_ticket@@PAVMDL_request@@PAW4enum_mdl_duration@@@Z
?release_locks_stored_before@MDL_context@@AAEXW4enum_mdl_duration@@PAVMDL_ticket@@@Z
?release_lock@MDL_context@@AAEXW4enum_mdl_duration@@PAVMDL_ticket@@@Z
?try_acquire_lock_impl@MDL_context@@AAE_NPAVMDL_request@@PAPAVMDL_ticket@@@Z
?find_deadlock@MDL_context@@QAEXXZ
?visit_subgraph@MDL_context@@QAE_NPAVMDL_wait_for_graph_visitor@@@Z
?lock_deadlock_victim@MDL_context@@QAEXXZ
?unlock_deadlock_victim@MDL_context@@QAEXXZ
?mdl_init@@YAXXZ
?mdl_destroy@@YAXXZ
??0MDL_map_partition@@QAE@XZ
??1MDL_map_partition@@QAE@XZ
?find_or_insert@MDL_map_partition@@QAEPAVMDL_lock@@PBVMDL_key@@I@Z
?remove@MDL_map_partition@@QAEXPAVMDL_lock@@@Z
?get_key_hash@MDL_map_partition@@QBEIPBVMDL_key@@@Z
?move_from_hash_to_lock_mutex@MDL_map_partition@@AAE_NPAVMDL_lock@@@Z
??0?$I_P_List_no_push_back@VMDL_object_lock@@@@IAE@PAPAVMDL_object_lock@@@Z
?set_last@?$I_P_List_no_push_back@VMDL_object_lock@@@@IAEXPAPAVMDL_object_lock@@@Z
??0?$I_P_List@VMDL_object_lock@@VMDL_object_lock_cache_adapter@@VI_P_List_counter@@V?$I_P_List_no_push_back@VMDL_object_lock@@@@@@QAE@XZ
?push_front@?$I_P_List@VMDL_object_lock@@VMDL_object_lock_cache_adapter@@VI_P_List_counter@@V?$I_P_List_no_push_back@VMDL_object_lock@@@@@@QAEXPAVMDL_object_lock@@@Z
?remove@?$I_P_List@VMDL_object_lock@@VMDL_object_lock_cache_adapter@@VI_P_List_counter@@V?$I_P_List_no_push_back@VMDL_object_lock@@@@@@QAEXPAVMDL_object_lock@@@Z
?front@?$I_P_List@VMDL_object_lock@@VMDL_object_lock_cache_adapter@@VI_P_List_counter@@V?$I_P_List_no_push_back@VMDL_object_lock@@@@@@QAEPAVMDL_object_lock@@XZ
?pop_front@?$I_P_List@VMDL_object_lock@@VMDL_object_lock_cache_adapter@@VI_P_List_counter@@V?$I_P_List_no_push_back@VMDL_object_lock@@@@@@QAEPAVMDL_object_lock@@XZ
?init@MDL_map@@QAEXXZ
?destroy@MDL_map@@QAEXXZ
?find_or_insert@MDL_map@@QAEPAVMDL_lock@@PBVMDL_key@@@Z
?remove@MDL_map@@QAEXPAVMDL_lock@@@Z
??0?$Dynamic_array@PAVMDL_map_partition@@@@QAE@II@Z
?init@?$Dynamic_array@PAVMDL_map_partition@@@@QAEXII@Z
?at@?$Dynamic_array@PAVMDL_map_partition@@@@QAEAAPAVMDL_map_partition@@H@Z
?append@?$Dynamic_array@PAVMDL_map_partition@@@@QAE_NABQAVMDL_map_partition@@@Z
?pop@?$Dynamic_array@PAVMDL_map_partition@@@@QAEAAPAVMDL_map_partition@@XZ
?elements@?$Dynamic_array@PAVMDL_map_partition@@@@QBEHXZ
??1?$Dynamic_array@PAVMDL_map_partition@@@@QAE@XZ
??0MDL_map@@QAE@XZ
??1MDL_map@@QAE@XZ
??0Deadlock_detection_visitor@@QAE@PAVMDL_context@@@Z
?enter_node@Deadlock_detection_visitor@@UAE_NPAVMDL_context@@@Z
?leave_node@Deadlock_detection_visitor@@UAEXPAVMDL_context@@@Z
?inspect_edge@Deadlock_detection_visitor@@UAE_NPAVMDL_context@@@Z
?get_victim@Deadlock_detection_visitor@@QBEPAVMDL_context@@XZ
?opt_change_victim_to@Deadlock_detection_visitor@@AAEXPAVMDL_context@@@Z
??1Deadlock_detection_visitor@@UAE@XZ
??BTicket_list@MDL_lock@@QBEABV?$I_P_List@VMDL_ticket@@U?$I_P_List_adapter@VMDL_ticket@@$0M@$0BA@@@VI_P_List_null_counter@@V?$I_P_List_fast_push_back@VMDL_ticket@@@@@@XZ
??0Ticket_list@MDL_lock@@QAE@XZ
?add_ticket@Ticket_list@MDL_lock@@QAEXPAVMDL_ticket@@@Z
?remove_ticket@Ticket_list@MDL_lock@@QAEXPAVMDL_ticket@@@Z
?is_empty@Ticket_list@MDL_lock@@QBE_NXZ
?bitmap@Ticket_list@MDL_lock@@QBEGXZ
?clear_bit_if_not_in_list@Ticket_list@MDL_lock@@AAEXW4enum_mdl_type@@@Z
??0?$I_P_List_fast_push_back@VMDL_ticket@@@@IAE@PAPAVMDL_ticket@@@Z
?set_last@?$I_P_List_fast_push_back@VMDL_ticket@@@@IAEXPAPAVMDL_ticket@@@Z
?get_last@?$I_P_List_fast_push_back@VMDL_ticket@@@@IBEPAPAVMDL_ticket@@XZ
??0?$I_P_List@VMDL_ticket@@U?$I_P_List_adapter@VMDL_ticket@@$0M@$0BA@@@VI_P_List_null_counter@@V?$I_P_List_fast_push_back@VMDL_ticket@@@@@@QAE@XZ
?is_empty@?$I_P_List@VMDL_ticket@@U?$I_P_List_adapter@VMDL_ticket@@$0M@$0BA@@@VI_P_List_null_counter@@V?$I_P_List_fast_push_back@VMDL_ticket@@@@@@QBE_NXZ
?push_back@?$I_P_List@VMDL_ticket@@U?$I_P_List_adapter@VMDL_ticket@@$0M@$0BA@@@VI_P_List_null_counter@@V?$I_P_List_fast_push_back@VMDL_ticket@@@@@@QAEXPAVMDL_ticket@@@Z
?remove@?$I_P_List@VMDL_ticket@@U?$I_P_List_adapter@VMDL_ticket@@$0M@$0BA@@@VI_P_List_null_counter@@V?$I_P_List_fast_push_back@VMDL_ticket@@@@@@QAEXPAVMDL_ticket@@@Z
?is_empty@MDL_lock@@QBE_NXZ
?has_pending_conflicting_lock@MDL_lock@@QAE_NW4enum_mdl_type@@@Z
?can_grant_lock@MDL_lock@@QBE_NW4enum_mdl_type@@PAVMDL_context@@_N@Z
?create@MDL_lock@@SAPAV1@PBVMDL_key@@PAVMDL_map_partition@@@Z
?reschedule_waiters@MDL_lock@@QAEXXZ
?remove_ticket@MDL_lock@@QAEXPQ1@VTicket_list@1@PAVMDL_ticket@@@Z
?visit_subgraph@MDL_lock@@QAE_NPAVMDL_ticket@@PAVMDL_wait_for_graph_visitor@@@Z
??0MDL_lock@@QAE@PBVMDL_key@@PAVMDL_map_partition@@@Z
??1MDL_lock@@UAE@XZ
?destroy@MDL_lock@@SAXPAV1@@Z
??0MDL_scoped_lock@@QAE@PBVMDL_key@@PAVMDL_map_partition@@@Z
?incompatible_granted_types_bitmap@MDL_scoped_lock@@UBEPBGXZ
?incompatible_waiting_types_bitmap@MDL_scoped_lock@@UBEPBGXZ
?needs_notification@MDL_scoped_lock@@UBE_NPBVMDL_ticket@@@Z
?notify_conflicting_locks@MDL_scoped_lock@@UAEXPAVMDL_context@@@Z
?hog_lock_types_bitmap@MDL_scoped_lock@@UBEGXZ
??1MDL_scoped_lock@@UAE@XZ
??0MDL_object_lock@@QAE@PBVMDL_key@@PAVMDL_map_partition@@@Z
?reset@MDL_object_lock@@QAEXPBVMDL_key@@@Z
?incompatible_granted_types_bitmap@MDL_object_lock@@UBEPBGXZ
?incompatible_waiting_types_bitmap@MDL_object_lock@@UBEPBGXZ
?needs_notification@MDL_object_lock@@UBE_NPBVMDL_ticket@@@Z
?notify_conflicting_locks@MDL_object_lock@@UAEXPAVMDL_context@@@Z
?hog_lock_types_bitmap@MDL_object_lock@@UBEGXZ
??1MDL_object_lock@@UAE@XZ
?next_ptr@?$I_P_List_adapter@VMDL_object_lock@@$0CCA@$0CCE@@@SAPAPAVMDL_object_lock@@PAV2@@Z
?prev_ptr@?$I_P_List_adapter@VMDL_object_lock@@$0CCA@$0CCE@@@SAPAPAPAVMDL_object_lock@@PAV2@@Z
murmur3_adapter
??0?$I_P_List_iterator@VMDL_ticket@@V?$I_P_List@VMDL_ticket@@U?$I_P_List_adapter@VMDL_ticket@@$0M@$0BA@@@VI_P_List_null_counter@@V?$I_P_List_fast_push_back@VMDL_ticket@@@@@@@@QAE@ABV?$I_P_List@VMDL_ticket@@U?$I_P_List_adapter@VMDL_ticket@@$0M@$0BA@@@VI_P_List_null_counter@@V?$I_P_List_fast_push_back@VMDL_ticket@@@@@@@Z
??E?$I_P_List_iterator@VMDL_ticket@@V?$I_P_List@VMDL_ticket@@U?$I_P_List_adapter@VMDL_ticket@@$0M@$0BA@@@VI_P_List_null_counter@@V?$I_P_List_fast_push_back@VMDL_ticket@@@@@@@@QAEPAVMDL_ticket@@H@Z
?rewind@?$I_P_List_iterator@VMDL_ticket@@V?$I_P_List@VMDL_ticket@@U?$I_P_List_adapter@VMDL_ticket@@$0M@$0BA@@@VI_P_List_null_counter@@V?$I_P_List_fast_push_back@VMDL_ticket@@@@@@@@QAEXXZ
??0?$I_P_List_iterator@VMDL_ticket@@V?$I_P_List@VMDL_ticket@@U?$I_P_List_adapter@VMDL_ticket@@$03$07@@VI_P_List_null_counter@@V?$I_P_List_no_push_back@VMDL_ticket@@@@@@@@QAE@ABV?$I_P_List@VMDL_ticket@@U?$I_P_List_adapter@VMDL_ticket@@$03$07@@VI_P_List_null_counter@@V?$I_P_List_no_push_back@VMDL_ticket@@@@@@@Z
??E?$I_P_List_iterator@VMDL_ticket@@V?$I_P_List@VMDL_ticket@@U?$I_P_List_adapter@VMDL_ticket@@$03$07@@VI_P_List_null_counter@@V?$I_P_List_no_push_back@VMDL_ticket@@@@@@@@QAEPAVMDL_ticket@@H@Z
mdl_request_ptr_cmp
??0?$I_P_List_iterator@VMDL_request@@V?$I_P_List@VMDL_request@@U?$I_P_List_adapter@VMDL_request@@$07$0M@@@VI_P_List_counter@@V?$I_P_List_no_push_back@VMDL_request@@@@@@@@QAE@ABV?$I_P_List@VMDL_request@@U?$I_P_List_adapter@VMDL_request@@$07$0M@@@VI_P_List_counter@@V?$I_P_List_no_push_back@VMDL_request@@@@@@@Z
??E?$I_P_List_iterator@VMDL_request@@V?$I_P_List@VMDL_request@@U?$I_P_List_adapter@VMDL_request@@$07$0M@@@VI_P_List_counter@@V?$I_P_List_no_push_back@VMDL_request@@@@@@@@QAEPAVMDL_request@@H@Z
?next_ptr@?$I_P_List_adapter@VMDL_ticket@@$03$07@@SAPAPAVMDL_ticket@@PAV2@@Z
?prev_ptr@?$I_P_List_adapter@VMDL_ticket@@$03$07@@SAPAPAPAVMDL_ticket@@PAV2@@Z
?next_ptr@?$I_P_List_adapter@VMDL_ticket@@$0M@$0BA@@@SAPAPAVMDL_ticket@@PAV2@@Z
?prev_ptr@?$I_P_List_adapter@VMDL_ticket@@$0M@$0BA@@@SAPAPAPAVMDL_ticket@@PAV2@@Z
??$_Debug_lt@GG@std@@YA_NABG0PB_WI@Z
?opt_tc_log_size@@3KA DATA
?tc_log_max_pages_used@@3KA DATA
?tc_log_page_size@@3KA DATA
?tc_log_page_waits@@3KA DATA
?tc_log@@3PAVTC_LOG@@A DATA
?tc_log_cur_pages_used@@3KA DATA
?sql_print_error@@YAXPBDZZ
?sql_print_warning@@YAXPBDZZ
?sql_print_information@@YAXPBDZZ
?sql_print_message_handlers@@3PAP6AXPBDZZA DATA
my_plugin_log_message
?quick_get_my_xid@xid_t@@QAE_KXZ
?get_my_xid@xid_t@@QAE_KXZ
?store_timestamp@Field@@QAEXJ@Z
?using_heuristic_recover@TC_LOG@@QAEHXZ
??0TC_LOG@@QAE@XZ
??1TC_LOG@@UAE@XZ
??0TC_LOG_DUMMY@@QAE@XZ
?open@TC_LOG_DUMMY@@UAEHPBD@Z
?close@TC_LOG_DUMMY@@UAEXXZ
?commit@TC_LOG_DUMMY@@UAE?AW4enum_result@TC_LOG@@PAVTHD@@_N@Z
?rollback@TC_LOG_DUMMY@@UAEHPAVTHD@@_N@Z
?prepare@TC_LOG_DUMMY@@UAEHPAVTHD@@_N@Z
??1TC_LOG_DUMMY@@UAE@XZ
??0TC_LOG_MMAP@@QAE@XZ
?open@TC_LOG_MMAP@@UAEHPBD@Z
?close@TC_LOG_MMAP@@UAEXXZ
?commit@TC_LOG_MMAP@@UAE?AW4enum_result@TC_LOG@@PAVTHD@@_N@Z
?rollback@TC_LOG_MMAP@@UAEHPAVTHD@@_N@Z
?prepare@TC_LOG_MMAP@@UAEHPAVTHD@@_N@Z
?recover@TC_LOG_MMAP@@QAEHXZ
?log_xid@TC_LOG_MMAP@@AAEHPAVTHD@@_K@Z
?unlog@TC_LOG_MMAP@@AAEHK_K@Z
?get_active_from_pool@TC_LOG_MMAP@@AAEXXZ
?sync@TC_LOG_MMAP@@AAEHXZ
?overflow@TC_LOG_MMAP@@AAEHXZ
??1TC_LOG_MMAP@@UAE@XZ
??0MYSQL_LOG@@QAE@XZ
?init_pthread_objects@MYSQL_LOG@@QAEXXZ
?cleanup@MYSQL_LOG@@QAEXXZ
?open@MYSQL_LOG@@QAE_NIPBDW4enum_log_type@@0W4cache_type@@@Z
?init_and_set_log_file_name@MYSQL_LOG@@QAE_NPBD0W4enum_log_type@@W4cache_type@@@Z
?init@MYSQL_LOG@@QAEXW4enum_log_type@@W4cache_type@@@Z
?close@MYSQL_LOG@@QAEXI@Z
?generate_name@MYSQL_LOG@@QAEPBDPBD0_NPAD@Z
?generate_new_name@MYSQL_LOG@@QAEHPADPBD@Z
??0MYSQL_QUERY_LOG@@QAE@XZ
?reopen_file@MYSQL_QUERY_LOG@@QAEXXZ
?write@MYSQL_QUERY_LOG@@QAE_N_JPBDIK1I1I@Z
?write@MYSQL_QUERY_LOG@@QAE_NPAVTHD@@_J1PBDI_K3_N2I@Z
??0Log_event_handler@@QAE@XZ
??1Log_event_handler@@UAE@XZ
?check_if_log_table@@YAHIPBDI0_N@Z
??0Log_to_csv_event_handler@@QAE@XZ
??1Log_to_csv_event_handler@@UAE@XZ
?init@Log_to_csv_event_handler@@UAE_NXZ
?cleanup@Log_to_csv_event_handler@@UAEXXZ
?log_slow@Log_to_csv_event_handler@@UAE_NPAVTHD@@_J1PBDI_K3_N2I@Z
?log_error@Log_to_csv_event_handler@@UAE_NW4loglevel@@PBDPAD@Z
?log_general@Log_to_csv_event_handler@@UAE_NPAVTHD@@_JPBDIK2I2IPBUcharset_info_st@@@Z
?activate_log@Log_to_csv_event_handler@@QAEHPAVTHD@@I@Z
??0Log_to_file_event_handler@@QAE@XZ
?init@Log_to_file_event_handler@@UAE_NXZ
?cleanup@Log_to_file_event_handler@@UAEXXZ
?log_slow@Log_to_file_event_handler@@UAE_NPAVTHD@@_J1PBDI_K3_N2I@Z
?log_error@Log_to_file_event_handler@@UAE_NW4loglevel@@PBDPAD@Z
?log_general@Log_to_file_event_handler@@UAE_NPAVTHD@@_JPBDIK2I2IPBUcharset_info_st@@@Z
?flush@Log_to_file_event_handler@@QAEXXZ
?init_pthread_objects@Log_to_file_event_handler@@QAEXXZ
??1Log_to_file_event_handler@@UAE@XZ
??0LOGGER@@QAE@XZ
?lock_shared@LOGGER@@QAEXXZ
?is_log_table_enabled@LOGGER@@QAE_NI@Z
?log_command@LOGGER@@QAE_NPAVTHD@@W4enum_server_command@@PBDI@Z
?init_base@LOGGER@@QAEXXZ
?init_log_tables@LOGGER@@QAEXXZ
?flush_logs@LOGGER@@QAE_NPAVTHD@@@Z
?flush_slow_log@LOGGER@@QAE_NXZ
?flush_general_log@LOGGER@@QAE_NXZ
?cleanup_base@LOGGER@@QAEXXZ
?cleanup_end@LOGGER@@QAEXXZ
?error_log_print@LOGGER@@QAE_NW4loglevel@@PBDPAD@Z
?slow_log_print@LOGGER@@QAE_NPAVTHD@@PBDI@Z
?general_log_print@LOGGER@@QAE_NPAVTHD@@W4enum_server_command@@PBDPAD@Z
?general_log_write@LOGGER@@QAE_NPAVTHD@@W4enum_server_command@@PBDI@Z
?set_handlers@LOGGER@@QAEHIII@Z
?init_error_log@LOGGER@@QAEXI@Z
?init_slow_log@LOGGER@@QAEXI@Z
?init_general_log@LOGGER@@QAEXI@Z
?deactivate_log_handler@LOGGER@@QAEXPAVTHD@@I@Z
?activate_log_handler@LOGGER@@QAE_NPAVTHD@@I@Z
?exec_binlog_error_action_abort@@YAXPBD@Z
?purge_log_get_error_code@@YAIH@Z
?vprint_msg_to_log@@YAHW4loglevel@@PBDPAD@Z
?error_log_print@@YAHW4loglevel@@PBDPAD@Z
?slow_log_print@@YA_NPAVTHD@@PBDI@Z
?general_log_print@@YA_NPAVTHD@@W4enum_server_command@@PBDZZ
?general_log_write@@YA_NPAVTHD@@W4enum_server_command@@PBDI@Z
?sql_perror@@YAXPBD@Z
?flush_error_log@@YA_NXZ
?make_log_name@@YAPADPADPBD1@Z
?is_valid_log_name@@YA_NPBDI@Z
?report_error@Slow_query_log_table_intact@@MAAXIPBDZZ
??0Slow_query_log_table_intact@@QAE@XZ
??1Slow_query_log_table_intact@@UAE@XZ
?report_error@General_log_table_intact@@MAAXIPBDZZ
??0General_log_table_intact@@QAE@XZ
??1General_log_table_intact@@UAE@XZ
??0Silence_log_table_errors@@QAE@XZ
??1Silence_log_table_errors@@UAE@XZ
?handle_condition@Silence_log_table_errors@@UAE_NPAVTHD@@IPBDW4enum_warning_level@Sql_condition@@1PAPAV4@@Z
?message@Silence_log_table_errors@@QBEPBDXZ
reopen_fstreams
?tc_log_mmap@@3VTC_LOG_MMAP@@A DATA
?tc_log_dummy@@3VTC_LOG_DUMMY@@A DATA
?logger@@3VLOGGER@@A DATA
?m_active_requests@Global_read_lock@@0HC DATA
?mysql_lock_tables@@YAPAUst_mysql_lock@@PAVTHD@@PAPAUTABLE@@II@Z
?mysql_unlock_tables@@YAXPAVTHD@@PAUst_mysql_lock@@@Z
?mysql_unlock_read_tables@@YAXPAVTHD@@PAUst_mysql_lock@@@Z
?mysql_unlock_some_tables@@YAXPAVTHD@@PAPAUTABLE@@I@Z
?mysql_lock_remove@@YAXPAVTHD@@PAUst_mysql_lock@@PAUTABLE@@@Z
?mysql_lock_abort@@YAXPAVTHD@@PAUTABLE@@_N@Z
?mysql_lock_abort_for_thread@@YA_NPAVTHD@@PAUTABLE@@@Z
?mysql_lock_merge@@YAPAUst_mysql_lock@@PAU1@0@Z
?lock_schema_name@@YA_NPAVTHD@@PBD@Z
?lock_object_name@@YA_NPAVTHD@@W4enum_mdl_namespace@MDL_key@@PBD2@Z
?lock_global_read_lock@Global_read_lock@@QAE_NPAVTHD@@@Z
?unlock_global_read_lock@Global_read_lock@@QAEXPAVTHD@@@Z
?make_global_read_lock_block_commit@Global_read_lock@@QAE_NPAVTHD@@@Z
?set_explicit_lock_duration@Global_read_lock@@QAEXPAVTHD@@@Z
?set_time_after_lock@THD@@QAEXXZ
?default_key_cache_base@@3Ust_mysql_lex_string@@A DATA
?zero_key_cache@@3Ust_key_cache@@A DATA
??0?$ilink@VNAMED_ILINK@@@@QAE@XZ
?unlink@?$ilink@VNAMED_ILINK@@@@QAEXXZ
??1?$ilink@VNAMED_ILINK@@@@UAE@XZ
??0NAMED_ILINK@@QAE@PAV?$I_List@VNAMED_ILINK@@@@PBDIPAE@Z
?cmp@NAMED_ILINK@@QAE_NPBDI@Z
??1NAMED_ILINK@@UAE@XZ
??0?$base_ilist@VNAMED_ILINK@@@@QAE@XZ
?is_empty@?$base_ilist@VNAMED_ILINK@@@@QBE_NXZ
?push_back@?$base_ilist@VNAMED_ILINK@@@@QAEXPAVNAMED_ILINK@@@Z
?get@?$base_ilist@VNAMED_ILINK@@@@QAEPAVNAMED_ILINK@@XZ
??1?$base_ilist@VNAMED_ILINK@@@@QAE@XZ
??0?$I_List@VNAMED_ILINK@@@@QAE@XZ
??1?$I_List@VNAMED_ILINK@@@@QAE@XZ
?delete_elements@NAMED_ILIST@@QAEXP6AXPBDPAE@Z@Z
??0NAMED_ILIST@@QAE@XZ
??1NAMED_ILIST@@QAE@XZ
?create_key_cache@@YAPAUst_key_cache@@PBDI@Z
?get_key_cache@@YAPAUst_key_cache@@PAUst_mysql_lex_string@@@Z
?get_or_create_key_cache@@YAPAUst_key_cache@@PBDI@Z
?free_key_cache@@YAXPBDPAUst_key_cache@@@Z
?process_key_caches@@YA_NP6AHPBDPAUst_key_cache@@@Z@Z
?find_named@@YAPAEPAV?$I_List@VNAMED_ILINK@@@@PBDIPAPAVNAMED_ILINK@@@Z
??0?$base_ilist_iterator@VNAMED_ILINK@@@@QAE@AAV?$base_ilist@VNAMED_ILINK@@@@@Z
?next@?$base_ilist_iterator@VNAMED_ILINK@@@@QAEPAVNAMED_ILINK@@XZ
??0?$I_List_iterator@VNAMED_ILINK@@@@QAE@AAV?$I_List@VNAMED_ILINK@@@@@Z
??E?$I_List_iterator@VNAMED_ILINK@@@@QAEPAVNAMED_ILINK@@H@Z
?key_caches@@3VNAMED_ILIST@@A DATA
?store_length@Field_blob@@QAEXPAEII@Z
?set_ptr_offset@Field_blob@@QAEXJIPAE@Z
?find_ref_key@@YAHPAUst_key@@IPAEPAVField@@PAI3@Z
?key_copy@@YAXPAE0PAUst_key@@I@Z
?key_restore@@YAXPAE0PAUst_key@@I@Z
?key_cmp_if_same@@YA_NPAUTABLE@@PBEII@Z
?key_unpack@@YAXPAVString@@PAUTABLE@@PAUst_key@@@Z
?field_unpack@@YAXPAVString@@PAVField@@PBEI_N@Z
?is_key_used@@YA_NPAUTABLE@@IPBUst_bitmap@@@Z
?key_cmp@@YAHPAVKEY_PART_INFO@@PBEI@Z
?key_cmp2@@YAHPAVKEY_PART_INFO@@PBEI1I@Z
key_rec_cmp
?key_zero_nulls@@YAXPAEPAUst_key@@@Z
IN6_IS_ADDR_V4MAPPED
IN6_IS_ADDR_V4COMPAT
?val_int@Item_func_inet_aton@@UAE_JXZ
?val_str@Item_func_inet_ntoa@@UAEPAVString@@PAV2@@Z
?val_int@Item_func_inet_bool_base@@UAE_JXZ
?val_str_ascii@Item_func_inet_str_base@@UAEPAVString@@PAV2@@Z
?calc_value@Item_func_inet6_aton@@MAE_NPAVString@@0@Z
?calc_value@Item_func_inet6_ntoa@@MAE_NPAVString@@0@Z
?calc_value@Item_func_is_ipv4@@MAE_NPBVString@@@Z
?calc_value@Item_func_is_ipv6@@MAE_NPBVString@@@Z
?calc_value@Item_func_is_ipv4_compat@@MAE_NPBVString@@@Z
?calc_value@Item_func_is_ipv4_mapped@@MAE_NPBVString@@@Z
?set_or_copy@Name_string@@AAEXPBDI_N@Z
??0Name_string@@QAE@Ust_mysql_lex_string@@_N@Z
?float_length@Item@@QBEII@Z
?set_used_tables@Item_basic_constant@@QAEX_K@Z
?agg_item_charsets_for_comparison@@YA_NAAVDTCollation@@PBDPAPAVItem@@IH@Z
??0Item_func@@QAE@PAVItem@@00@Z
?agg_arg_charsets_for_comparison@Item_func@@QAE_NAAVDTCollation@@PAPAVItem@@IH@Z
??0Item_real_func@@QAE@PAVItem@@@Z
?val_int@Item_real_func@@UAE_JXZ
?get_date@Item_real_func@@UAE_NPAUst_mysql_time@@I@Z
?get_time@Item_real_func@@UAE_NPAUst_mysql_time@@@Z
?result_type@Item_real_func@@UBE?AW4Item_result@@XZ
?fix_length_and_dec@Item_real_func@@UAEXXZ
??1Item_real_func@@UAE@XZ
??0Item_func_numhybrid@@QAE@PAVItem@@@Z
??0Item_func_numhybrid@@QAE@PAVItem@@0@Z
?result_type@Item_func_numhybrid@@UBE?AW4Item_result@@XZ
?is_null@Item_func_numhybrid@@UAE_NXZ
??1Item_func_numhybrid@@UAE@XZ
??0Item_func_num1@@QAE@PAVItem@@@Z
??0Item_func_num1@@QAE@PAVItem@@0@Z
?str_op@Item_func_num1@@UAEPAVString@@PAV2@@Z
?date_op@Item_func_num1@@UAE_NPAUst_mysql_time@@I@Z
?time_op@Item_func_num1@@UAE_NPAUst_mysql_time@@@Z
??1Item_func_num1@@UAE@XZ
??0Item_num_op@@QAE@PAVItem@@0@Z
?print@Item_num_op@@UAEXPAVString@@W4enum_query_type@@@Z
?str_op@Item_num_op@@UAEPAVString@@PAV2@@Z
?date_op@Item_num_op@@UAE_NPAUst_mysql_time@@I@Z
?time_op@Item_num_op@@UAE_NPAUst_mysql_time@@@Z
??1Item_num_op@@UAE@XZ
??0Item_func_additive_op@@QAE@PAVItem@@0@Z
?check_partition_func_processor@Item_func_additive_op@@UAE_NPAE@Z
??1Item_func_additive_op@@UAE@XZ
??0Item_func_plus@@QAE@PAVItem@@0@Z
?func_name@Item_func_plus@@UBEPBDXZ
??1Item_func_plus@@UAE@XZ
??0Item_func_minus@@QAE@PAVItem@@0@Z
?func_name@Item_func_minus@@UBEPBDXZ
??1Item_func_minus@@UAE@XZ
??0Item_func_mul@@QAE@PAVItem@@0@Z
?func_name@Item_func_mul@@UBEPBDXZ
?check_partition_func_processor@Item_func_mul@@UAE_NPAE@Z
??1Item_func_mul@@UAE@XZ
??0Item_func_int_div@@QAE@PAVItem@@0@Z
?func_name@Item_func_int_div@@UBEPBDXZ
?print@Item_func_int_div@@UAEXPAVString@@W4enum_query_type@@@Z
?check_partition_func_processor@Item_func_int_div@@UAE_NPAE@Z
??1Item_func_int_div@@UAE@XZ
??0Item_func_mod@@QAE@PAVItem@@0@Z
?func_name@Item_func_mod@@UBEPBDXZ
?check_partition_func_processor@Item_func_mod@@UAE_NPAE@Z
??1Item_func_mod@@UAE@XZ
??0Item_func_neg@@QAE@PAVItem@@@Z
?func_name@Item_func_neg@@UBEPBDXZ
?functype@Item_func_neg@@UBE?AW4Functype@Item_func@@XZ
?decimal_precision@Item_func_neg@@UBEIXZ
?check_partition_func_processor@Item_func_neg@@UAE_NPAE@Z
??1Item_func_neg@@UAE@XZ
??0Item_func_int_val@@QAE@PAVItem@@@Z
??1Item_func_int_val@@UAE@XZ
??0Item_func_ceiling@@QAE@PAVItem@@@Z
?func_name@Item_func_ceiling@@UBEPBDXZ
?check_partition_func_processor@Item_func_ceiling@@UAE_NPAE@Z
??1Item_func_ceiling@@UAE@XZ
??0Item_func_floor@@QAE@PAVItem@@@Z
?func_name@Item_func_floor@@UBEPBDXZ
?check_partition_func_processor@Item_func_floor@@UAE_NPAE@Z
??1Item_func_floor@@UAE@XZ
??0Item_func_round@@QAE@PAVItem@@0_N@Z
?func_name@Item_func_round@@UBEPBDXZ
??1Item_func_round@@UAE@XZ
??0Item_func_char_length@@QAE@PAVItem@@@Z
?func_name@Item_func_char_length@@UBEPBDXZ
?fix_length_and_dec@Item_func_char_length@@UAEXXZ
??1Item_func_char_length@@UAE@XZ
??0Item_func_locate@@QAE@PAVItem@@0@Z
?func_name@Item_func_locate@@UBEPBDXZ
??1Item_func_locate@@UAE@XZ
??0Item_var_func@@QAE@XZ
??0Item_func_get_user_var@@QAE@VName_string@@@Z
?functype@Item_func_get_user_var@@UBE?AW4Functype@Item_func@@XZ
?func_name@Item_func_get_user_var@@UBEPBDXZ
?used_tables@Item_func_get_user_var@@UBE_KXZ
?get_settable_routine_parameter@Item_func_get_user_var@@UAEPAVSettable_routine_parameter@@XZ
??1Item_func_get_user_var@@UAE@XZ
??0Item_func_ge@@QAE@PAVItem@@0@Z
?functype@Item_func_ge@@UBE?AW4Functype@Item_func@@XZ
?rev_functype@Item_func_ge@@UBE?AW4Functype@Item_func@@XZ
?eq_cmp_result@Item_func_ge@@UBE?AW4cond_result@Item@@XZ
?func_name@Item_func_ge@@UBEPBDXZ
??1Item_func_ge@@UAE@XZ
??0Item_func_gt@@QAE@PAVItem@@0@Z
?functype@Item_func_gt@@UBE?AW4Functype@Item_func@@XZ
?rev_functype@Item_func_gt@@UBE?AW4Functype@Item_func@@XZ
?eq_cmp_result@Item_func_gt@@UBE?AW4cond_result@Item@@XZ
?func_name@Item_func_gt@@UBEPBDXZ
??1Item_func_gt@@UAE@XZ
??0Item_func_le@@QAE@PAVItem@@0@Z
?functype@Item_func_le@@UBE?AW4Functype@Item_func@@XZ
?rev_functype@Item_func_le@@UBE?AW4Functype@Item_func@@XZ
?eq_cmp_result@Item_func_le@@UBE?AW4cond_result@Item@@XZ
?func_name@Item_func_le@@UBEPBDXZ
??1Item_func_le@@UAE@XZ
??0Item_func_lt@@QAE@PAVItem@@0@Z
?functype@Item_func_lt@@UBE?AW4Functype@Item_func@@XZ
?rev_functype@Item_func_lt@@UBE?AW4Functype@Item_func@@XZ
?eq_cmp_result@Item_func_lt@@UBE?AW4cond_result@Item@@XZ
?func_name@Item_func_lt@@UBEPBDXZ
??1Item_func_lt@@UAE@XZ
??0Item_str_func@@QAE@PAVItem@@@Z
??0Item_str_func@@QAE@PAVItem@@0@Z
??0Item_str_func@@QAE@PAVItem@@00@Z
??0Item_func_concat@@QAE@PAVItem@@0@Z
?func_name@Item_func_concat@@UBEPBDXZ
??1Item_func_concat@@UAE@XZ
??0Item_func_substr@@QAE@PAVItem@@0@Z
??0Item_func_substr@@QAE@PAVItem@@00@Z
?func_name@Item_func_substr@@UBEPBDXZ
??1Item_func_substr@@UAE@XZ
?fix_length_and_dec@Item_xml_str_func@@UAEXXZ
?parse_xml@Item_xml_str_func@@QAEPAVString@@PAV2@0@Z
?parse_xpath@Item_xml_str_func@@IAEXPAVItem@@@Z
?val_str@Item_func_xml_extractvalue@@UAEPAVString@@PAV2@@Z
?val_str@Item_func_xml_update@@UAEPAVString@@PAV2@@Z
?append_element@XPathFilter@@QAE_NPAUmy_xpath_flt_st@@@Z
?append_element@XPathFilter@@QAE_NII@Z
?append_element@XPathFilter@@QAE_NIII@Z
??0Item_nodeset_func@@QAE@PAVString@@@Z
??0Item_nodeset_func@@QAE@PAVItem@@PAVString@@@Z
??0Item_nodeset_func@@QAE@PAVItem@@0PAVString@@@Z
?prepare_nodes@Item_nodeset_func@@QAEXXZ
?prepare@Item_nodeset_func@@QAEXPAVString@@@Z
?type@Item_nodeset_func@@UBE?AW4Type@Item@@XZ
?val_str@Item_nodeset_func@@UAEPAVString@@PAV2@@Z
?result_type@Item_nodeset_func@@UBE?AW4Item_result@@XZ
?fix_length_and_dec@Item_nodeset_func@@UAEXXZ
?func_name@Item_nodeset_func@@UBEPBDXZ
??1Item_nodeset_func@@UAE@XZ
??0Item_nodeset_func_rootelement@@QAE@PAVString@@@Z
?func_name@Item_nodeset_func_rootelement@@UBEPBDXZ
?val_nodeset@Item_nodeset_func_rootelement@@UAEPAVString@@PAV2@@Z
??1Item_nodeset_func_rootelement@@UAE@XZ
??0Item_nodeset_func_union@@QAE@PAVItem@@0PAVString@@@Z
?func_name@Item_nodeset_func_union@@UBEPBDXZ
?val_nodeset@Item_nodeset_func_union@@UAEPAVString@@PAV2@@Z
??1Item_nodeset_func_union@@UAE@XZ
??0Item_nodeset_func_axisbyname@@QAE@PAVItem@@PBDIPAVString@@@Z
?func_name@Item_nodeset_func_axisbyname@@UBEPBDXZ
?validname@Item_nodeset_func_axisbyname@@QAE_NPAUmy_xml_node_st@@@Z
??1Item_nodeset_func_axisbyname@@UAE@XZ
??0Item_nodeset_func_selfbyname@@QAE@PAVItem@@PBDIPAVString@@@Z
?func_name@Item_nodeset_func_selfbyname@@UBEPBDXZ
?val_nodeset@Item_nodeset_func_selfbyname@@UAEPAVString@@PAV2@@Z
??1Item_nodeset_func_selfbyname@@UAE@XZ
??0Item_nodeset_func_childbyname@@QAE@PAVItem@@PBDIPAVString@@@Z
?func_name@Item_nodeset_func_childbyname@@UBEPBDXZ
?val_nodeset@Item_nodeset_func_childbyname@@UAEPAVString@@PAV2@@Z
??1Item_nodeset_func_childbyname@@UAE@XZ
??0Item_nodeset_func_descendantbyname@@QAE@PAVItem@@PBDIPAVString@@_N@Z
?func_name@Item_nodeset_func_descendantbyname@@UBEPBDXZ
?val_nodeset@Item_nodeset_func_descendantbyname@@UAEPAVString@@PAV2@@Z
??1Item_nodeset_func_descendantbyname@@UAE@XZ
??0Item_nodeset_func_ancestorbyname@@QAE@PAVItem@@PBDIPAVString@@_N@Z
?func_name@Item_nodeset_func_ancestorbyname@@UBEPBDXZ
?val_nodeset@Item_nodeset_func_ancestorbyname@@UAEPAVString@@PAV2@@Z
??1Item_nodeset_func_ancestorbyname@@UAE@XZ
??0Item_nodeset_func_parentbyname@@QAE@PAVItem@@PBDIPAVString@@@Z
?func_name@Item_nodeset_func_parentbyname@@UBEPBDXZ
?val_nodeset@Item_nodeset_func_parentbyname@@UAEPAVString@@PAV2@@Z
??1Item_nodeset_func_parentbyname@@UAE@XZ
??0Item_nodeset_func_attributebyname@@QAE@PAVItem@@PBDIPAVString@@@Z
?func_name@Item_nodeset_func_attributebyname@@UBEPBDXZ
?val_nodeset@Item_nodeset_func_attributebyname@@UAEPAVString@@PAV2@@Z
??1Item_nodeset_func_attributebyname@@UAE@XZ
??0Item_nodeset_func_predicate@@QAE@PAVItem@@0PAVString@@@Z
?func_name@Item_nodeset_func_predicate@@UBEPBDXZ
?val_nodeset@Item_nodeset_func_predicate@@UAEPAVString@@PAV2@@Z
??1Item_nodeset_func_predicate@@UAE@XZ
??0Item_nodeset_func_elementbyindex@@QAE@PAVItem@@0PAVString@@@Z
?func_name@Item_nodeset_func_elementbyindex@@UBEPBDXZ
?val_nodeset@Item_nodeset_func_elementbyindex@@UAEPAVString@@PAV2@@Z
??1Item_nodeset_func_elementbyindex@@UAE@XZ
??0Item_bool@@QAE@H@Z
?is_bool_func@Item_bool@@UAE_NXZ
??1Item_bool@@UAE@XZ
??0Item_xpath_cast_bool@@QAE@PAVItem@@PAVString@@@Z
?func_name@Item_xpath_cast_bool@@UBEPBDXZ
?is_bool_func@Item_xpath_cast_bool@@UAE_NXZ
?val_int@Item_xpath_cast_bool@@UAE_JXZ
??1Item_xpath_cast_bool@@UAE@XZ
??0Item_xpath_cast_number@@QAE@PAVItem@@@Z
?func_name@Item_xpath_cast_number@@UBEPBDXZ
?val_real@Item_xpath_cast_number@@UAENXZ
??1Item_xpath_cast_number@@UAE@XZ
??0Item_nodeset_context_cache@@QAE@PAVString@@0@Z
?val_nodeset@Item_nodeset_context_cache@@UAEPAVString@@PAV2@@Z
?fix_length_and_dec@Item_nodeset_context_cache@@UAEXXZ
??1Item_nodeset_context_cache@@UAE@XZ
??0Item_func_xpath_position@@QAE@PAVItem@@PAVString@@@Z
?func_name@Item_func_xpath_position@@UBEPBDXZ
?fix_length_and_dec@Item_func_xpath_position@@UAEXXZ
?val_int@Item_func_xpath_position@@UAE_JXZ
??1Item_func_xpath_position@@UAE@XZ
??0Item_func_xpath_count@@QAE@PAVItem@@PAVString@@@Z
?func_name@Item_func_xpath_count@@UBEPBDXZ
?fix_length_and_dec@Item_func_xpath_count@@UAEXXZ
?val_int@Item_func_xpath_count@@UAE_JXZ
??1Item_func_xpath_count@@UAE@XZ
??0Item_func_xpath_sum@@QAE@PAVItem@@PAVString@@@Z
?func_name@Item_func_xpath_sum@@UBEPBDXZ
?val_real@Item_func_xpath_sum@@UAENXZ
??1Item_func_xpath_sum@@UAE@XZ
??0Item_nodeset_to_const_comparator@@QAE@PAVItem@@0PAVString@@@Z
?type@Item_nodeset_to_const_comparator@@UBE?AW4Type@Item@@XZ
?func_name@Item_nodeset_to_const_comparator@@UBEPBDXZ
?is_bool_func@Item_nodeset_to_const_comparator@@UAE_NXZ
?val_int@Item_nodeset_to_const_comparator@@UAE_JXZ
??1Item_nodeset_to_const_comparator@@UAE@XZ
?my_xpath_function@@YAPAUmy_xpath_function_names_st@@PBD0@Z
xml_enter
xml_value
xml_leave
?is_temporal_with_date_and_time@Item@@QBE_NXZ
?fix_length_and_charset@Item@@QAEXIPBUcharset_info_st@@@Z
?get_arg0_date@Item_func@@QAE_NPAUst_mysql_time@@I@Z
?get_arg0_time@Item_func@@QAE_NPAUst_mysql_time@@@Z
?get_interval_value@@YA_NPAVItem@@W4interval_type@@PAVString@@PAUINTERVAL@@@Z
?val_int@Item_func_period_add@@UAE_JXZ
?val_int@Item_func_period_diff@@UAE_JXZ
?val_int@Item_func_to_days@@UAE_JXZ
?get_monotonicity_info@Item_func_to_days@@UBE?AW4monotonicity_info@@XZ
?val_int_endpoint@Item_func_to_days@@UAE_J_NPA_N@Z
?val_int@Item_func_to_seconds@@UAE_JXZ
?get_monotonicity_info@Item_func_to_seconds@@UBE?AW4monotonicity_info@@XZ
?val_int_endpoint@Item_func_to_seconds@@UAE_J_NPA_N@Z
?val_int@Item_func_dayofmonth@@UAE_JXZ
?val_int@Item_func_month@@UAE_JXZ
?val_str@Item_func_monthname@@UAEPAVString@@PAV2@@Z
?fix_length_and_dec@Item_func_monthname@@UAEXXZ
?val_int@Item_func_dayofyear@@UAE_JXZ
?val_int@Item_func_hour@@UAE_JXZ
?val_int@Item_func_minute@@UAE_JXZ
?val_int@Item_func_quarter@@UAE_JXZ
?val_int@Item_func_second@@UAE_JXZ
?val_int@Item_func_week@@UAE_JXZ
?val_int@Item_func_yearweek@@UAE_JXZ
?val_int@Item_func_year@@UAE_JXZ
?get_monotonicity_info@Item_func_year@@UBE?AW4monotonicity_info@@XZ
?val_int_endpoint@Item_func_year@@UAE_J_NPA_N@Z
?val_int@Item_func_weekday@@UAE_JXZ
?val_str@Item_func_dayname@@UAEPAVString@@PAV2@@Z
?fix_length_and_dec@Item_func_dayname@@UAEXXZ
?val_int@Item_timeval_func@@UAE_JXZ
?val_real@Item_timeval_func@@UAENXZ
?val_str@Item_timeval_func@@UAEPAVString@@PAV2@@Z
?val_decimal@Item_timeval_func@@UAEPAVmy_decimal@@PAV2@@Z
?get_monotonicity_info@Item_func_unix_timestamp@@UBE?AW4monotonicity_info@@XZ
?val_int_endpoint@Item_func_unix_timestamp@@UAE_J_NPA_N@Z
?val_timeval@Item_func_unix_timestamp@@UAE_NPAUtimeval@@@Z
?val_int@Item_func_time_to_sec@@UAE_JXZ
?check_precision@Item_temporal_func@@IAE_NXZ
?val_decimal@Item_temporal_hybrid_func@@UAEPAVmy_decimal@@PAV2@@Z
?save_in_field@Item_temporal_hybrid_func@@UAE?AW4type_conversion_status@@PAVField@@_N@Z
?val_str_ascii@Item_temporal_hybrid_func@@UAEPAVString@@PAV2@@Z
?get_date@Item_temporal_hybrid_func@@UAE_NPAUst_mysql_time@@I@Z
?get_time@Item_temporal_hybrid_func@@UAE_NPAUst_mysql_time@@@Z
?val_date_temporal@Item_date_func@@UAE_JXZ
?fix_length_and_dec@Item_date_func@@UAEXXZ
?val_date_temporal@Item_datetime_func@@UAE_JXZ
?val_time_temporal@Item_time_func@@UAE_JXZ
?cache_string@MYSQL_TIME_cache@@AAEXXZ
?set_date@MYSQL_TIME_cache@@QAEXPAUst_mysql_time@@@Z
?set_time@MYSQL_TIME_cache@@QAEXPAUst_mysql_time@@E@Z
?set_datetime@MYSQL_TIME_cache@@QAEXPAUst_mysql_time@@E@Z
?set_date@MYSQL_TIME_cache@@QAEXUtimeval@@PAVTime_zone@@@Z
?set_time@MYSQL_TIME_cache@@QAEXUtimeval@@EPAVTime_zone@@@Z
?set_datetime@MYSQL_TIME_cache@@QAEXUtimeval@@EPAVTime_zone@@@Z
?eq@MYSQL_TIME_cache@@QBE_NABV1@@Z
?decimals@MYSQL_TIME_cache@@QBEEXZ
?get_date@MYSQL_TIME_cache@@QBE_NPAUst_mysql_time@@I@Z
?get_TIME_ptr@MYSQL_TIME_cache@@QAEPAUst_mysql_time@@XZ
?val_str@MYSQL_TIME_cache@@QAEPAVString@@PAV2@@Z
?cptr@MYSQL_TIME_cache@@QAEPBDXZ
?print@Item_date_literal@@UAEXPAVString@@W4enum_query_type@@@Z
?eq@Item_date_literal@@UBE_NPBVItem@@_N@Z
?print@Item_time_literal@@UAEXPAVString@@W4enum_query_type@@@Z
?eq@Item_time_literal@@UBE_NPBVItem@@_N@Z
?print@Item_datetime_literal@@UAEXPAVString@@W4enum_query_type@@@Z
?eq@Item_datetime_literal@@UBE_NPBVItem@@_N@Z
?fix_length_and_dec@Item_func_curtime@@UAEXXZ
?time_zone@Item_func_curtime_local@@MAEPAVTime_zone@@XZ
?time_zone@Item_func_curtime_utc@@MAEPAVTime_zone@@XZ
?fix_length_and_dec@Item_func_curdate@@UAEXXZ
?time_zone@Item_func_curdate_local@@MAEPAVTime_zone@@XZ
?time_zone@Item_func_curdate_utc@@MAEPAVTime_zone@@XZ
?fix_length_and_dec@Item_func_now@@UAEXXZ
?save_in_field@Item_func_now@@UAE?AW4type_conversion_status@@PAVField@@_N@Z
?time_zone@Item_func_now_local@@MAEPAVTime_zone@@XZ
?store_in@Item_func_now_local@@SAXPAVField@@@Z
?time_zone@Item_func_now_utc@@MAEPAVTime_zone@@XZ
?fix_length_and_dec@Item_func_sysdate_local@@UAEXXZ
?get_date@Item_func_sysdate_local@@UAE_NPAUst_mysql_time@@I@Z
?get_date@Item_func_from_days@@UAE_NPAUst_mysql_time@@I@Z
?val_str@Item_func_date_format@@UAEPAVString@@PAV2@@Z
?fix_length_and_dec@Item_func_date_format@@UAEXXZ
?format_length@Item_func_date_format@@QAEIPBVString@@@Z
?eq@Item_func_date_format@@UBE_NPBVItem@@_N@Z
?fix_length_and_dec@Item_func_from_unixtime@@UAEXXZ
?get_date@Item_func_from_unixtime@@UAE_NPAUst_mysql_time@@I@Z
?fix_length_and_dec@Item_func_convert_tz@@UAEXXZ
?get_date@Item_func_convert_tz@@UAE_NPAUst_mysql_time@@I@Z
?cleanup@Item_func_convert_tz@@UAEXXZ
?get_time@Item_func_sec_to_time@@UAE_NPAUst_mysql_time@@@Z
?get_date_internal@Item_date_add_interval@@AAE_NPAUst_mysql_time@@I@Z
?get_time_internal@Item_date_add_interval@@AAE_NPAUst_mysql_time@@@Z
?val_datetime@Item_date_add_interval@@MAE_NPAUst_mysql_time@@I@Z
?fix_length_and_dec@Item_date_add_interval@@UAEXXZ
?eq@Item_date_add_interval@@UBE_NPBVItem@@_N@Z
?print@Item_date_add_interval@@UAEXPAVString@@W4enum_query_type@@@Z
?val_int@Item_extract@@UAE_JXZ
?fix_length_and_dec@Item_extract@@UAEXXZ
?eq@Item_extract@@UBE_NPBVItem@@_N@Z
?print@Item_extract@@UAEXPAVString@@W4enum_query_type@@@Z
?print@Item_date_typecast@@UAEXPAVString@@W4enum_query_type@@@Z
?get_date@Item_date_typecast@@UAE_NPAUst_mysql_time@@I@Z
?cast_type@Item_date_typecast@@QBEPBDXZ
?print@Item_time_typecast@@UAEXPAVString@@W4enum_query_type@@@Z
?get_time@Item_time_typecast@@UAE_NPAUst_mysql_time@@@Z
?cast_type@Item_time_typecast@@QBEPBDXZ
?print@Item_datetime_typecast@@UAEXPAVString@@W4enum_query_type@@@Z
?cast_type@Item_datetime_typecast@@QBEPBDXZ
?get_date@Item_datetime_typecast@@UAE_NPAUst_mysql_time@@I@Z
?get_date@Item_func_makedate@@UAE_NPAUst_mysql_time@@I@Z
?val_datetime@Item_func_add_time@@EAE_NPAUst_mysql_time@@I@Z
?fix_length_and_dec@Item_func_add_time@@UAEXXZ
?print@Item_func_add_time@@UAEXPAVString@@W4enum_query_type@@@Z
?get_time@Item_func_timediff@@UAE_NPAUst_mysql_time@@@Z
?get_time@Item_func_maketime@@UAE_NPAUst_mysql_time@@@Z
?val_int@Item_func_microsecond@@UAE_JXZ
?val_int@Item_func_timestamp_diff@@UAE_JXZ
?print@Item_func_timestamp_diff@@UAEXPAVString@@W4enum_query_type@@@Z
?val_str_ascii@Item_func_get_format@@UAEPAVString@@PAV2@@Z
?print@Item_func_get_format@@UAEXPAVString@@W4enum_query_type@@@Z
?fix_from_format@Item_func_str_to_date@@AAEXPBDI@Z
?val_datetime@Item_func_str_to_date@@MAE_NPAUst_mysql_time@@I@Z
?fix_length_and_dec@Item_func_str_to_date@@UAEXXZ
?get_date@Item_func_last_day@@UAE_NPAUst_mysql_time@@I@Z
?make_date_time@@YA_NPAUst_date_time_format@@PAUst_mysql_time@@W4enum_mysql_timestamp_type@@PAVString@@@Z
?datetime_flags@THD@@QBE_KXZ
?datetime_to_time@@YAXPAUst_mysql_time@@@Z
?datetime_to_date@@YAXPAUst_mysql_time@@@Z
?date_to_datetime@@YAXPAUst_mysql_time@@@Z
?my_datetime_trunc@@YAXPAUst_mysql_time@@I@Z
?gmt_sec_to_TIME@Time_zone@@QAEXPAUst_mysql_time@@Utimeval@@@Z
?week_mode@@YAII@Z
?my_decimal2int@@YAHIPBVmy_decimal@@DPA_J@Z
??0Blob_mem_storage@@QAE@XZ
??1Blob_mem_storage@@QAE@XZ
?reset@Blob_mem_storage@@QAEXXZ
?set_truncated_value@Blob_mem_storage@@QAEX_N@Z
?is_truncated_value@Blob_mem_storage@@QAE_NXZ
?val_temporal_by_field_type@Field@@QAE_JXZ
?is_null_in_record@Field@@QBE_NPBE@Z
?val_str@Field@@QAEPAVString@@PAV2@PBE@Z
?normalize_dec@Field_temporal@@IAEEE@Z
?date_flags@Field_temporal@@MAE_KPBVTHD@@@Z
??0Field_temporal@@QAE@PAE0EW4utype@Field@@PBDIE@Z
?result_type@Field_temporal@@UBE?AW4Item_result@@XZ
?max_display_length@Field_temporal@@UAEIXZ
?str_needs_quotes@Field_temporal@@UAE_NXZ
?numeric_context_result_type@Field_temporal@@UBE?AW4Item_result@@XZ
?cmp_type@Field_temporal@@UBE?AW4Item_result@@XZ
?derivation@Field_temporal@@UBE?AW4Derivation@@XZ
?repertoire@Field_temporal@@UBEIXZ
?charset@Field_temporal@@UBEPBUcharset_info_st@@XZ
?can_be_compared_as_longlong@Field_temporal@@UBE_NXZ
?binary@Field_temporal@@UBE_NXZ
?val_real@Field_temporal@@UAENXZ
??1Field_temporal@@UAE@XZ
??0Field_temporal@@QAE@ABV0@@Z
??0Field_temporal_with_date@@QAE@PAE0EW4utype@Field@@PBDEE@Z
?get_time@Field_temporal_with_date@@UAE_NPAUst_mysql_time@@@Z
??1Field_temporal_with_date@@UAE@XZ
??0Field_temporal_with_date@@QAE@ABV0@@Z
?do_save_field_metadata@Field_temporal_with_date_and_time@@EAEHPAE@Z
??0Field_temporal_with_date_and_time@@QAE@PAE0EW4utype@Field@@PBDE@Z
??1Field_temporal_with_date_and_time@@UAE@XZ
??0Field_temporal_with_date_and_time@@QAE@ABV0@@Z
?do_save_field_metadata@Field_temporal_with_date_and_timef@@EAEHPAE@Z
??0Field_temporal_with_date_and_timef@@QAE@PAE0EW4utype@Field@@PBDE@Z
?decimals@Field_temporal_with_date_and_timef@@UBEIXZ
?sort_charset@Field_temporal_with_date_and_timef@@UBEPBUcharset_info_st@@XZ
?make_sort_key@Field_temporal_with_date_and_timef@@UAEXPAEI@Z
?cmp@Field_temporal_with_date_and_timef@@UAEHPBE0@Z
?row_pack_length@Field_temporal_with_date_and_timef@@UBEIXZ
